Microchip MPLAB XC8 Compiler V2.41

Linker command line:

-W-3 \
  --edf=C:\Program Files\Microchip\xc8\v2.41\pic\dat\20230208172133_en.msgs \
  -cn -h+dist/default/production\car_back_box.X.production.sym \
  --cmf=dist/default/production\car_back_box.X.production.cmf -z -Q18F4580 \
  -oC:\Users\santh\AppData\Local\Temp\xcAs4kc.\driver_tmp_3.o \
  --defsym=__MPLAB_BUILD=1 --fixupoverflow=error \
  -Mdist/default/production/car_back_box.X.production.map \
  --md=C:\Users\santh\AppData\Local\Temp\xcAs4kc.\driver_tmp_0.dat -E1 \
  -ver=XC8 Compiler --acfsm=1493 -ACODE=00h-03000h -ACONST=00h-03000h \
  -ASMALLCONST=0600h-06FFhx42,03000h-03000h -AMEDIUMCONST=0600h-03000h \
  -ACOMRAM=01h-05Fh -AABS1=00h-05FFh -ABIGRAM=01h-05FFh \
  -ARAM=060h-0FFh,0100h-01FFhx5 -ABANK0=060h-0FFh -ABANK1=0100h-01FFh \
  -ABANK2=0200h-02FFh -ABANK3=0300h-03FFh -ABANK4=0400h-04FFh \
  -ABANK5=0500h-05FFh -ASFR=0D00h-0DFFhx2,0F00h-0F5Fh,0F60h-0FFFh \
  -ABIGSFR=0D00h-0FFFh -ACONFIG=0300000h-030000Dh -AIDLOC=0200000h-0200007h \
  -AEEDATA=0F00000h-0F000FFh -peeprom_data=EEDATA \
  -preset_vec=00h,intcode=08h,intcodelo,powerup,init -pramtop=0600h \
  -psmallconst=SMALLCONST -pmediumconst=MEDIUMCONST -pconst=CONST \
  -AFARRAM=00h-00h \
  -prdata=COMRAM,nvrram=COMRAM,nvbit=COMRAM,rbss=COMRAM,rbit=COMRAM \
  -pfarbss=FARRAM,fardata=FARRAM,nvFARRAM=FARRAM \
  -pintsave_regs=BIGRAM,bigbss=BIGRAM,bigdata=BIGRAM -pbss=RAM \
  -pidata=CODE,irdata=CODE,ibigdata=CODE,ifardata=CODE -prparam=COMRAM \
  C:\Users\santh\AppData\Local\Temp\xcAs4kc.\driver_tmp_9.o \
  dist/default/production\car_back_box.X.production.o 

Object code version is 3.11

Machine type is 18F4580



                Name                               Link     Load   Length Selector   Space Scale
C:\Users\santh\AppData\Local\Temp\xcAs4kc.\driver_tmp_9.o
                idloc                            200000   200000        8        0       5
                config                           300000   300000        E        0       4
                init                                  E        E        4        4       0
                reset_vec                             0        0        4        0       0
dist/default/production\car_back_box.X.production.o
                intcode                               8        8        6        4       0
                idloc                            200000   200000        8        0       5
                config                           300000   300000        E        0       4
                temp                                 5D       5D        1        1       1
                mediumconst                        2ECE     2ECE      132     1767       0
                intcode_body                       187A     187A       48        4       0
                text41                             1940     1940       3A        4       0
                text40                             16B4     16B4       6C        4       0
                text39                             1A6C     1A6C       18      CD4       0
                text38                              3AC      3AC      2E0        4       0
                text37                             1AAC     1AAC       12      CD4       0
                text36                               12       12      39A        4       0
                text35                             10C4     10C4      106        4       0
                text34                              B50      B50      1B4        4       0
                text33                             15CE     15CE       74        4       0
                text32                             1786     1786       64        4       0
                text31                             1902     1902       3E        4       0
                text30                              D04      D04      182        4       0
                text29                             1B04     1B04        6      CD4       0
                text28                             1A9A     1A9A       12      CD4       0
                text27                             1AF6     1AF6        8      CD4       0
                text26                             1ACA     1ACA        C      CD4       0
                text25                             1AEE     1AEE        8      CD4       0
                text24                             1AE6     1AE6        8      CD4       0
                text23                             1ADE     1ADE        8      CD4       0
                text22                             1ABE     1ABE        C      CD4       0
                text21                             19D2     19D2       2A      CD4       0
                text20                             154E     154E       80        4       0
                text19                             1832     1832       48        4       0
                text18                             18C2     18C2       40        4       0
                text17                             14BA     14BA       94        4       0
                text16                             11CA     11CA       D2        4       0
                text15                             1A1A     1A1A       1E      CD4       0
                text14                             140A     140A       B0        4       0
                text13                             19FC     19FC       1E      CD4       0
                text12                             17EA     17EA       48        4       0
                text11                             1A84     1A84       16      CD4       0
                text10                             1AD6     1AD6        8      CD4       0
                text9                              1A52     1A52       1A      CD4       0
                text8                              1A38     1A38       1A      CD4       0
                text7                              129C     129C       BE        4       0
                text6                               68C      68C      2DE        4       0
                text5                               FBC      FBC      108        4       0
                text4                              1642     1642       72        4       0
                text3                              135A     135A       B0        4       0
                text2                              19A8     19A8       2A      CD4       0
                text1                               96A      96A      1E6        4       0
                text0                               E86      E86      136        4       0
                cstackCOMRAM                          1        1       3B        1       1
                dataBANK0                            60       60       2D       60       1
                bssBANK0                             8D       8D       1C       60       1
                dataCOMRAM                           57       57        6        1       1
                bssCOMRAM                            3C       3C       1B        1       1
                cinit                              1720     1720       66        4       0
                idataBANK0                         197A     197A       2D        4       0
                idataCOMRAM                        1AFE     1AFE        6      CD4       0

TOTAL           Name                               Link     Load   Length     Space
        CLASS   CODE           
                intcode                               8        8        6         0
                init                                  E        E        4         0
                reset_vec                             0        0        4         0
                intcode_body                       187A     187A       48         0
                text41                             1940     1940       3A         0
                text40                             16B4     16B4       6C         0
                text39                             1A6C     1A6C       18         0
                text38                              3AC      3AC      2E0         0
                text37                             1AAC     1AAC       12         0
                text36                               12       12      39A         0
                text35                             10C4     10C4      106         0
                text34                              B50      B50      1B4         0
                text33                             15CE     15CE       74         0
                text32                             1786     1786       64         0
                text31                             1902     1902       3E         0
                text30                              D04      D04      182         0
                text29                             1B04     1B04        6         0
                text28                             1A9A     1A9A       12         0
                text27                             1AF6     1AF6        8         0
                text26                             1ACA     1ACA        C         0
                text25                             1AEE     1AEE        8         0
                text24                             1AE6     1AE6        8         0
                text23                             1ADE     1ADE        8         0
                text22                             1ABE     1ABE        C         0
                text21                             19D2     19D2       2A         0
                text20                             154E     154E       80         0
                text19                             1832     1832       48         0
                text18                             18C2     18C2       40         0
                text17                             14BA     14BA       94         0
                text16                             11CA     11CA       D2         0
                text15                             1A1A     1A1A       1E         0
                text14                             140A     140A       B0         0
                text13                             19FC     19FC       1E         0
                text12                             17EA     17EA       48         0
                text11                             1A84     1A84       16         0
                text10                             1AD6     1AD6        8         0
                text9                              1A52     1A52       1A         0
                text8                              1A38     1A38       1A         0
                text7                              129C     129C       BE         0
                text6                               68C      68C      2DE         0
                text5                               FBC      FBC      108         0
                text4                              1642     1642       72         0
                text3                              135A     135A       B0         0
                text2                              19A8     19A8       2A         0
                text1                               96A      96A      1E6         0
                text0                               E86      E86      136         0
                cinit                              1720     1720       66         0
                idataBANK0                         197A     197A       2D         0
                idataCOMRAM                        1AFE     1AFE        6         0

        CLASS   CONST          

        CLASS   SMALLCONST     

        CLASS   MEDIUMCONST    
                mediumconst                        2ECE     2ECE      132         0

        CLASS   COMRAM         
                temp                                 5D       5D        1         1
                cstackCOMRAM                          1        1       3B         1
                dataCOMRAM                           57       57        6         1
                bssCOMRAM                            3C       3C       1B         1

        CLASS   ABS1           

        CLASS   BIGRAM         

        CLASS   RAM            

        CLASS   BANK0          
                dataBANK0                            60       60       2D         1
                bssBANK0                             8D       8D       1C         1

        CLASS   BANK1          

        CLASS   BANK2          

        CLASS   BANK3          

        CLASS   BANK4          

        CLASS   BANK5          

        CLASS   SFR            

        CLASS   BIGSFR         

        CLASS   CONFIG         
                config                           300000   300000        E         4

        CLASS   IDLOC          
                idloc                            200000   200000        8         5

        CLASS   EEDATA         

        CLASS   FARRAM         

        CLASS   HEAP           

        CLASS   STACK          



SEGMENTS        Name                           Load    Length   Top    Selector   Space  Class

                reset_vec                      000000  000004  000004         0       0  CODE    
                cstackCOMRAM                   000001  00005D  00005E         1       1  COMRAM  
                intcode                        000008  00199F  0019A7         4       0  CODE    
                dataBANK0                      000060  000049  0000A9        60       1  BANK0   
                text2                          0019A8  000162  001B0A       CD4       0  CODE    
                mediumconst                    002ECE  000132  003000      1767       0  MEDIUMCO


UNUSED ADDRESS RANGES

        Name                Unused          Largest block    Delta
        BANK0            0000A9-0000FF               57
        BANK1            000100-0001FF              100
        BANK2            000200-0002FF              100
        BANK3            000300-0003FF              100
        BANK4            000400-0004FF              100
        BANK5            000500-0005FF              100
        BIGRAM           00005E-00005F                2
                         0000A9-0005FF              557
        BIGSFR           000D00-000FFF              300
        CODE             000004-000007                4
                         0019A7-0019A7                1
                         001B0A-002ECD             13C4
                         003000-003000                1
        COMRAM           00005E-00005F                2
        CONST            000004-000007                4
                         0019A7-0019A7                1
                         001B0A-002ECD             13C4
                         003000-003000                1
        EEDATA           F00000-F000FF              100
        MEDIUMCONST      0019A7-0019A7                1
                         001B0A-002ECD             13C4
                         003000-003000                1
        RAM              0000A9-0005FF              100
        SFR              000D00-000FFF              100
        SMALLCONST       0019A7-0019A7                1
                         001B0A-002ECD              100
                         003000-003000                1

                                  Symbol Table

?___awmod                           cstackCOMRAM 000001
?___fldiv                           cstackCOMRAM 000017
?___fltol                           cstackCOMRAM 000030
?___lwdiv                           cstackCOMRAM 000001
?___lwmod                           cstackCOMRAM 000001
?___xxtofl                          cstackCOMRAM 000009
?_read_adc                          cstackCOMRAM 000001
?_validate_password                 cstackCOMRAM 000001
_ACKDT                              (abs)        007E2D
_ACKEN                              (abs)        007E2C
_ACKSTAT                            (abs)        007E2E
_ACQT0                              (abs)        007E03
_ACQT1                              (abs)        007E04
_ACQT2                              (abs)        007E05
_ADCON0                             (abs)        000FC2
_ADCS0                              (abs)        007E00
_ADCS1                              (abs)        007E01
_ADCS2                              (abs)        007E02
_ADFM                               (abs)        007E07
_ADON                               (abs)        007E10
_ADRESH                             (abs)        000FC4
_ADRESL                             (abs)        000FC3
_BCLIF                              (abs)        007D0B
_CKE                                (abs)        007E3E
_GIE                                (abs)        007F97
_GO                                 (abs)        007E11
_PCFG0                              (abs)        007E08
_PCFG1                              (abs)        007E09
_PCFG2                              (abs)        007E0A
_PCFG3                              (abs)        007E0B
_PEIE                               (abs)        007F96
_PEN                                (abs)        007E2A
_PORTD                              (abs)        000F83
_PSA                                (abs)        007EAB
_RB1                                (abs)        007C09
_RB2                                (abs)        007C0A
_RB3                                (abs)        007C0B
_RB4                                (abs)        007C0C
_RB5                                (abs)        007C0D
_RB6                                (abs)        007C0E
_RB7                                (abs)        007C0F
_RBPU                               (abs)        007F8F
_RC0                                (abs)        007C10
_RC1                                (abs)        007C11
_RC2                                (abs)        007C12
_RCEN                               (abs)        007E2B
_RD7                                (abs)        007C1F
_RSEN                               (abs)        007E29
_SEN                                (abs)        007E28
_SMP                                (abs)        007E3F
_SSPADD                             (abs)        000FC8
_SSPBUF                             (abs)        000FC9
_SSPCON1                            (abs)        000FC6
_SSPIF                              (abs)        007CF3
_T08BIT                             (abs)        007EAE
_T0CS                               (abs)        007EAD
_TMR0                               (abs)        000FD6
_TMR0IE                             (abs)        007F95
_TMR0IF                             (abs)        007F92
_TMR0ON                             (abs)        007EAF
_TRISB                              (abs)        000F93
_TRISC                              (abs)        000F94
_TRISC3                             (abs)        007CA3
_TRISC4                             (abs)        007CA4
_TRISD                              (abs)        000F95
_TRISD7                             (abs)        007CAF
_VCFG0                              (abs)        007E0C
_VCFG1                              (abs)        007E0D
__HRAM                              (abs)        000000
__H__absolute__                     __absolute__ 000000
__Habs1                             abs1         000000
__Hbank0                            bank0        000000
__Hbank1                            bank1        000000
__Hbank2                            bank2        000000
__Hbank3                            bank3        000000
__Hbank4                            bank4        000000
__Hbank5                            bank5        000000
__Hbigbss                           bigbss       000000
__Hbigdata                          bigdata      000000
__Hbigram                           bigram       000000
__Hbigsfr                           bigsfr       000000
__Hbss                              bss          000000
__HbssBANK0                         bssBANK0     000000
__HbssCOMRAM                        bssCOMRAM    000000
__Hcinit                            cinit        000000
__Hclrtext                          clrtext      000000
__Hcomram                           comram       000000
__Hconfig                           config       30000E
__Hconst                            const        000000
__HcstackCOMRAM                     cstackCOMRAM 000000
__Hdata                             data         000000
__HdataBANK0                        dataBANK0    000000
__HdataCOMRAM                       dataCOMRAM   000000
__Heeprom_data                      eeprom_data  000000
__Hfarbss                           farbss       000000
__Hfardata                          fardata      000000
__Hheap                             heap         000000
__Hibigdata                         ibigdata     000000
__Hidata                            idata        000000
__HidataBANK0                       idataBANK0   000000
__HidataCOMRAM                      idataCOMRAM  000000
__Hidloc                            idloc        200008
__Hifardata                         ifardata     000000
__Hinit                             init         000012
__Hintcode                          intcode      00000E
__Hintcode_body                     intcode_body 000000
__Hintcodelo                        intcodelo    00000E
__Hintentry                         intentry     000000
__Hintret                           intret       000000
__Hintsave_regs                     intsave_regs 000000
__Hirdata                           irdata       000000
__Hmediumconst                      mediumconst  003000
__HnvFARRAM                         nvFARRAM     000000
__Hnvbit                            nvbit        000000
__Hnvrram                           nvrram       000000
__Hparam                            rparam       000000
__Hpowerup                          powerup      00000E
__Hram                              ram          000000
__Hramtop                           ramtop       000600
__Hrbit                             rbit         000000
__Hrbss                             rbss         000000
__Hrdata                            rdata        000000
__Hreset_vec                        reset_vec    000004
__Hrparam                           rparam       000000
__Hsfr                              sfr          000000
__Hsmallconst                       smallconst   000000
__Hspace_0                          (abs)        003000
__Hspace_1                          (abs)        0000A9
__Hspace_2                          (abs)        000000
__Hspace_4                          (abs)        60000E
__Hstack                            stack        000000
__Hstruct                           struct       000000
__Htemp                             temp         00005E
__Htext                             text         000000
__Htext0                            text0        000000
__Htext1                            text1        000000
__Htext10                           text10       000000
__Htext11                           text11       000000
__Htext12                           text12       000000
__Htext13                           text13       000000
__Htext14                           text14       000000
__Htext15                           text15       000000
__Htext16                           text16       000000
__Htext17                           text17       000000
__Htext18                           text18       000000
__Htext19                           text19       000000
__Htext2                            text2        000000
__Htext20                           text20       000000
__Htext21                           text21       000000
__Htext22                           text22       000000
__Htext23                           text23       000000
__Htext24                           text24       000000
__Htext25                           text25       000000
__Htext26                           text26       000000
__Htext27                           text27       000000
__Htext28                           text28       000000
__Htext29                           text29       000000
__Htext3                            text3        000000
__Htext30                           text30       000000
__Htext31                           text31       000000
__Htext32                           text32       000000
__Htext33                           text33       000000
__Htext34                           text34       000000
__Htext35                           text35       000000
__Htext36                           text36       000000
__Htext37                           text37       000000
__Htext38                           text38       000000
__Htext39                           text39       000000
__Htext4                            text4        000000
__Htext40                           text40       000000
__Htext41                           text41       000000
__Htext5                            text5        000000
__Htext6                            text6        000000
__Htext7                            text7        000000
__Htext8                            text8        000000
__Htext9                            text9        000000
__LRAM                              (abs)        000001
__L__absolute__                     __absolute__ 000000
__Labs1                             abs1         000000
__Lbank0                            bank0        000000
__Lbank1                            bank1        000000
__Lbank2                            bank2        000000
__Lbank3                            bank3        000000
__Lbank4                            bank4        000000
__Lbank5                            bank5        000000
__Lbigbss                           bigbss       000000
__Lbigdata                          bigdata      000000
__Lbigram                           bigram       000000
__Lbigsfr                           bigsfr       000000
__Lbss                              bss          000000
__LbssBANK0                         bssBANK0     000000
__LbssCOMRAM                        bssCOMRAM    000000
__Lcinit                            cinit        000000
__Lclrtext                          clrtext      000000
__Lcomram                           comram       000000
__Lconfig                           config       000000
__Lconst                            const        000000
__LcstackCOMRAM                     cstackCOMRAM 000000
__Ldata                             data         000000
__LdataBANK0                        dataBANK0    000000
__LdataCOMRAM                       dataCOMRAM   000000
__Leeprom_data                      eeprom_data  000000
__Lfarbss                           farbss       000000
__Lfardata                          fardata      000000
__Lheap                             heap         000000
__Libigdata                         ibigdata     000000
__Lidata                            idata        000000
__LidataBANK0                       idataBANK0   000000
__LidataCOMRAM                      idataCOMRAM  000000
__Lidloc                            idloc        000000
__Lifardata                         ifardata     000000
__Linit                             init         00000E
__Lintcode                          intcode      000008
__Lintcode_body                     intcode_body 000000
__Lintcodelo                        intcodelo    00000E
__Lintentry                         intentry     000000
__Lintret                           intret       000000
__Lintsave_regs                     intsave_regs 000000
__Lirdata                           irdata       000000
__Lmediumconst                      mediumconst  002ECE
__LnvFARRAM                         nvFARRAM     000000
__Lnvbit                            nvbit        000000
__Lnvrram                           nvrram       000000
__Lparam                            rparam       000000
__Lpowerup                          powerup      00000E
__Lram                              ram          000000
__Lramtop                           ramtop       000600
__Lrbit                             rbit         000000
__Lrbss                             rbss         000000
__Lrdata                            rdata        000000
__Lreset_vec                        reset_vec    000000
__Lrparam                           rparam       000000
__Lsfr                              sfr          000000
__Lsmallconst                       smallconst   000000
__Lspace_0                          (abs)        000000
__Lspace_1                          (abs)        000000
__Lspace_2                          (abs)        000000
__Lspace_4                          (abs)        000000
__Lstack                            stack        000000
__Lstruct                           struct       000000
__Ltemp                             temp         00005D
__Ltext                             text         000000
__Ltext0                            text0        000000
__Ltext1                            text1        000000
__Ltext10                           text10       000000
__Ltext11                           text11       000000
__Ltext12                           text12       000000
__Ltext13                           text13       000000
__Ltext14                           text14       000000
__Ltext15                           text15       000000
__Ltext16                           text16       000000
__Ltext17                           text17       000000
__Ltext18                           text18       000000
__Ltext19                           text19       000000
__Ltext2                            text2        000000
__Ltext20                           text20       000000
__Ltext21                           text21       000000
__Ltext22                           text22       000000
__Ltext23                           text23       000000
__Ltext24                           text24       000000
__Ltext25                           text25       000000
__Ltext26                           text26       000000
__Ltext27                           text27       000000
__Ltext28                           text28       000000
__Ltext29                           text29       000000
__Ltext3                            text3        000000
__Ltext30                           text30       000000
__Ltext31                           text31       000000
__Ltext32                           text32       000000
__Ltext33                           text33       000000
__Ltext34                           text34       000000
__Ltext35                           text35       000000
__Ltext36                           text36       000000
__Ltext37                           text37       000000
__Ltext38                           text38       000000
__Ltext39                           text39       000000
__Ltext4                            text4        000000
__Ltext40                           text40       000000
__Ltext41                           text41       000000
__Ltext5                            text5        000000
__Ltext6                            text6        000000
__Ltext7                            text7        000000
__Ltext8                            text8        000000
__Ltext9                            text9        000000
__S0                                (abs)        003000
__S1                                (abs)        0000A9
__S4                                (abs)        000000
__S5                                (abs)        000000
___awmod                            text3        00135A
___awmod@counter                    cstackCOMRAM 000005
___awmod@dividend                   cstackCOMRAM 000001
___awmod@divisor                    cstackCOMRAM 000003
___awmod@sign                       cstackCOMRAM 000006
___fldiv                            text36       000012
___fldiv@a                          cstackCOMRAM 00001B
___fldiv@aexp                       cstackCOMRAM 00002F
___fldiv@b                          cstackCOMRAM 000017
___fldiv@bexp                       cstackCOMRAM 00002E
___fldiv@grs                        cstackCOMRAM 00002A
___fldiv@new_exp                    cstackCOMRAM 000028
___fldiv@rem                        cstackCOMRAM 000023
___fldiv@sign                       cstackCOMRAM 000027
___fltol                            text35       0010C4
___fltol@exp1                       cstackCOMRAM 000039
___fltol@f1                         cstackCOMRAM 000030
___fltol@sign1                      cstackCOMRAM 000038
___heap_hi                          (abs)        000000
___heap_lo                          (abs)        000000
___inthi_sp                         stack        000000
___intlo_sp                         stack        000000
___lwdiv                            text33       0015CE
___lwdiv@counter                    cstackCOMRAM 000007
___lwdiv@dividend                   cstackCOMRAM 000001
___lwdiv@divisor                    cstackCOMRAM 000003
___lwdiv@quotient                   cstackCOMRAM 000005
___lwmod                            text32       001786
___lwmod@counter                    cstackCOMRAM 000005
___lwmod@dividend                   cstackCOMRAM 000001
___lwmod@divisor                    cstackCOMRAM 000003
___param_bank                       (abs)        000000
___rparam_used                      (abs)        000001
___sp                               stack        000000
___xxtofl                           text34       000B50
___xxtofl@arg                       cstackCOMRAM 000013
___xxtofl@exp                       cstackCOMRAM 000012
___xxtofl@sign                      cstackCOMRAM 000011
___xxtofl@val                       cstackCOMRAM 000009
__accesstop                         (abs)        000060
__activetblptr                      (abs)        000002
__end_of___awmod                    text3        00140A
__end_of___fldiv                    text36       0003AC
__end_of___fltol                    text35       0011CA
__end_of___lwdiv                    text33       001642
__end_of___lwmod                    text32       0017EA
__end_of___xxtofl                   text34       000D04
__end_of__initialization            cinit        001778
__end_of_car_menu                   text38       00068C
__end_of_change_password            text37       001ABE
__end_of_clcd_print                 text40       001720
__end_of_clcd_putch                 text39       001A84
__end_of_clcd_write                 text41       00197A
__end_of_display_dashboard          text16       00129C
__end_of_display_speed              text31       001940
__end_of_gear_monitor               text30       000E86
__end_of_get_time                   text20       0015CE
__end_of_i2c_idle                   text28       001AAC
__end_of_i2c_no_ack                 text29       001B0A
__end_of_i2c_read                   text26       001AD6
__end_of_i2c_rep_start              text25       001AF6
__end_of_i2c_rx_mode                text27       001AFE
__end_of_i2c_start                  text24       001AEE
__end_of_i2c_stop                   text23       001AE6
__end_of_i2c_write                  text22       001ACA
__end_of_init_adc                   text15       001A38
__end_of_init_clcd                  text14       0014BA
__end_of_init_config                text8        001A52
__end_of_init_ds1307                text12       001832
__end_of_init_i2c                   text11       001A9A
__end_of_init_matrix_keypad         text10       001ADE
__end_of_init_timer0                text9        001A6C
__end_of_isr                        intcode_body 0018C2
__end_of_main                       text0        000FBC
__end_of_read_adc                   text19       00187A
__end_of_read_ds1307                text21       0019FC
__end_of_read_external_eeprom       text2        0019D2
__end_of_read_password              text6        00096A
__end_of_read_switches              text4        0016B4
__end_of_scan_key                   text5        0010C4
__end_of_store_event                text17       00154E
__end_of_validate_password          text7        00135A
__end_of_view_log                   text1        000B50
__end_of_write_ds1307               text13       001A1A
__end_of_write_external_eeprom      text18       001902
__initialization                    cinit        001720
__mediumconst                       mediumconst  002ECE
__pbssBANK0                         bssBANK0     00008D
__pbssCOMRAM                        bssCOMRAM    00003C
__pcinit                            cinit        001720
__pcstackCOMRAM                     cstackCOMRAM 000001
__pdataBANK0                        dataBANK0    000060
__pdataCOMRAM                       dataCOMRAM   000057
__pidataBANK0                       idataBANK0   00197A
__pidataCOMRAM                      idataCOMRAM  001AFE
__pintcode                          intcode      000008
__pintcode_body                     intcode_body 00187A
__pmediumconst                      mediumconst  002ECE
__ptext0                            text0        000E86
__ptext1                            text1        00096A
__ptext10                           text10       001AD6
__ptext11                           text11       001A84
__ptext12                           text12       0017EA
__ptext13                           text13       0019FC
__ptext14                           text14       00140A
__ptext15                           text15       001A1A
__ptext16                           text16       0011CA
__ptext17                           text17       0014BA
__ptext18                           text18       0018C2
__ptext19                           text19       001832
__ptext2                            text2        0019A8
__ptext20                           text20       00154E
__ptext21                           text21       0019D2
__ptext22                           text22       001ABE
__ptext23                           text23       001ADE
__ptext24                           text24       001AE6
__ptext25                           text25       001AEE
__ptext26                           text26       001ACA
__ptext27                           text27       001AF6
__ptext28                           text28       001A9A
__ptext29                           text29       001B04
__ptext3                            text3        00135A
__ptext30                           text30       000D04
__ptext31                           text31       001902
__ptext32                           text32       001786
__ptext33                           text33       0015CE
__ptext34                           text34       000B50
__ptext35                           text35       0010C4
__ptext36                           text36       000012
__ptext37                           text37       001AAC
__ptext38                           text38       0003AC
__ptext39                           text39       001A6C
__ptext4                            text4        001642
__ptext40                           text40       0016B4
__ptext41                           text41       001940
__ptext5                            text5        000FBC
__ptext6                            text6        00068C
__ptext7                            text7        00129C
__ptext8                            text8        001A38
__ptext9                            text9        001A52
__ramtop                            ramtop       000600
__smallconst                        smallconst   000000
_address                            bssCOMRAM    000053
_attempt                            dataCOMRAM   00005C
_car_menu                           text38       0003AC
_change_password                    text37       001AAC
_clcd_print                         text40       0016B4
_clcd_putch                         text39       001A6C
_clcd_write                         text41       001940
_clock_reg                          bssCOMRAM    00003C
_count                              bssBANK0     00008D
_count_event                        bssCOMRAM    000054
_display_dashboard                  text16       0011CA
_display_speed                      text31       001902
_enter_flag                         bssCOMRAM    000056
_enter_password                     bssBANK0     0000A4
_event                              dataBANK0    00007C
_gear_data                          dataBANK0    000060
_gear_index                         bssCOMRAM    00004D
_gear_monitor                       text30       000D04
_get_time                           text20       00154E
_i2c_idle                           text28       001A9A
_i2c_no_ack                         text29       001B04
_i2c_read                           text26       001ACA
_i2c_rep_start                      text25       001AEE
_i2c_rx_mode                        text27       001AF6
_i2c_start                          text24       001AE6
_i2c_stop                           text23       001ADE
_i2c_write                          text22       001ABE
_index                              bssCOMRAM    000049
_index_1                            bssCOMRAM    000043
_index_2                            dataCOMRAM   000059
_index_eeprom                       bssCOMRAM    00004F
_init_adc                           text15       001A1A
_init_clcd                          text14       00140A
_init_config                        text8        001A38
_init_ds1307                        text12       0017EA
_init_i2c                           text11       001A84
_init_matrix_keypad                 text10       001AD6
_init_timer0                        text9        001A52
_isr                                intcode      000008
_key                                bssBANK0     00008F
_main                               text0        000E86
_menu                               dataBANK0    000070
_menu_flag                          bssBANK0     000091
_menu_index                         bssCOMRAM    000041
_original_password                  dataBANK0    00007A
_pass_key                           bssCOMRAM    000055
_previous_key                       bssCOMRAM    000045
_read_adc                           text19       001832
_read_ds1307                        text21       0019D2
_read_external_eeprom               text2        0019A8
_read_password                      text6        00068C
_read_switches                      text4        001642
_scan_key                           text5        000FBC
_sec                                bssCOMRAM    000051
_speed                              bssCOMRAM    00004B
_star_flag                          dataCOMRAM   000057
_store_event                        text17       0014BA
_validate_password                  text7        00129C
_view_event                         bssBANK0     000093
_view_log                           text1        00096A
_wait                               bssCOMRAM    000047
_wait1                              bssCOMRAM    00003F
_write_ds1307                       text13       0019FC
_write_external_eeprom              text18       0018C2
btemp                               temp         00005D
car_menu@key                        cstackCOMRAM 00000C
clcd_print@addr                     cstackCOMRAM 000005
clcd_print@data                     cstackCOMRAM 000003
clcd_putch@addr                     cstackCOMRAM 000008
clcd_putch@data                     cstackCOMRAM 000009
clcd_write@byte                     cstackCOMRAM 000002
clcd_write@control_bit              cstackCOMRAM 000001
display_dashboard@key               cstackCOMRAM 00003A
display_speed@speed                 cstackCOMRAM 000008
end_of_initialization               cinit        001778
gear_monitor@ind                    cstackCOMRAM 000003
gear_monitor@key                    cstackCOMRAM 000005
i2c_write@data                      cstackCOMRAM 000001
init_ds1307@dummy                   cstackCOMRAM 000004
int$flags                           temp         00005D
int_func                            intcode_body 00187A
intlevel0                           text         000000
intlevel1                           text         000000
intlevel2                           text         000000
intlevel3                           text         000000
isa$std                             (abs)        000001
isa$xinst                           (abs)        000000
main@key                            cstackCOMRAM 00003B
read_adc@channel                    cstackCOMRAM 000008
read_ds1307@address                 cstackCOMRAM 000002
read_ds1307@data                    cstackCOMRAM 000003
read_external_eeprom@address        cstackCOMRAM 000002
read_external_eeprom@data           cstackCOMRAM 000003
read_password@key                   cstackCOMRAM 00000E
read_switches@detection             cstackCOMRAM 000001
read_switches@key                   cstackCOMRAM 000002
read_switches@once                  dataCOMRAM   00005B
stackhi                             (abs)        000000
stacklo                             (abs)        000000
start                               init         00000E
start_initialization                cinit        001720
store_event@address                 cstackCOMRAM 000008
store_event@event                   cstackCOMRAM 000006
store_event@ind                     cstackCOMRAM 00000A
ttemp5                              temp         00005E
ttemp6                              temp         000061
ttemp7                              temp         000065
validate_password@enter_password    cstackCOMRAM 000003
validate_password@ind_compare       cstackCOMRAM 00000A
validate_password@original_password cstackCOMRAM 000001
view_log@i                          cstackCOMRAM 00000C
view_log@key                        cstackCOMRAM 00000E
write_ds1307@address                cstackCOMRAM 000003
write_ds1307@data                   cstackCOMRAM 000002
write_external_eeprom@address       cstackCOMRAM 000005
write_external_eeprom@data          cstackCOMRAM 000002
write_external_eeprom@i             cstackCOMRAM 000003
wtemp8                              temp         00005E


MODULE INFORMATION

Module		Function		Class		Link	Load	Size
C:\Program Files\Microchip\xc8\v2.41\pic\sources\c99\common\awmod.c
		___awmod       		CODE           	135A	0000	176

C:\Program Files\Microchip\xc8\v2.41\pic\sources\c99\common\awmod.c estimated size: 176

car_black_box.c
		_view_log      		CODE           	096A	0000	486
		_display_speed 		CODE           	1902	0000	62
		_change_password		CODE           	1AAC	0000	18
		_display_dashboard		CODE           	11CA	0000	210
		_car_menu      		CODE           	03AC	0000	736
		_get_time      		CODE           	154E	0000	128
		_gear_monitor  		CODE           	0D04	0000	386
		_validate_password		CODE           	129C	0000	190
		_store_event   		CODE           	14BA	0000	148
		_read_password 		CODE           	068C	0000	734

car_black_box.c estimated size: 3098

C:\Program Files\Microchip\xc8\v2.41\pic\sources\c99\common\fltol.c
		___fltol       		CODE           	10C4	0000	262

C:\Program Files\Microchip\xc8\v2.41\pic\sources\c99\common\fltol.c estimated size: 262

C:\Program Files\Microchip\xc8\v2.41\pic\sources\c99\common\xxtofl.c
		___xxtofl      		CODE           	0B50	0000	436

C:\Program Files\Microchip\xc8\v2.41\pic\sources\c99\common\xxtofl.c estimated size: 436

i2c.c
		_i2c_start     		CODE           	1AE6	0000	8
		_i2c_no_ack    		CODE           	1B04	0000	6
		_i2c_rep_start 		CODE           	1AEE	0000	8
		_i2c_idle      		CODE           	1A9A	0000	18
		_i2c_write     		CODE           	1ABE	0000	12
		_i2c_stop      		CODE           	1ADE	0000	8
		_i2c_read      		CODE           	1ACA	0000	12
		_init_i2c      		CODE           	1A84	0000	22
		_i2c_rx_mode   		CODE           	1AF6	0000	8

i2c.c estimated size: 102

C:\Program Files\Microchip\xc8\v2.41\pic\sources\c99\common\lwdiv.c
		___lwdiv       		CODE           	15CE	0000	116

C:\Program Files\Microchip\xc8\v2.41\pic\sources\c99\common\lwdiv.c estimated size: 116

timer0.c
		_init_timer0   		CODE           	1A52	0000	26

timer0.c estimated size: 26

ds1307.c
		_read_ds1307   		CODE           	19D2	0000	42
		_write_ds1307  		CODE           	19FC	0000	30
		_init_ds1307   		CODE           	17EA	0000	72

ds1307.c estimated size: 144

adc.c
		_init_adc      		CODE           	1A1A	0000	30
		_read_adc      		CODE           	1832	0000	72

adc.c estimated size: 102

mkp.c
		_init_matrix_keypad		CODE           	1AD6	0000	8
		_read_switches 		CODE           	1642	0000	114
		_scan_key      		CODE           	0FBC	0000	264

mkp.c estimated size: 386

isr.c
		_isr           		CODE           	0008	0000	78

isr.c estimated size: 78

shared
		__initialization		CODE           	1720	0000	88

shared estimated size: 88

clcd.c
		_clcd_write    		CODE           	1940	0000	58
		_clcd_print    		CODE           	16B4	0000	108
		_clcd_putch    		CODE           	1A6C	0000	24
		_init_clcd     		CODE           	140A	0000	176

clcd.c estimated size: 366

ext_eeprom.c
		_write_external_eeprom		CODE           	18C2	0000	64
		_read_external_eeprom		CODE           	19A8	0000	42

ext_eeprom.c estimated size: 106

main.c
		_main          		CODE           	0E86	0000	310
		_init_config   		CODE           	1A38	0000	26

main.c estimated size: 336

C:\Program Files\Microchip\xc8\v2.41\pic\sources\c99\common\sprcdiv.c
		___fldiv       		CODE           	0012	0000	922

C:\Program Files\Microchip\xc8\v2.41\pic\sources\c99\common\sprcdiv.c estimated size: 922

C:\Program Files\Microchip\xc8\v2.41\pic\sources\c99\common\lwmod.c
		___lwmod       		CODE           	1786	0000	100

C:\Program Files\Microchip\xc8\v2.41\pic\sources\c99\common\lwmod.c estimated size: 100

