

Microchip MPLAB XC8 Assembler V2.41 build 20230208172133 
                                                                                               Tue Jan 02 18:25:14 2024

Microchip MPLAB XC8 C Compiler v2.41 (Free license) build 20230208172133 Og1 
     1                           	processor	18F4580
     2                           	fnconf	rparam,??,?,0
     3                           	pagewidth 120
     4                           	opt	flic
     5                           	psect	idataCOMRAM,global,class=CODE,delta=1,noexec
     6                           	psect	idataBANK0,global,class=CODE,delta=1,noexec
     7                           	psect	mediumconst,global,reloc=2,class=MEDIUMCONST,delta=1,noexec
     8                           	psect	cinit,global,reloc=2,class=CODE,delta=1
     9                           	psect	bssCOMRAM,global,class=COMRAM,space=1,delta=1,lowdata,noexec
    10                           	psect	dataCOMRAM,global,class=COMRAM,space=1,delta=1,lowdata,noexec
    11                           	psect	bssBANK0,global,class=BANK0,space=1,delta=1,lowdata,noexec
    12                           	psect	dataBANK0,global,class=BANK0,space=1,delta=1,lowdata,noexec
    13                           	psect	cstackCOMRAM,global,class=COMRAM,space=1,delta=1,lowdata,noexec
    14                           	psect	text0,global,reloc=2,class=CODE,delta=1
    15                           	psect	text1,global,reloc=2,class=CODE,delta=1
    16                           	psect	text2,global,reloc=2,class=CODE,delta=1
    17                           	psect	text3,global,reloc=2,class=CODE,delta=1
    18                           	psect	text4,global,reloc=2,class=CODE,delta=1
    19                           	psect	text5,global,reloc=2,class=CODE,delta=1
    20                           	psect	text6,global,reloc=2,class=CODE,delta=1
    21                           	psect	text7,global,reloc=2,class=CODE,delta=1
    22                           	psect	text8,global,reloc=2,class=CODE,delta=1
    23                           	psect	text9,global,reloc=2,class=CODE,delta=1
    24                           	psect	text10,global,reloc=2,class=CODE,delta=1
    25                           	psect	text11,global,reloc=2,class=CODE,delta=1
    26                           	psect	text12,global,reloc=2,class=CODE,delta=1
    27                           	psect	text13,global,reloc=2,class=CODE,delta=1
    28                           	psect	text14,global,reloc=2,class=CODE,delta=1
    29                           	psect	text15,global,reloc=2,class=CODE,delta=1
    30                           	psect	text16,global,reloc=2,class=CODE,delta=1
    31                           	psect	text17,global,reloc=2,class=CODE,delta=1
    32                           	psect	text18,global,reloc=2,class=CODE,delta=1
    33                           	psect	text19,global,reloc=2,class=CODE,delta=1
    34                           	psect	text20,global,reloc=2,class=CODE,delta=1
    35                           	psect	text21,global,reloc=2,class=CODE,delta=1
    36                           	psect	text22,global,reloc=2,class=CODE,delta=1
    37                           	psect	text23,global,reloc=2,class=CODE,delta=1,group=1
    38                           	psect	text24,global,reloc=2,class=CODE,delta=1,group=1
    39                           	psect	text25,global,reloc=2,class=CODE,delta=1
    40                           	psect	text26,global,reloc=2,class=CODE,delta=1
    41                           	psect	text27,global,reloc=2,class=CODE,delta=1
    42                           	psect	text28,global,reloc=2,class=CODE,delta=1
    43                           	psect	text29,global,reloc=2,class=CODE,delta=1
    44                           	psect	text30,global,reloc=2,class=CODE,delta=1
    45                           	psect	text31,global,reloc=2,class=CODE,delta=1
    46                           	psect	text32,global,reloc=2,class=CODE,delta=1
    47                           	psect	text33,global,reloc=2,class=CODE,delta=1
    48                           	psect	text34,global,reloc=2,class=CODE,delta=1
    49                           	psect	text35,global,reloc=2,class=CODE,delta=1
    50                           	psect	text36,global,reloc=2,class=CODE,delta=1
    51                           	psect	text37,global,reloc=2,class=CODE,delta=1
    52                           	psect	text38,global,reloc=2,class=CODE,delta=1
    53                           	psect	text39,global,reloc=2,class=CODE,delta=1
    54                           	psect	text40,global,reloc=2,class=CODE,delta=1,group=1
    55                           	psect	text41,global,reloc=2,class=CODE,delta=1,group=1
    56                           	psect	text42,global,reloc=2,class=CODE,delta=1,group=1
    57                           	psect	intcode,global,reloc=2,class=CODE,delta=1
    58                           	psect	intcode_body,global,reloc=2,class=CODE,delta=1
    59                           	psect	intsave_regs,global,class=BIGRAM,space=1,delta=1,noexec
    60                           	psect	rparam,global,class=COMRAM,space=1,delta=1,noexec
    61                           	psect	temp,global,ovrld,common,class=COMRAM,space=1,delta=1
    62                           	psect	idloc,global,abs,ovrld,class=IDLOC,space=5,delta=1,noexec
    63                           	psect	config,global,abs,ovrld,class=CONFIG,space=4,delta=1,noexec
    64   000000                     
    65                           ; Version 2.20
    66                           ; Generated 12/02/2020 GMT
    67                           ; 
    68                           ; Copyright © 2020, Microchip Technology Inc. and its subsidiaries ("Microchip")
    69                           ; All rights reserved.
    70                           ; 
    71                           ; This software is developed by Microchip Technology Inc. and its subsidiaries ("Microch
      +                          ip").
    72                           ; 
    73                           ; Redistribution and use in source and binary forms, with or without modification, are
    74                           ; permitted provided that the following conditions are met:
    75                           ; 
    76                           ;     1. Redistributions of source code must retain the above copyright notice, this lis
      +                          t of
    77                           ;        conditions and the following disclaimer.
    78                           ; 
    79                           ;     2. Redistributions in binary form must reproduce the above copyright notice, this 
      +                          list
    80                           ;        of conditions and the following disclaimer in the documentation and/or other
    81                           ;        materials provided with the distribution.
    82                           ; 
    83                           ;     3. Microchip's name may not be used to endorse or promote products derived from th
      +                          is
    84                           ;        software without specific prior written permission.
    85                           ; 
    86                           ; THIS SOFTWARE IS PROVIDED BY MICROCHIP "AS IS" AND ANY EXPRESS OR IMPLIED WARRANTIES,
    87                           ; INCLUDING, BUT NOT LIMITED TO, THE IMPLIED WARRANTIES OF MERCHANTABILITY AND FITNESS F
      +                          OR
    88                           ; PURPOSE ARE DISCLAIMED.  IN NO EVENT SHALL MICROCHIP BE LIABLE FOR ANY DIRECT, INDIREC
      +                          T,
    89                           ; INCIDENTAL, SPECIAL, EXEMPLARY, OR CONSEQUENTIAL DAMAGES (INCLUDING BUT NOT LIMITED TO
    90                           ; PROCUREMENT OF SUBSTITUTE GOODS OR SERVICES; LOSS OF USE, DATA OR PROFITS; OR BUSINESS
    91                           ; INTERRUPTION) HOWSOEVER CAUSED AND ON ANY THEORY OF LIABILITY, WHETHER IN CONTRACT, ST
      +                          RICT
    92                           ; LIABILITY, OR TORT (INCLUDING NEGLIGENCE OR OTHERWISE) ARISING IN ANY WAY OUT OF THE U
      +                          SE OF
    93                           ; THIS SOFTWARE, EVEN IF ADVISED OF THE POSSIBILITY OF SUCH DAMAGE.
    94                           ; 
    95                           ; 
    96                           ; Code-generator required, PIC18F4580 Definitions
    97                           ; 
    98                           ; SFR Addresses
    99   000000                     
   100                           	psect	idataCOMRAM
   101   002280                     __pidataCOMRAM:
   102                           	callstack 0
   103                           
   104                           ;initializer for _index_2
   105   002280  0001               	dw	1
   106                           
   107                           ;initializer for read_switches@once
   108   002282  01                 	db	1
   109                           
   110                           ;initializer for _attempt
   111   002283  33                 	db	51
   112                           
   113                           	psect	idataBANK0
   114   0020C2                     __pidataBANK0:
   115                           	callstack 0
   116                           
   117                           ;initializer for _gear_data
   118   0020C2  F2                 	db	low STR_5
   119   0020C3  2F                 	db	high STR_5
   120   0020C4  EF                 	db	low STR_6
   121   0020C5  2F                 	db	high STR_6
   122   0020C6  DD                 	db	low STR_7
   123   0020C7  2F                 	db	high STR_7
   124   0020C8  E0                 	db	low STR_8
   125   0020C9  2F                 	db	high STR_8
   126   0020CA  E3                 	db	low STR_9
   127   0020CB  2F                 	db	high STR_9
   128   0020CC  E6                 	db	low STR_10
   129   0020CD  2F                 	db	high STR_10
   130   0020CE  F8                 	db	low STR_11
   131   0020CF  2F                 	db	high STR_11
   132   0020D0  DA                 	db	low STR_12
   133   0020D1  2F                 	db	high STR_12
   134                           
   135                           ;initializer for _menu
   136   0020D2  62                 	db	low STR_13
   137   0020D3  2E                 	db	high STR_13
   138   0020D4  51                 	db	low STR_14
   139   0020D5  2E                 	db	high STR_14
   140   0020D6  A6                 	db	low STR_15
   141   0020D7  2E                 	db	high STR_15
   142   0020D8  73                 	db	low STR_16
   143   0020D9  2E                 	db	high STR_16
   144   0020DA  94                 	db	low STR_17
   145   0020DB  2F                 	db	high STR_17
   146                           
   147                           ;initializer for _menu_event
   148   0020DC  FB                 	db	low STR_27
   149   0020DD  2F                 	db	high STR_27
   150   0020DE  EC                 	db	low STR_28
   151   0020DF  2F                 	db	high STR_28
   152   0020E0  E9                 	db	low STR_29
   153   0020E1  2F                 	db	high STR_29
   154   0020E2  F5                 	db	low STR_30
   155   0020E3  2F                 	db	high STR_30
   156                           
   157                           ;initializer for _star_flag
   158   0020E4  0001               	dw	1
   159                           
   160                           ;initializer for _event
   161   0020E6  20                 	db	32
   162   0020E7  20                 	db	32
   163   0020E8  20                 	db	32
   164   0020E9  20                 	db	32
   165   0020EA  20                 	db	32
   166   0020EB  20                 	db	32
   167   0020EC  20                 	db	32
   168   0020ED  20                 	db	32
   169   0020EE  20                 	db	32
   170   0020EF  20                 	db	32
   171   0020F0  4F                 	db	79
   172   0020F1  4E                 	db	78
   173   0020F2  20                 	db	32
   174   0020F3  20                 	db	32
   175   0020F4  20                 	db	32
   176   0020F5  20                 	db	32
   177   0020F6  20                 	db	32
   178                           
   179                           ;initializer for _original_password
   180   0020F7  31                 	db	49
   181   0020F8  31                 	db	49
   182   0020F9  30                 	db	48
   183   0020FA  30                 	db	48
   184   0020FB  00                 	db	0
   185   000000                     _TMR0	set	4054
   186   000000                     _SSPADD	set	4040
   187   000000                     _SSPCON1	set	4038
   188   000000                     _ADRESH	set	4036
   189   000000                     _ADRESL	set	4035
   190   000000                     _TRISC	set	3988
   191   000000                     _ACKSTAT	set	32302
   192   000000                     _CKE	set	32318
   193   000000                     _TMR0ON	set	32431
   194   000000                     _TRISD7	set	31919
   195   000000                     _RBPU	set	32655
   196   000000                     _ADCON0	set	4034
   197   000000                     _TRISD	set	3989
   198   000000                     _ACKEN	set	32300
   199   000000                     _ACKDT	set	32301
   200   000000                     _RCEN	set	32299
   201   000000                     _RSEN	set	32297
   202   000000                     _PEN	set	32298
   203   000000                     _SEN	set	32296
   204   000000                     _SMP	set	32319
   205   000000                     _TRISC4	set	31908
   206   000000                     _TRISC3	set	31907
   207   000000                     _PSA	set	32427
   208   000000                     _T0CS	set	32429
   209   000000                     _T08BIT	set	32430
   210   000000                     _TMR0IF	set	32658
   211   000000                     _TMR0IE	set	32661
   212   000000                     _PEIE	set	32662
   213   000000                     _GO	set	32273
   214   000000                     _ADFM	set	32263
   215   000000                     _ADCS0	set	32256
   216   000000                     _ADCS1	set	32257
   217   000000                     _ADCS2	set	32258
   218   000000                     _ACQT0	set	32259
   219   000000                     _ACQT1	set	32260
   220   000000                     _PCFG0	set	32264
   221   000000                     _PCFG1	set	32265
   222   000000                     _PCFG2	set	32266
   223   000000                     _PCFG3	set	32267
   224   000000                     _VCFG0	set	32268
   225   000000                     _RD7	set	31775
   226   000000                     _RC0	set	31760
   227   000000                     _RC2	set	31762
   228   000000                     _RB4	set	31756
   229   000000                     _RB3	set	31755
   230   000000                     _RB2	set	31754
   231   000000                     _RB1	set	31753
   232   000000                     _RB7	set	31759
   233   000000                     _RB6	set	31758
   234   000000                     _TRISB	set	3987
   235   000000                     _RB5	set	31757
   236   000000                     _GIE	set	32663
   237   000000                     _PORTD	set	3971
   238   000000                     _RC1	set	31761
   239   000000                     _SSPIF	set	31987
   240   000000                     _ACQT2	set	32261
   241   000000                     _VCFG1	set	32269
   242   000000                     _ADON	set	32272
   243   000000                     _SSPBUF	set	4041
   244   000000                     _BCLIF	set	32011
   245                           
   246                           	psect	mediumconst
   247   002E2C                     __pmediumconst:
   248                           	callstack 0
   249   002E2C  00                 	db	0
   250   002E2D                     STR_46:
   251   002E2D  20                 	db	32
   252   002E2E  20                 	db	32
   253   002E2F  20                 	db	32
   254   002E30  4E                 	db	78	;'N'
   255   002E31  6F                 	db	111	;'o'
   256   002E32  74                 	db	116	;'t'
   257   002E33  20                 	db	32
   258   002E34  4D                 	db	77	;'M'
   259   002E35  61                 	db	97	;'a'
   260   002E36  74                 	db	116	;'t'
   261   002E37  63                 	db	99	;'c'
   262   002E38  68                 	db	104	;'h'
   263   002E39  65                 	db	101	;'e'
   264   002E3A  64                 	db	100	;'d'
   265   002E3B  20                 	db	32
   266   002E3C  20                 	db	32
   267   002E3D  20                 	db	32
   268   002E3E  00                 	db	0
   269   002E3F                     STR_33:
   270   002E3F  20                 	db	32
   271   002E40  20                 	db	32
   272   002E41  20                 	db	32
   273   002E42  4C                 	db	76	;'L'
   274   002E43  6F                 	db	111	;'o'
   275   002E44  67                 	db	103	;'g'
   276   002E45  20                 	db	32
   277   002E46  43                 	db	67	;'C'
   278   002E47  6C                 	db	108	;'l'
   279   002E48  65                 	db	101	;'e'
   280   002E49  61                 	db	97	;'a'
   281   002E4A  72                 	db	114	;'r'
   282   002E4B  65                 	db	101	;'e'
   283   002E4C  64                 	db	100	;'d'
   284   002E4D  20                 	db	32
   285   002E4E  20                 	db	32
   286   002E4F  20                 	db	32
   287   002E50  00                 	db	0
   288   002E51                     STR_14:
   289   002E51  53                 	db	83	;'S'
   290   002E52  65                 	db	101	;'e'
   291   002E53  74                 	db	116	;'t'
   292   002E54  20                 	db	32
   293   002E55  54                 	db	84	;'T'
   294   002E56  69                 	db	105	;'i'
   295   002E57  6D                 	db	109	;'m'
   296   002E58  65                 	db	101	;'e'
   297   002E59  20                 	db	32
   298   002E5A  20                 	db	32
   299   002E5B  20                 	db	32
   300   002E5C  20                 	db	32
   301   002E5D  20                 	db	32
   302   002E5E  20                 	db	32
   303   002E5F  20                 	db	32
   304   002E60  20                 	db	32
   305   002E61  00                 	db	0
   306   002E62                     STR_13:
   307   002E62  56                 	db	86	;'V'
   308   002E63  69                 	db	105	;'i'
   309   002E64  65                 	db	101	;'e'
   310   002E65  77                 	db	119	;'w'
   311   002E66  20                 	db	32
   312   002E67  4C                 	db	76	;'L'
   313   002E68  6F                 	db	111	;'o'
   314   002E69  67                 	db	103	;'g'
   315   002E6A  20                 	db	32
   316   002E6B  20                 	db	32
   317   002E6C  20                 	db	32
   318   002E6D  20                 	db	32
   319   002E6E  20                 	db	32
   320   002E6F  20                 	db	32
   321   002E70  20                 	db	32
   322   002E71  20                 	db	32
   323   002E72  00                 	db	0
   324   002E73                     STR_16:
   325   002E73  43                 	db	67	;'C'
   326   002E74  6C                 	db	108	;'l'
   327   002E75  65                 	db	101	;'e'
   328   002E76  61                 	db	97	;'a'
   329   002E77  72                 	db	114	;'r'
   330   002E78  20                 	db	32
   331   002E79  6C                 	db	108	;'l'
   332   002E7A  6F                 	db	111	;'o'
   333   002E7B  67                 	db	103	;'g'
   334   002E7C  20                 	db	32
   335   002E7D  20                 	db	32
   336   002E7E  20                 	db	32
   337   002E7F  20                 	db	32
   338   002E80  20                 	db	32
   339   002E81  20                 	db	32
   340   002E82  20                 	db	32
   341   002E83  00                 	db	0
   342   002E84                     STR_45:
   343   002E84  20                 	db	32
   344   002E85  20                 	db	32
   345   002E86  20                 	db	32
   346   002E87  20                 	db	32
   347   002E88  50                 	db	80	;'P'
   348   002E89  61                 	db	97	;'a'
   349   002E8A  73                 	db	115	;'s'
   350   002E8B  73                 	db	115	;'s'
   351   002E8C  77                 	db	119	;'w'
   352   002E8D  6F                 	db	111	;'o'
   353   002E8E  72                 	db	114	;'r'
   354   002E8F  64                 	db	100	;'d'
   355   002E90  20                 	db	32
   356   002E91  20                 	db	32
   357   002E92  20                 	db	32
   358   002E93  20                 	db	32
   359   002E94  00                 	db	0
   360   002E95                     STR_24:
   361   002E95  20                 	db	32
   362   002E96  20                 	db	32
   363   002E97  20                 	db	32
   364   002E98  4D                 	db	77	;'M'
   365   002E99  65                 	db	101	;'e'
   366   002E9A  6E                 	db	110	;'n'
   367   002E9B  75                 	db	117	;'u'
   368   002E9C  20                 	db	32
   369   002E9D  50                 	db	80	;'P'
   370   002E9E  61                 	db	97	;'a'
   371   002E9F  67                 	db	103	;'g'
   372   002EA0  65                 	db	101	;'e'
   373   002EA1  20                 	db	32
   374   002EA2  20                 	db	32
   375   002EA3  20                 	db	32
   376   002EA4  20                 	db	32
   377   002EA5  00                 	db	0
   378   002EA6                     STR_15:
   379   002EA6  44                 	db	68	;'D'
   380   002EA7  6F                 	db	111	;'o'
   381   002EA8  77                 	db	119	;'w'
   382   002EA9  6E                 	db	110	;'n'
   383   002EAA  6C                 	db	108	;'l'
   384   002EAB  6F                 	db	111	;'o'
   385   002EAC  61                 	db	97	;'a'
   386   002EAD  64                 	db	100	;'d'
   387   002EAE  20                 	db	32
   388   002EAF  4C                 	db	76	;'L'
   389   002EB0  6F                 	db	111	;'o'
   390   002EB1  67                 	db	103	;'g'
   391   002EB2  20                 	db	32
   392   002EB3  20                 	db	32
   393   002EB4  20                 	db	32
   394   002EB5  20                 	db	32
   395   002EB6  00                 	db	0
   396   002EB7                     STR_40:
   397   002EB7  20                 	db	32
   398   002EB8  20                 	db	32
   399   002EB9  4E                 	db	78	;'N'
   400   002EBA  65                 	db	101	;'e'
   401   002EBB  77                 	db	119	;'w'
   402   002EBC  20                 	db	32
   403   002EBD  50                 	db	80	;'P'
   404   002EBE  61                 	db	97	;'a'
   405   002EBF  73                 	db	115	;'s'
   406   002EC0  73                 	db	115	;'s'
   407   002EC1  77                 	db	119	;'w'
   408   002EC2  6F                 	db	111	;'o'
   409   002EC3  72                 	db	114	;'r'
   410   002EC4  64                 	db	100	;'d'
   411   002EC5  20                 	db	32
   412   002EC6  20                 	db	32
   413   002EC7  00                 	db	0
   414   002EC8                     STR_25:
   415   002EC8  20                 	db	32
   416   002EC9  20                 	db	32
   417   002ECA  41                 	db	65	;'A'
   418   002ECB  74                 	db	116	;'t'
   419   002ECC  74                 	db	116	;'t'
   420   002ECD  65                 	db	101	;'e'
   421   002ECE  6D                 	db	109	;'m'
   422   002ECF  70                 	db	112	;'p'
   423   002ED0  74                 	db	116	;'t'
   424   002ED1  20                 	db	32
   425   002ED2  4F                 	db	79	;'O'
   426   002ED3  76                 	db	118	;'v'
   427   002ED4  65                 	db	101	;'e'
   428   002ED5  72                 	db	114	;'r'
   429   002ED6  20                 	db	32
   430   002ED7  20                 	db	32
   431   002ED8  00                 	db	0
   432   002ED9                     STR_34:
   433   002ED9  20                 	db	32
   434   002EDA  20                 	db	32
   435   002EDB  53                 	db	83	;'S'
   436   002EDC  75                 	db	117	;'u'
   437   002EDD  63                 	db	99	;'c'
   438   002EDE  63                 	db	99	;'c'
   439   002EDF  65                 	db	101	;'e'
   440   002EE0  73                 	db	115	;'s'
   441   002EE1  73                 	db	115	;'s'
   442   002EE2  66                 	db	102	;'f'
   443   002EE3  75                 	db	117	;'u'
   444   002EE4  6C                 	db	108	;'l'
   445   002EE5  6C                 	db	108	;'l'
   446   002EE6  79                 	db	121	;'y'
   447   002EE7  20                 	db	32
   448   002EE8  20                 	db	32
   449   002EE9  00                 	db	0
   450   002EEA                     STR_36:
   451   002EEA  20                 	db	32
   452   002EEB  57                 	db	87	;'W'
   453   002EEC  72                 	db	114	;'r'
   454   002EED  6F                 	db	111	;'o'
   455   002EEE  6E                 	db	110	;'n'
   456   002EEF  67                 	db	103	;'g'
   457   002EF0  20                 	db	32
   458   002EF1  50                 	db	80	;'P'
   459   002EF2  61                 	db	97	;'a'
   460   002EF3  73                 	db	115	;'s'
   461   002EF4  73                 	db	115	;'s'
   462   002EF5  77                 	db	119	;'w'
   463   002EF6  6F                 	db	111	;'o'
   464   002EF7  72                 	db	114	;'r'
   465   002EF8  64                 	db	100	;'d'
   466   002EF9  20                 	db	32
   467   002EFA  00                 	db	0
   468   002EFB                     STR_35:
   469   002EFB  20                 	db	32
   470   002EFC  45                 	db	69	;'E'
   471   002EFD  6E                 	db	110	;'n'
   472   002EFE  74                 	db	116	;'t'
   473   002EFF  65                 	db	101	;'e'
   474   002F00  72                 	db	114	;'r'
   475   002F01  20                 	db	32
   476   002F02  50                 	db	80	;'P'
   477   002F03  61                 	db	97	;'a'
   478   002F04  73                 	db	115	;'s'
   479   002F05  73                 	db	115	;'s'
   480   002F06  77                 	db	119	;'w'
   481   002F07  6F                 	db	111	;'o'
   482   002F08  72                 	db	114	;'r'
   483   002F09  64                 	db	100	;'d'
   484   002F0A  20                 	db	32
   485   002F0B  00                 	db	0
   486   002F0C                     STR_19:
   487   002F0C  20                 	db	32
   488   002F0D  45                 	db	69	;'E'
   489   002F0E  6E                 	db	110	;'n'
   490   002F0F  74                 	db	116	;'t'
   491   002F10  65                 	db	101	;'e'
   492   002F11  72                 	db	114	;'r'
   493   002F12  20                 	db	32
   494   002F13  70                 	db	112	;'p'
   495   002F14  61                 	db	97	;'a'
   496   002F15  73                 	db	115	;'s'
   497   002F16  73                 	db	115	;'s'
   498   002F17  77                 	db	119	;'w'
   499   002F18  6F                 	db	111	;'o'
   500   002F19  72                 	db	114	;'r'
   501   002F1A  64                 	db	100	;'d'
   502   002F1B  20                 	db	32
   503   002F1C  00                 	db	0
   504   002F1D                     STR_18:
   505   002F1D  20                 	db	32
   506   002F1E  20                 	db	32
   507   002F1F  54                 	db	84	;'T'
   508   002F20  49                 	db	73	;'I'
   509   002F21  4D                 	db	77	;'M'
   510   002F22  45                 	db	69	;'E'
   511   002F23  20                 	db	32
   512   002F24  20                 	db	32
   513   002F25  20                 	db	32
   514   002F26  20                 	db	32
   515   002F27  45                 	db	69	;'E'
   516   002F28  56                 	db	86	;'V'
   517   002F29  20                 	db	32
   518   002F2A  20                 	db	32
   519   002F2B  53                 	db	83	;'S'
   520   002F2C  50                 	db	80	;'P'
   521   002F2D  00                 	db	0
   522   002F2E                     STR_26:
   523   002F2E  20                 	db	32
   524   002F2F  57                 	db	87	;'W'
   525   002F30  61                 	db	97	;'a'
   526   002F31  69                 	db	105	;'i'
   527   002F32  74                 	db	116	;'t'
   528   002F33  20                 	db	32
   529   002F34  46                 	db	70	;'F'
   530   002F35  6F                 	db	111	;'o'
   531   002F36  72                 	db	114	;'r'
   532   002F37  20                 	db	32
   533   002F38  20                 	db	32
   534   002F39  20                 	db	32
   535   002F3A  20                 	db	32
   536   002F3B  53                 	db	83	;'S'
   537   002F3C  65                 	db	101	;'e'
   538   002F3D  63                 	db	99	;'c'
   539   002F3E  00                 	db	0
   540   002F3F                     STR_43:
   541   002F3F  50                 	db	80	;'P'
   542   002F40  61                 	db	97	;'a'
   543   002F41  73                 	db	115	;'s'
   544   002F42  73                 	db	115	;'s'
   545   002F43  77                 	db	119	;'w'
   546   002F44  6F                 	db	111	;'o'
   547   002F45  72                 	db	114	;'r'
   548   002F46  64                 	db	100	;'d'
   549   002F47  20                 	db	32
   550   002F48  63                 	db	99	;'c'
   551   002F49  68                 	db	104	;'h'
   552   002F4A  61                 	db	97	;'a'
   553   002F4B  6E                 	db	110	;'n'
   554   002F4C  67                 	db	103	;'g'
   555   002F4D  65                 	db	101	;'e'
   556   002F4E  64                 	db	100	;'d'
   557   002F4F  00                 	db	0
   558   002F50                     STR_42:
   559   002F50  43                 	db	67	;'C'
   560   002F51  6F                 	db	111	;'o'
   561   002F52  6E                 	db	110	;'n'
   562   002F53  66                 	db	102	;'f'
   563   002F54  69                 	db	105	;'i'
   564   002F55  72                 	db	114	;'r'
   565   002F56  6D                 	db	109	;'m'
   566   002F57  20                 	db	32
   567   002F58  50                 	db	80	;'P'
   568   002F59  61                 	db	97	;'a'
   569   002F5A  73                 	db	115	;'s'
   570   002F5B  73                 	db	115	;'s'
   571   002F5C  77                 	db	119	;'w'
   572   002F5D  6F                 	db	111	;'o'
   573   002F5E  72                 	db	114	;'r'
   574   002F5F  64                 	db	100	;'d'
   575   002F60  00                 	db	0
   576   002F61                     STR_23:
   577   002F61  43                 	db	67	;'C'
   578   002F62  6F                 	db	111	;'o'
   579   002F63  72                 	db	114	;'r'
   580   002F64  72                 	db	114	;'r'
   581   002F65  65                 	db	101	;'e'
   582   002F66  63                 	db	99	;'c'
   583   002F67  74                 	db	116	;'t'
   584   002F68  20                 	db	32
   585   002F69  50                 	db	80	;'P'
   586   002F6A  61                 	db	97	;'a'
   587   002F6B  73                 	db	115	;'s'
   588   002F6C  73                 	db	115	;'s'
   589   002F6D  77                 	db	119	;'w'
   590   002F6E  6F                 	db	111	;'o'
   591   002F6F  72                 	db	114	;'r'
   592   002F70  64                 	db	100	;'d'
   593   002F71  00                 	db	0
   594   002F72                     STR_1:
   595   002F72  20                 	db	32
   596   002F73  20                 	db	32
   597   002F74  20                 	db	32
   598   002F75  20                 	db	32
   599   002F76  20                 	db	32
   600   002F77  20                 	db	32
   601   002F78  20                 	db	32
   602   002F79  20                 	db	32
   603   002F7A  20                 	db	32
   604   002F7B  20                 	db	32
   605   002F7C  20                 	db	32
   606   002F7D  20                 	db	32
   607   002F7E  20                 	db	32
   608   002F7F  20                 	db	32
   609   002F80  20                 	db	32
   610   002F81  20                 	db	32
   611   002F82  00                 	db	0
   612   002F83                     STR_4:
   613   002F83  20                 	db	32
   614   002F84  20                 	db	32
   615   002F85  20                 	db	32
   616   002F86  68                 	db	104	;'h'
   617   002F87  65                 	db	101	;'e'
   618   002F88  6C                 	db	108	;'l'
   619   002F89  6C                 	db	108	;'l'
   620   002F8A  6F                 	db	111	;'o'
   621   002F8B  2D                 	db	45
   622   002F8C  6D                 	db	109	;'m'
   623   002F8D  65                 	db	101	;'e'
   624   002F8E  6E                 	db	110	;'n'
   625   002F8F  75                 	db	117	;'u'
   626   002F90  20                 	db	32
   627   002F91  20                 	db	32
   628   002F92  20                 	db	32
   629   002F93  00                 	db	0
   630   002F94                     STR_17:
   631   002F94  52                 	db	82	;'R'
   632   002F95  65                 	db	101	;'e'
   633   002F96  73                 	db	115	;'s'
   634   002F97  65                 	db	101	;'e'
   635   002F98  74                 	db	116	;'t'
   636   002F99  20                 	db	32
   637   002F9A  50                 	db	80	;'P'
   638   002F9B  61                 	db	97	;'a'
   639   002F9C  73                 	db	115	;'s'
   640   002F9D  73                 	db	115	;'s'
   641   002F9E  77                 	db	119	;'w'
   642   002F9F  6F                 	db	111	;'o'
   643   002FA0  72                 	db	114	;'r'
   644   002FA1  64                 	db	100	;'d'
   645   002FA2  20                 	db	32
   646   002FA3  00                 	db	0
   647   002FA4                     STR_20:
   648   002FA4  20                 	db	32
   649   002FA5  57                 	db	87	;'W'
   650   002FA6  72                 	db	114	;'r'
   651   002FA7  6F                 	db	111	;'o'
   652   002FA8  6E                 	db	110	;'n'
   653   002FA9  67                 	db	103	;'g'
   654   002FAA  20                 	db	32
   655   002FAB  50                 	db	80	;'P'
   656   002FAC  61                 	db	97	;'a'
   657   002FAD  73                 	db	115	;'s'
   658   002FAE  73                 	db	115	;'s'
   659   002FAF  77                 	db	119	;'w'
   660   002FB0  6F                 	db	111	;'o'
   661   002FB1  72                 	db	114	;'r'
   662   002FB2  64                 	db	100	;'d'
   663   002FB3  00                 	db	0
   664   002FB4                     STR_21:
   665   002FB4  2D                 	db	45
   666   002FB5  41                 	db	65	;'A'
   667   002FB6  74                 	db	116	;'t'
   668   002FB7  74                 	db	116	;'t'
   669   002FB8  65                 	db	101	;'e'
   670   002FB9  6D                 	db	109	;'m'
   671   002FBA  70                 	db	112	;'p'
   672   002FBB  74                 	db	116	;'t'
   673   002FBC  20                 	db	32
   674   002FBD  52                 	db	82	;'R'
   675   002FBE  65                 	db	101	;'e'
   676   002FBF  6D                 	db	109	;'m'
   677   002FC0  61                 	db	97	;'a'
   678   002FC1  69                 	db	105	;'i'
   679   002FC2  6E                 	db	110	;'n'
   680   002FC3  00                 	db	0
   681   002FC4                     STR_32:
   682   002FC4  5D                 	db	93	;']'
   683   002FC5  20                 	db	32
   684   002FC6  20                 	db	32
   685   002FC7  20                 	db	32
   686   002FC8  20                 	db	32
   687   002FC9  20                 	db	32
   688   002FCA  20                 	db	32
   689   002FCB  20                 	db	32
   690   002FCC  20                 	db	32
   691   002FCD  20                 	db	32
   692   002FCE  20                 	db	32
   693   002FCF  00                 	db	0
   694   002FD0                     STR_31:
   695   002FD0  4C                 	db	76	;'L'
   696   002FD1  6F                 	db	111	;'o'
   697   002FD2  67                 	db	103	;'g'
   698   002FD3  73                 	db	115	;'s'
   699   002FD4  3A                 	db	58	;':'
   700   002FD5  2D                 	db	45
   701   002FD6  2D                 	db	45
   702   002FD7  3E                 	db	62	;'>'
   703   002FD8  5B                 	db	91	;'['
   704   002FD9  00                 	db	0
   705   002FDA                     STR_12:
   706   002FDA  43                 	db	67	;'C'
   707   002FDB  20                 	db	32
   708   002FDC  00                 	db	0
   709   002FDD                     STR_7:
   710   002FDD  47                 	db	71	;'G'
   711   002FDE  31                 	db	49	;'1'
   712   002FDF  00                 	db	0
   713   002FE0                     STR_8:
   714   002FE0  47                 	db	71	;'G'
   715   002FE1  32                 	db	50	;'2'
   716   002FE2  00                 	db	0
   717   002FE3                     STR_9:
   718   002FE3  47                 	db	71	;'G'
   719   002FE4  33                 	db	51	;'3'
   720   002FE5  00                 	db	0
   721   002FE6                     STR_10:
   722   002FE6  47                 	db	71	;'G'
   723   002FE7  34                 	db	52	;'4'
   724   002FE8  00                 	db	0
   725   002FE9                     STR_29:
   726   002FE9  43                 	db	67	;'C'
   727   002FEA  4C                 	db	76	;'L'
   728   002FEB  00                 	db	0
   729   002FEC                     STR_28:
   730   002FEC  44                 	db	68	;'D'
   731   002FED  4C                 	db	76	;'L'
   732   002FEE  00                 	db	0
   733   002FEF                     STR_6:
   734   002FEF  47                 	db	71	;'G'
   735   002FF0  4E                 	db	78	;'N'
   736   002FF1  00                 	db	0
   737   002FF2                     STR_5:
   738   002FF2  4F                 	db	79	;'O'
   739   002FF3  4E                 	db	78	;'N'
   740   002FF4  00                 	db	0
   741   002FF5                     STR_30:
   742   002FF5  43                 	db	67	;'C'
   743   002FF6  50                 	db	80	;'P'
   744   002FF7  00                 	db	0
   745   002FF8                     STR_11:
   746   002FF8  47                 	db	71	;'G'
   747   002FF9  52                 	db	82	;'R'
   748   002FFA  00                 	db	0
   749   002FFB                     STR_27:
   750   002FFB  53                 	db	83	;'S'
   751   002FFC  54                 	db	84	;'T'
   752   002FFD  00                 	db	0
   753   002FFE  00                 	db	0	; dummy byte at the end
   754   000000                     
   755                           ; #config settings
   756                           
   757                           	psect	cinit
   758   001DEA                     __pcinit:
   759                           	callstack 0
   760   001DEA                     start_initialization:
   761                           	callstack 0
   762   001DEA                     __initialization:
   763                           	callstack 0
   764                           
   765                           ; Initialize objects allocated to BANK0 (58 bytes)
   766                           ; load TBLPTR registers with __pidataBANK0
   767   001DEA  0EC2               	movlw	low __pidataBANK0
   768   001DEC  6EF6               	movwf	tblptrl,c
   769   001DEE  0E20               	movlw	high __pidataBANK0
   770   001DF0  6EF7               	movwf	tblptrh,c
   771   001DF2  0E00               	movlw	low (__pidataBANK0 shr (0+16))
   772   001DF4  6EF8               	movwf	tblptru,c
   773   001DF6  EE00  F060         	lfsr	0,__pdataBANK0
   774   001DFA  EE10 F03A          	lfsr	1,58
   775   001DFE                     copy_data0:
   776   001DFE  0009               	tblrd		*+
   777   001E00  CFF5 FFEE          	movff	tablat,postinc0
   778   001E04  50E5               	movf	postdec1,w,c
   779   001E06  50E1               	movf	fsr1l,w,c
   780   001E08  E1FA               	bnz	copy_data0
   781                           
   782                           ; Initialize objects allocated to COMRAM (4 bytes)
   783                           ; load TBLPTR registers with __pidataCOMRAM
   784   001E0A  0E80               	movlw	low __pidataCOMRAM
   785   001E0C  6EF6               	movwf	tblptrl,c
   786   001E0E  0E22               	movlw	high __pidataCOMRAM
   787   001E10  6EF7               	movwf	tblptrh,c
   788   001E12  0E00               	movlw	low (__pidataCOMRAM shr (0+16))
   789   001E14  6EF8               	movwf	tblptru,c
   790   001E16  EE00  F059         	lfsr	0,__pdataCOMRAM
   791   001E1A  EE10 F004          	lfsr	1,4
   792   001E1E                     copy_data1:
   793   001E1E  0009               	tblrd		*+
   794   001E20  CFF5 FFEE          	movff	tablat,postinc0
   795   001E24  50E5               	movf	postdec1,w,c
   796   001E26  50E1               	movf	fsr1l,w,c
   797   001E28  E1FA               	bnz	copy_data1
   798                           
   799                           ; Clear objects allocated to BANK0 (51 bytes)
   800   001E2A  EE00  F09A         	lfsr	0,__pbssBANK0
   801   001E2E  0E33               	movlw	51
   802   001E30                     clear_0:
   803   001E30  6AEE               	clrf	postinc0,c
   804   001E32  06E8               	decf	wreg,f,c
   805   001E34  E1FD               	bnz	clear_0
   806                           
   807                           ; Clear objects allocated to COMRAM (22 bytes)
   808   001E36  EE00  F043         	lfsr	0,__pbssCOMRAM
   809   001E3A  0E16               	movlw	22
   810   001E3C                     clear_1:
   811   001E3C  6AEE               	clrf	postinc0,c
   812   001E3E  06E8               	decf	wreg,f,c
   813   001E40  E1FD               	bnz	clear_1
   814   001E42                     end_of_initialization:
   815                           	callstack 0
   816   001E42                     __end_of__initialization:
   817                           	callstack 0
   818   001E42  905D               	bcf	int$flags,0,c	;clear compiler interrupt flag (level 1)
   819   001E44  925D               	bcf	int$flags,1,c	;clear compiler interrupt flag (level 2)
   820   001E46  0E00               	movlw	low (__Lmediumconst shr (0+16))
   821   001E48  6EF8               	movwf	tblptru,c
   822   001E4A  0100               	movlb	0
   823   001E4C  EF28  F004         	goto	_main	;jump to C main() function
   824                           
   825                           	psect	bssCOMRAM
   826   000043                     __pbssCOMRAM:
   827                           	callstack 0
   828   000043                     _count_event:
   829                           	callstack 0
   830   000043                     	ds	2
   831   000045                     _wait1:
   832                           	callstack 0
   833   000045                     	ds	2
   834   000047                     _menu_index:
   835                           	callstack 0
   836   000047                     	ds	2
   837   000049                     _index_1:
   838                           	callstack 0
   839   000049                     	ds	2
   840   00004B                     _previous_key:
   841                           	callstack 0
   842   00004B                     	ds	2
   843   00004D                     _wait:
   844                           	callstack 0
   845   00004D                     	ds	2
   846   00004F                     _index:
   847                           	callstack 0
   848   00004F                     	ds	2
   849   000051                     _gear_index:
   850                           	callstack 0
   851   000051                     	ds	2
   852   000053                     _sec:
   853                           	callstack 0
   854   000053                     	ds	2
   855   000055                     _pass_flag:
   856                           	callstack 0
   857   000055                     	ds	1
   858   000056                     _gear_flag:
   859                           	callstack 0
   860   000056                     	ds	1
   861   000057                     _total_index:
   862                           	callstack 0
   863   000057                     	ds	1
   864   000058                     _enter_flag:
   865                           	callstack 0
   866   000058                     	ds	1
   867                           
   868                           	psect	dataCOMRAM
   869   000059                     __pdataCOMRAM:
   870                           	callstack 0
   871   000059                     _index_2:
   872                           	callstack 0
   873   000059                     	ds	2
   874   00005B                     read_switches@once:
   875                           	callstack 0
   876   00005B                     	ds	1
   877   00005C                     _attempt:
   878                           	callstack 0
   879   00005C                     	ds	1
   880                           
   881                           	psect	bssBANK0
   882   00009A                     __pbssBANK0:
   883                           	callstack 0
   884   00009A                     _time:
   885                           	callstack 0
   886   00009A                     	ds	8
   887   0000A2                     _clock_reg:
   888                           	callstack 0
   889   0000A2                     	ds	3
   890   0000A5                     _count:
   891                           	callstack 0
   892   0000A5                     	ds	2
   893   0000A7                     _address:
   894                           	callstack 0
   895   0000A7                     	ds	2
   896   0000A9                     _view_flag:
   897                           	callstack 0
   898   0000A9                     	ds	2
   899   0000AB                     _key:
   900                           	callstack 0
   901   0000AB                     	ds	2
   902   0000AD                     _index_eeprom:
   903                           	callstack 0
   904   0000AD                     	ds	2
   905   0000AF                     _speed:
   906                           	callstack 0
   907   0000AF                     	ds	2
   908   0000B1                     _pass_key:
   909                           	callstack 0
   910   0000B1                     	ds	1
   911   0000B2                     _view_event:
   912                           	callstack 0
   913   0000B2                     	ds	17
   914   0000C3                     _confirm_password:
   915                           	callstack 0
   916   0000C3                     	ds	5
   917   0000C8                     _enter_password:
   918                           	callstack 0
   919   0000C8                     	ds	5
   920                           
   921                           	psect	dataBANK0
   922   000060                     __pdataBANK0:
   923                           	callstack 0
   924   000060                     _gear_data:
   925                           	callstack 0
   926   000060                     	ds	16
   927   000070                     _menu:
   928                           	callstack 0
   929   000070                     	ds	10
   930   00007A                     _menu_event:
   931                           	callstack 0
   932   00007A                     	ds	8
   933   000082                     _star_flag:
   934                           	callstack 0
   935   000082                     	ds	2
   936   000084                     _event:
   937                           	callstack 0
   938   000084                     	ds	17
   939   000095                     _original_password:
   940                           	callstack 0
   941   000095                     	ds	5
   942                           
   943                           	psect	cstackCOMRAM
   944   000001                     __pcstackCOMRAM:
   945                           	callstack 0
   946   000001                     ?_read_adc:
   947                           	callstack 0
   948   000001                     ?_validate_password:
   949                           	callstack 0
   950   000001                     ?___lwdiv:
   951                           	callstack 0
   952   000001                     ?___lwmod:
   953                           	callstack 0
   954   000001                     read_switches@detection:
   955                           	callstack 0
   956   000001                     clcd_write@control_bit:
   957                           	callstack 0
   958   000001                     i2c_write@data:
   959                           	callstack 0
   960   000001                     validate_password@original_password:
   961                           	callstack 0
   962   000001                     ___lwdiv@dividend:
   963                           	callstack 0
   964   000001                     ___lwmod@dividend:
   965                           	callstack 0
   966                           
   967                           ; 2 bytes @ 0x0
   968   000001                     	ds	1
   969   000002                     read_switches@key:
   970                           	callstack 0
   971   000002                     clcd_write@byte:
   972                           	callstack 0
   973   000002                     write_external_eeprom@data:
   974                           	callstack 0
   975   000002                     read_external_eeprom@address:
   976                           	callstack 0
   977   000002                     write_ds1307@data:
   978                           	callstack 0
   979   000002                     read_ds1307@address:
   980                           	callstack 0
   981                           
   982                           ; 1 bytes @ 0x1
   983   000002                     	ds	1
   984   000003                     ??_init_clcd:
   985   000003                     ??_read_adc:
   986   000003                     read_external_eeprom@data:
   987                           	callstack 0
   988   000003                     write_ds1307@address:
   989                           	callstack 0
   990   000003                     read_ds1307@data:
   991                           	callstack 0
   992   000003                     validate_password@enter_password:
   993                           	callstack 0
   994   000003                     clcd_print@data:
   995                           	callstack 0
   996   000003                     write_external_eeprom@i:
   997                           	callstack 0
   998   000003                     ___lwdiv@divisor:
   999                           	callstack 0
  1000   000003                     ___lwmod@divisor:
  1001                           	callstack 0
  1002                           
  1003                           ; 2 bytes @ 0x2
  1004   000003                     	ds	1
  1005   000004                     init_ds1307@dummy:
  1006                           	callstack 0
  1007                           
  1008                           ; 1 bytes @ 0x3
  1009   000004                     	ds	1
  1010   000005                     ??_validate_password:
  1011   000005                     clcd_print@addr:
  1012                           	callstack 0
  1013   000005                     write_external_eeprom@address:
  1014                           	callstack 0
  1015   000005                     ___lwmod@counter:
  1016                           	callstack 0
  1017   000005                     ___lwdiv@quotient:
  1018                           	callstack 0
  1019                           
  1020                           ; 2 bytes @ 0x4
  1021   000005                     	ds	1
  1022   000006                     store_event@event:
  1023                           	callstack 0
  1024                           
  1025                           ; 2 bytes @ 0x5
  1026   000006                     	ds	1
  1027   000007                     ___lwdiv@counter:
  1028                           	callstack 0
  1029                           
  1030                           ; 1 bytes @ 0x6
  1031   000007                     	ds	1
  1032   000008                     ??_store_event:
  1033   000008                     clcd_putch@addr:
  1034                           	callstack 0
  1035   000008                     read_adc@channel:
  1036                           	callstack 0
  1037   000008                     display_speed@speed:
  1038                           	callstack 0
  1039   000008                     validate_password@ind_compare:
  1040                           	callstack 0
  1041                           
  1042                           ; 2 bytes @ 0x7
  1043   000008                     	ds	1
  1044   000009                     ?___xxtofl:
  1045                           	callstack 0
  1046   000009                     clcd_putch@data:
  1047                           	callstack 0
  1048   000009                     ___xxtofl@val:
  1049                           	callstack 0
  1050                           
  1051                           ; 4 bytes @ 0x8
  1052   000009                     	ds	1
  1053   00000A                     ??_read_password:
  1054   00000A                     ??_view_log:
  1055   00000A                     ??_change_password:
  1056   00000A                     store_event@address:
  1057                           	callstack 0
  1058                           
  1059                           ; 2 bytes @ 0x9
  1060   00000A                     	ds	2
  1061   00000C                     read_password@key:
  1062                           	callstack 0
  1063   00000C                     store_event@ind:
  1064                           	callstack 0
  1065   00000C                     view_log@i:
  1066                           	callstack 0
  1067   00000C                     change_password@i:
  1068                           	callstack 0
  1069                           
  1070                           ; 2 bytes @ 0xB
  1071   00000C                     	ds	1
  1072   00000D                     ??___xxtofl:
  1073                           
  1074                           ; 1 bytes @ 0xC
  1075   00000D                     	ds	1
  1076   00000E                     ??_car_menu:
  1077   00000E                     ??_clear_log:
  1078   00000E                     ??_gear_monitor:
  1079   00000E                     view_log@key:
  1080                           	callstack 0
  1081   00000E                     change_password@key:
  1082                           	callstack 0
  1083                           
  1084                           ; 1 bytes @ 0xD
  1085   00000E                     	ds	2
  1086   000010                     gear_monitor@key:
  1087                           	callstack 0
  1088   000010                     car_menu@key:
  1089                           	callstack 0
  1090                           
  1091                           ; 1 bytes @ 0xF
  1092   000010                     	ds	1
  1093   000011                     display_dashboard@key:
  1094                           	callstack 0
  1095   000011                     ___xxtofl@sign:
  1096                           	callstack 0
  1097                           
  1098                           ; 1 bytes @ 0x10
  1099   000011                     	ds	1
  1100   000012                     ___xxtofl@exp:
  1101                           	callstack 0
  1102                           
  1103                           ; 1 bytes @ 0x11
  1104   000012                     	ds	1
  1105   000013                     ___xxtofl@arg:
  1106                           	callstack 0
  1107                           
  1108                           ; 4 bytes @ 0x12
  1109   000013                     	ds	4
  1110   000017                     ?___fldiv:
  1111                           	callstack 0
  1112   000017                     ___fldiv@b:
  1113                           	callstack 0
  1114                           
  1115                           ; 4 bytes @ 0x16
  1116   000017                     	ds	4
  1117   00001B                     ___fldiv@a:
  1118                           	callstack 0
  1119                           
  1120                           ; 4 bytes @ 0x1A
  1121   00001B                     	ds	4
  1122   00001F                     ??___fldiv:
  1123                           
  1124                           ; 1 bytes @ 0x1E
  1125   00001F                     	ds	4
  1126   000023                     ___fldiv@rem:
  1127                           	callstack 0
  1128                           
  1129                           ; 4 bytes @ 0x22
  1130   000023                     	ds	4
  1131   000027                     ___fldiv@sign:
  1132                           	callstack 0
  1133                           
  1134                           ; 1 bytes @ 0x26
  1135   000027                     	ds	1
  1136   000028                     ___fldiv@new_exp:
  1137                           	callstack 0
  1138                           
  1139                           ; 2 bytes @ 0x27
  1140   000028                     	ds	2
  1141   00002A                     ___fldiv@grs:
  1142                           	callstack 0
  1143                           
  1144                           ; 4 bytes @ 0x29
  1145   00002A                     	ds	4
  1146   00002E                     ___fldiv@bexp:
  1147                           	callstack 0
  1148                           
  1149                           ; 1 bytes @ 0x2D
  1150   00002E                     	ds	1
  1151   00002F                     ___fldiv@aexp:
  1152                           	callstack 0
  1153                           
  1154                           ; 1 bytes @ 0x2E
  1155   00002F                     	ds	1
  1156   000030                     ?___fltol:
  1157                           	callstack 0
  1158   000030                     ___fltol@f1:
  1159                           	callstack 0
  1160                           
  1161                           ; 4 bytes @ 0x2F
  1162   000030                     	ds	4
  1163   000034                     ??___fltol:
  1164                           
  1165                           ; 1 bytes @ 0x33
  1166   000034                     	ds	4
  1167   000038                     ___fltol@sign1:
  1168                           	callstack 0
  1169                           
  1170                           ; 1 bytes @ 0x37
  1171   000038                     	ds	1
  1172   000039                     ___fltol@exp1:
  1173                           	callstack 0
  1174                           
  1175                           ; 1 bytes @ 0x38
  1176   000039                     	ds	1
  1177   00003A                     ??_main:
  1178                           
  1179                           ; 1 bytes @ 0x39
  1180   00003A                     	ds	2
  1181   00003C                     main@i:
  1182                           	callstack 0
  1183                           
  1184                           ; 2 bytes @ 0x3B
  1185   00003C                     	ds	2
  1186   00003E                     main@i_144:
  1187                           	callstack 0
  1188                           
  1189                           ; 2 bytes @ 0x3D
  1190   00003E                     	ds	2
  1191   000040                     main@i_147:
  1192                           	callstack 0
  1193                           
  1194                           ; 2 bytes @ 0x3F
  1195   000040                     	ds	2
  1196   000042                     main@key:
  1197                           	callstack 0
  1198                           
  1199                           ; 1 bytes @ 0x41
  1200   000042                     	ds	1
  1201                           
  1202 ;;
  1203 ;;Main: autosize = 0, tempsize = 2, incstack = 0, save=0
  1204 ;;
  1205 ;; *************** function _main *****************
  1206 ;; Defined at:
  1207 ;;		line 32 in file "main.c"
  1208 ;; Parameters:    Size  Location     Type
  1209 ;;		None
  1210 ;; Auto vars:     Size  Location     Type
  1211 ;;  i               2   63[COMRAM] int 
  1212 ;;  i               2   61[COMRAM] int 
  1213 ;;  i               2   59[COMRAM] int 
  1214 ;;  key             1   65[COMRAM] unsigned char 
  1215 ;; Return value:  Size  Location     Type
  1216 ;;                  1    wreg      void 
  1217 ;; Registers used:
  1218 ;;		wreg, fsr1l, fsr1h, fsr2l, fsr2h, status,2, status,0, tblptrl, tblptrh, tblptru, cstack
  1219 ;; Tracked objects:
  1220 ;;		On entry : 0/0
  1221 ;;		On exit  : 0/0
  1222 ;;		Unchanged: 0/0
  1223 ;; Data sizes:     COMRAM   BANK0   BANK1   BANK2   BANK3   BANK4   BANK5
  1224 ;;      Params:         0       0       0       0       0       0       0
  1225 ;;      Locals:         7       0       0       0       0       0       0
  1226 ;;      Temps:          2       0       0       0       0       0       0
  1227 ;;      Totals:         9       0       0       0       0       0       0
  1228 ;;Total ram usage:        9 bytes
  1229 ;; Hardware stack levels required when called: 7
  1230 ;; This function calls:
  1231 ;;		___fldiv
  1232 ;;		___fltol
  1233 ;;		___xxtofl
  1234 ;;		_car_menu
  1235 ;;		_change_password
  1236 ;;		_clcd_print
  1237 ;;		_clear_log
  1238 ;;		_display_dashboard
  1239 ;;		_display_speed
  1240 ;;		_get_time
  1241 ;;		_init_config
  1242 ;;		_read_adc
  1243 ;;		_read_external_eeprom
  1244 ;;		_read_password
  1245 ;;		_read_switches
  1246 ;;		_set_time
  1247 ;;		_store_event
  1248 ;;		_view_log
  1249 ;;		_write_external_eeprom
  1250 ;; This function is called by:
  1251 ;;		Startup code after reset
  1252 ;; This function uses a non-reentrant model
  1253 ;;
  1254                           
  1255                           	psect	text0
  1256   000850                     __ptext0:
  1257                           	callstack 0
  1258   000850                     _main:
  1259                           	callstack 24
  1260   000850                     
  1261                           ;main.c: 33:     init_config();
  1262   000850  ECE3  F010         	call	_init_config	;wreg free
  1263   000854                     
  1264                           ;main.c: 34:     unsigned char key;;main.c: 36:     for(int i = 0; i < 4; i++)
  1265   000854  0E00               	movlw	0
  1266   000856  6E3D               	movwf	(main@i+1)^0,c
  1267   000858  0E00               	movlw	0
  1268   00085A  6E3C               	movwf	main@i^0,c
  1269   00085C                     l3707:
  1270                           
  1271                           ;main.c: 37:     {;main.c: 38:         write_external_eeprom(0x46+i, original_password[i
      +                          ]);
  1272   00085C  0E95               	movlw	low _original_password
  1273   00085E  243C               	addwf	main@i^0,w,c
  1274   000860  6ED9               	movwf	fsr2l,c
  1275   000862  0E00               	movlw	high _original_password
  1276   000864  203D               	addwfc	(main@i+1)^0,w,c
  1277   000866  6EDA               	movwf	fsr2h,c
  1278   000868  50DF               	movf	indf2,w,c
  1279   00086A  6E02               	movwf	write_external_eeprom@data^0,c
  1280   00086C  503C               	movf	main@i^0,w,c
  1281   00086E  0F46               	addlw	70
  1282   000870  EC22  F010         	call	_write_external_eeprom
  1283   000874                     
  1284                           ;main.c: 39:     }
  1285   000874  4A3C               	infsnz	main@i^0,f,c
  1286   000876  2A3D               	incf	(main@i+1)^0,f,c
  1287   000878  BE3D               	btfsc	(main@i+1)^0,7,c
  1288   00087A  EF48  F004         	goto	u3501
  1289   00087E  503D               	movf	(main@i+1)^0,w,c
  1290   000880  E109               	bnz	u3500
  1291   000882  0E04               	movlw	4
  1292   000884  5C3C               	subwf	main@i^0,w,c
  1293   000886  A0D8               	btfss	status,0,c
  1294   000888  EF48  F004         	goto	u3501
  1295   00088C  EF4A  F004         	goto	u3500
  1296   000890                     u3501:
  1297   000890  EF2E  F004         	goto	l3707
  1298   000894                     u3500:
  1299   000894                     
  1300                           ;main.c: 40:     for(int i = 0; i < 4; i++)
  1301   000894  0E00               	movlw	0
  1302   000896  6E3F               	movwf	(main@i_144+1)^0,c
  1303   000898  0E00               	movlw	0
  1304   00089A  6E3E               	movwf	main@i_144^0,c
  1305   00089C                     l3719:
  1306                           
  1307                           ;main.c: 41:     {;main.c: 42:         original_password[i] = read_external_eeprom(0x46+
      +                          i);
  1308   00089C  0E95               	movlw	low _original_password
  1309   00089E  243E               	addwf	main@i_144^0,w,c
  1310   0008A0  6ED9               	movwf	fsr2l,c
  1311   0008A2  0E00               	movlw	high _original_password
  1312   0008A4  203F               	addwfc	(main@i_144+1)^0,w,c
  1313   0008A6  6EDA               	movwf	fsr2h,c
  1314   0008A8  503E               	movf	main@i_144^0,w,c
  1315   0008AA  0F46               	addlw	70
  1316   0008AC  EC9B  F010         	call	_read_external_eeprom
  1317   0008B0  6EDF               	movwf	indf2,c
  1318   0008B2                     
  1319                           ;main.c: 43:     }
  1320   0008B2  4A3E               	infsnz	main@i_144^0,f,c
  1321   0008B4  2A3F               	incf	(main@i_144+1)^0,f,c
  1322   0008B6  BE3F               	btfsc	(main@i_144+1)^0,7,c
  1323   0008B8  EF67  F004         	goto	u3511
  1324   0008BC  503F               	movf	(main@i_144+1)^0,w,c
  1325   0008BE  E109               	bnz	u3510
  1326   0008C0  0E04               	movlw	4
  1327   0008C2  5C3E               	subwf	main@i_144^0,w,c
  1328   0008C4  A0D8               	btfss	status,0,c
  1329   0008C6  EF67  F004         	goto	u3511
  1330   0008CA  EF69  F004         	goto	u3510
  1331   0008CE                     u3511:
  1332   0008CE  EF4E  F004         	goto	l3719
  1333   0008D2                     u3510:
  1334   0008D2                     
  1335                           ;main.c: 44:     original_password[4] = '\0';
  1336   0008D2  0E00               	movlw	0
  1337   0008D4  0100               	movlb	0	; () banked
  1338   0008D6  6F99               	movwf	(_original_password+4)& (0+255),b
  1339   0008D8                     
  1340                           ; BSR set to: 0
  1341                           ;main.c: 46:     speed = (read_adc(4) / 10.23);
  1342   0008D8  0E14               	movlw	20
  1343   0008DA  6E1B               	movwf	___fldiv@a^0,c
  1344   0008DC  0EAE               	movlw	174
  1345   0008DE  6E1C               	movwf	(___fldiv@a+1)^0,c
  1346   0008E0  0E23               	movlw	35
  1347   0008E2  6E1D               	movwf	(___fldiv@a+2)^0,c
  1348   0008E4  0E41               	movlw	65
  1349   0008E6  6E1E               	movwf	(___fldiv@a+3)^0,c
  1350   0008E8  0E04               	movlw	4
  1351   0008EA  ECB6  F00F         	call	_read_adc
  1352   0008EE  C001  F009         	movff	?_read_adc,___xxtofl@val
  1353   0008F2  C002  F00A         	movff	?_read_adc+1,___xxtofl@val+1
  1354   0008F6  6A0B               	clrf	(___xxtofl@val+2)^0,c
  1355   0008F8  6A0C               	clrf	(___xxtofl@val+3)^0,c
  1356   0008FA  0E00               	movlw	0
  1357   0008FC  EC59  F00A         	call	___xxtofl
  1358   000900  C009  F017         	movff	?___xxtofl,___fldiv@b
  1359   000904  C00A  F018         	movff	?___xxtofl+1,___fldiv@b+1
  1360   000908  C00B  F019         	movff	?___xxtofl+2,___fldiv@b+2
  1361   00090C  C00C  F01A         	movff	?___xxtofl+3,___fldiv@b+3
  1362   000910  EC5B  F002         	call	___fldiv	;wreg free
  1363   000914  C017  F030         	movff	?___fldiv,___fltol@f1
  1364   000918  C018  F031         	movff	?___fldiv+1,___fltol@f1+1
  1365   00091C  C019  F032         	movff	?___fldiv+2,___fltol@f1+2
  1366   000920  C01A  F033         	movff	?___fldiv+3,___fltol@f1+3
  1367   000924  EC80  F00C         	call	___fltol	;wreg free
  1368   000928  C030  F0AF         	movff	?___fltol,_speed
  1369   00092C  C031  F0B0         	movff	?___fltol+1,_speed+1
  1370   000930                     
  1371                           ;main.c: 47:     display_speed(speed);
  1372   000930  C0AF  F008         	movff	_speed,display_speed@speed
  1373   000934  C0B0  F009         	movff	_speed+1,display_speed@speed+1
  1374   000938  EC42  F010         	call	_display_speed	;wreg free
  1375   00093C                     
  1376                           ;main.c: 48:     get_time();
  1377   00093C  EC0B  F00E         	call	_get_time	;wreg free
  1378   000940                     
  1379                           ;main.c: 49:     store_event(event);
  1380   000940  0E84               	movlw	low _event
  1381   000942  6E06               	movwf	store_event@event^0,c
  1382   000944  0E00               	movlw	high _event
  1383   000946  6E07               	movwf	(store_event@event+1)^0,c
  1384   000948  EC03  F00D         	call	_store_event	;wreg free
  1385   00094C                     l3735:
  1386                           
  1387                           ;main.c: 51:         if(enter_flag == 2 || enter_flag == 3)
  1388   00094C  0E02               	movlw	2
  1389   00094E  1858               	xorwf	_enter_flag^0,w,c
  1390   000950  B4D8               	btfsc	status,2,c
  1391   000952  EFAD  F004         	goto	u3521
  1392   000956  EFAF  F004         	goto	u3520
  1393   00095A                     u3521:
  1394   00095A  EFB8  F004         	goto	l3739
  1395   00095E                     u3520:
  1396   00095E  0E03               	movlw	3
  1397   000960  1858               	xorwf	_enter_flag^0,w,c
  1398   000962  A4D8               	btfss	status,2,c
  1399   000964  EFB6  F004         	goto	u3531
  1400   000968  EFB8  F004         	goto	u3530
  1401   00096C                     u3531:
  1402   00096C  EFBE  F004         	goto	l3741
  1403   000970                     u3530:
  1404   000970                     l3739:
  1405                           
  1406                           ;main.c: 52:         {;main.c: 53:             key = read_switches(0);
  1407   000970  0E00               	movlw	0
  1408   000972  EC86  F00E         	call	_read_switches
  1409   000976  6E42               	movwf	main@key^0,c
  1410                           
  1411                           ;main.c: 54:         }
  1412   000978  EFC2  F004         	goto	l3743
  1413   00097C                     l3741:
  1414                           
  1415                           ;main.c: 56:         {;main.c: 57:             key = read_switches(1);
  1416   00097C  0E01               	movlw	1
  1417   00097E  EC86  F00E         	call	_read_switches
  1418   000982  6E42               	movwf	main@key^0,c
  1419   000984                     l3743:
  1420                           
  1421                           ;main.c: 59:         if(enter_flag == 4)
  1422   000984  0E04               	movlw	4
  1423   000986  1858               	xorwf	_enter_flag^0,w,c
  1424   000988  A4D8               	btfss	status,2,c
  1425   00098A  EFC9  F004         	goto	u3541
  1426   00098E  EFCB  F004         	goto	u3540
  1427   000992                     u3541:
  1428   000992  EFCF  F004         	goto	l3747
  1429   000996                     u3540:
  1430   000996                     
  1431                           ;main.c: 60:             key = read_switches(0);
  1432   000996  0E00               	movlw	0
  1433   000998  EC86  F00E         	call	_read_switches
  1434   00099C  6E42               	movwf	main@key^0,c
  1435   00099E                     l3747:
  1436                           
  1437                           ;main.c: 62:         if(key == 10 && enter_flag == 0)
  1438   00099E  0E0A               	movlw	10
  1439   0009A0  1842               	xorwf	main@key^0,w,c
  1440   0009A2  A4D8               	btfss	status,2,c
  1441   0009A4  EFD6  F004         	goto	u3551
  1442   0009A8  EFD8  F004         	goto	u3550
  1443   0009AC                     u3551:
  1444   0009AC  EF91  F005         	goto	l3813
  1445   0009B0                     u3550:
  1446   0009B0  5058               	movf	_enter_flag^0,w,c
  1447   0009B2  A4D8               	btfss	status,2,c
  1448   0009B4  EFDE  F004         	goto	u3561
  1449   0009B8  EFE0  F004         	goto	u3560
  1450   0009BC                     u3561:
  1451   0009BC  EF91  F005         	goto	l3813
  1452   0009C0                     u3560:
  1453   0009C0                     
  1454                           ;main.c: 63:         {;main.c: 64:             clcd_print("                ", (0xC0 + (0
      +                          )));
  1455   0009C0  0E72               	movlw	low STR_1
  1456   0009C2  6E03               	movwf	clcd_print@data^0,c
  1457   0009C4  0E2F               	movlw	high STR_1
  1458   0009C6  6E04               	movwf	(clcd_print@data+1)^0,c
  1459   0009C8  0EC0               	movlw	192
  1460   0009CA  6E05               	movwf	clcd_print@addr^0,c
  1461   0009CC  ECBF  F00E         	call	_clcd_print	;wreg free
  1462   0009D0                     
  1463                           ;main.c: 65:             enter_flag = 1;
  1464   0009D0  0E01               	movlw	1
  1465   0009D2  6E58               	movwf	_enter_flag^0,c
  1466   0009D4                     
  1467                           ;main.c: 66:             sec = 0;
  1468   0009D4  0E00               	movlw	0
  1469   0009D6  6E54               	movwf	(_sec+1)^0,c
  1470   0009D8  0E00               	movlw	0
  1471   0009DA  6E53               	movwf	_sec^0,c
  1472   0009DC  EF91  F005         	goto	l3813
  1473   0009E0                     l3757:
  1474                           
  1475                           ;main.c: 72:             {;main.c: 73:                 display_dashboard(key);
  1476   0009E0  5042               	movf	main@key^0,w,c
  1477   0009E2  EC5A  F00F         	call	_display_dashboard
  1478                           
  1479                           ;main.c: 74:                 break;
  1480   0009E6  EFBA  F005         	goto	l3815
  1481   0009EA                     l3759:
  1482                           
  1483                           ;main.c: 77:             {;main.c: 78:                 read_password(key);
  1484   0009EA  5042               	movf	main@key^0,w,c
  1485   0009EC  ECB2  F007         	call	_read_password
  1486   0009F0                     
  1487                           ;main.c: 79:                 if(enter_flag == 2)
  1488   0009F0  0E02               	movlw	2
  1489   0009F2  1858               	xorwf	_enter_flag^0,w,c
  1490   0009F4  A4D8               	btfss	status,2,c
  1491   0009F6  EFFF  F004         	goto	u3571
  1492   0009FA  EF01  F005         	goto	u3570
  1493   0009FE                     u3571:
  1494   0009FE  EFBA  F005         	goto	l3815
  1495   000A02                     u3570:
  1496   000A02                     l3763:
  1497                           
  1498                           ;main.c: 80:                     sec = 0;
  1499   000A02  0E00               	movlw	0
  1500   000A04  6E54               	movwf	(_sec+1)^0,c
  1501   000A06  0E00               	movlw	0
  1502   000A08  6E53               	movwf	_sec^0,c
  1503   000A0A  EFBA  F005         	goto	l3815
  1504   000A0E                     l3765:
  1505                           
  1506                           ;main.c: 84:             {;main.c: 85:                 car_menu(key);
  1507   000A0E  5042               	movf	main@key^0,w,c
  1508   000A10  ECF2  F005         	call	_car_menu
  1509   000A14                     
  1510                           ;main.c: 86:                 if(enter_flag == 7)
  1511   000A14  0E07               	movlw	7
  1512   000A16  1858               	xorwf	_enter_flag^0,w,c
  1513   000A18  A4D8               	btfss	status,2,c
  1514   000A1A  EF11  F005         	goto	u3581
  1515   000A1E  EF13  F005         	goto	u3580
  1516   000A22                     u3581:
  1517   000A22  EF1D  F005         	goto	l3773
  1518   000A26                     u3580:
  1519   000A26                     
  1520                           ;main.c: 87:                 {;main.c: 88:                     clcd_print("             
      +                             ", (0xC0 + (0)));
  1521   000A26  0E72               	movlw	low STR_1
  1522   000A28  6E03               	movwf	clcd_print@data^0,c
  1523   000A2A  0E2F               	movlw	high STR_1
  1524   000A2C  6E04               	movwf	(clcd_print@data+1)^0,c
  1525   000A2E  0EC0               	movlw	192
  1526   000A30  6E05               	movwf	clcd_print@addr^0,c
  1527   000A32  ECBF  F00E         	call	_clcd_print	;wreg free
  1528   000A36  EF01  F005         	goto	l3763
  1529   000A3A                     l3773:
  1530   000A3A  0E04               	movlw	4
  1531   000A3C  1858               	xorwf	_enter_flag^0,w,c
  1532   000A3E  A4D8               	btfss	status,2,c
  1533   000A40  EF24  F005         	goto	u3591
  1534   000A44  EF26  F005         	goto	u3590
  1535   000A48                     u3591:
  1536   000A48  EFBA  F005         	goto	l3815
  1537   000A4C                     u3590:
  1538   000A4C                     
  1539                           ;main.c: 92:                 {;main.c: 93:                     for(int i = 0; i < 8; i++
      +                          )
  1540   000A4C  0E00               	movlw	0
  1541   000A4E  6E41               	movwf	(main@i_147+1)^0,c
  1542   000A50  0E00               	movlw	0
  1543   000A52  6E40               	movwf	main@i_147^0,c
  1544   000A54                     l3781:
  1545                           
  1546                           ;main.c: 94:                     {;main.c: 95:                         time[i] = event[i
      +                          ];
  1547   000A54  0E84               	movlw	low _event
  1548   000A56  2440               	addwf	main@i_147^0,w,c
  1549   000A58  6ED9               	movwf	fsr2l,c
  1550   000A5A  0E00               	movlw	high _event
  1551   000A5C  2041               	addwfc	(main@i_147+1)^0,w,c
  1552   000A5E  6EDA               	movwf	fsr2h,c
  1553   000A60  0E9A               	movlw	low _time
  1554   000A62  2440               	addwf	main@i_147^0,w,c
  1555   000A64  6EE1               	movwf	fsr1l,c
  1556   000A66  0E00               	movlw	high _time
  1557   000A68  2041               	addwfc	(main@i_147+1)^0,w,c
  1558   000A6A  6EE2               	movwf	fsr1h,c
  1559   000A6C  CFDF FFE7          	movff	indf2,indf1
  1560   000A70                     
  1561                           ;main.c: 96:                     }
  1562   000A70  4A40               	infsnz	main@i_147^0,f,c
  1563   000A72  2A41               	incf	(main@i_147+1)^0,f,c
  1564   000A74  BE41               	btfsc	(main@i_147+1)^0,7,c
  1565   000A76  EF46  F005         	goto	u3601
  1566   000A7A  5041               	movf	(main@i_147+1)^0,w,c
  1567   000A7C  E109               	bnz	u3600
  1568   000A7E  0E08               	movlw	8
  1569   000A80  5C40               	subwf	main@i_147^0,w,c
  1570   000A82  A0D8               	btfss	status,0,c
  1571   000A84  EF46  F005         	goto	u3601
  1572   000A88  EF48  F005         	goto	u3600
  1573   000A8C                     u3601:
  1574   000A8C  EF2A  F005         	goto	l3781
  1575   000A90                     u3600:
  1576   000A90  EFBA  F005         	goto	l3815
  1577   000A94                     l3787:
  1578                           
  1579                           ;main.c: 101:             {;main.c: 102:                 view_log(key);
  1580   000A94  5042               	movf	main@key^0,w,c
  1581   000A96  EC21  F009         	call	_view_log
  1582   000A9A                     
  1583                           ;main.c: 103:                 if(enter_flag == 2)
  1584   000A9A  0E02               	movlw	2
  1585   000A9C  1858               	xorwf	_enter_flag^0,w,c
  1586   000A9E  A4D8               	btfss	status,2,c
  1587   000AA0  EF54  F005         	goto	u3611
  1588   000AA4  EF56  F005         	goto	u3610
  1589   000AA8                     u3611:
  1590   000AA8  EFBA  F005         	goto	l3815
  1591   000AAC                     u3610:
  1592   000AAC  EF01  F005         	goto	l3763
  1593   000AB0                     l3793:
  1594                           
  1595                           ;main.c: 108:             {;main.c: 109:                 set_time(key);
  1596   000AB0  5042               	movf	main@key^0,w,c
  1597   000AB2  EC42  F011         	call	_set_time
  1598                           
  1599                           ;main.c: 110:                 break;
  1600   000AB6  EFBA  F005         	goto	l3815
  1601   000ABA                     l3795:
  1602                           
  1603                           ;main.c: 113:             {;main.c: 114:                 clear_log();
  1604   000ABA  EC89  F00F         	call	_clear_log	;wreg free
  1605   000ABE                     
  1606                           ;main.c: 115:                 enter_flag = 2;
  1607   000ABE  0E02               	movlw	2
  1608   000AC0  6E58               	movwf	_enter_flag^0,c
  1609   000AC2  EF01  F005         	goto	l3763
  1610   000AC6                     l3801:
  1611                           
  1612                           ;main.c: 120:             {;main.c: 121:                 change_password(key);
  1613   000AC6  5042               	movf	main@key^0,w,c
  1614   000AC8  EC09  F000         	call	_change_password
  1615   000ACC                     
  1616                           ;main.c: 122:                 if(enter_flag == 2)
  1617   000ACC  0E02               	movlw	2
  1618   000ACE  1858               	xorwf	_enter_flag^0,w,c
  1619   000AD0  A4D8               	btfss	status,2,c
  1620   000AD2  EF6D  F005         	goto	u3621
  1621   000AD6  EF6F  F005         	goto	u3620
  1622   000ADA                     u3621:
  1623   000ADA  EFBA  F005         	goto	l3815
  1624   000ADE                     u3620:
  1625   000ADE  EF01  F005         	goto	l3763
  1626   000AE2                     l3807:
  1627                           
  1628                           ;main.c: 127:             {;main.c: 128:                 clcd_print("                ", 
      +                          (0x80 + (0)));
  1629   000AE2  0E72               	movlw	low STR_1
  1630   000AE4  6E03               	movwf	clcd_print@data^0,c
  1631   000AE6  0E2F               	movlw	high STR_1
  1632   000AE8  6E04               	movwf	(clcd_print@data+1)^0,c
  1633   000AEA  0E80               	movlw	128
  1634   000AEC  6E05               	movwf	clcd_print@addr^0,c
  1635   000AEE  ECBF  F00E         	call	_clcd_print	;wreg free
  1636                           
  1637                           ;main.c: 129:                 clcd_print("   hello-menu   ", (0xC0 + (0)));
  1638   000AF2  0E83               	movlw	low STR_4
  1639   000AF4  6E03               	movwf	clcd_print@data^0,c
  1640   000AF6  0E2F               	movlw	high STR_4
  1641   000AF8  6E04               	movwf	(clcd_print@data+1)^0,c
  1642   000AFA  0EC0               	movlw	192
  1643   000AFC  6E05               	movwf	clcd_print@addr^0,c
  1644   000AFE  ECBF  F00E         	call	_clcd_print	;wreg free
  1645   000B02                     
  1646                           ;main.c: 130:                 _delay((unsigned long)((4000)*(20000000/4000.0)));
  1647   000B02  0E66               	movlw	102
  1648   000B04  6E3B               	movwf	(??_main+1)^0,c
  1649   000B06  0E76               	movlw	118
  1650   000B08  6E3A               	movwf	??_main^0,c
  1651   000B0A  0EC1               	movlw	193
  1652   000B0C                     u3657:
  1653   000B0C  2EE8               	decfsz	wreg,f,c
  1654   000B0E  D7FE               	bra	u3657
  1655   000B10  2E3A               	decfsz	??_main^0,f,c
  1656   000B12  D7FC               	bra	u3657
  1657   000B14  2E3B               	decfsz	(??_main+1)^0,f,c
  1658   000B16  D7FA               	bra	u3657
  1659   000B18  F000               	nop	
  1660   000B1A                     
  1661                           ;main.c: 131:                 enter_flag = 2;
  1662   000B1A  0E02               	movlw	2
  1663   000B1C  6E58               	movwf	_enter_flag^0,c
  1664                           
  1665                           ;main.c: 132:             };main.c: 133:         }
  1666   000B1E  EFBA  F005         	goto	l3815
  1667   000B22                     l3813:
  1668   000B22  5058               	movf	_enter_flag^0,w,c
  1669   000B24  6E3A               	movwf	??_main^0,c
  1670   000B26  6A3B               	clrf	(??_main+1)^0,c
  1671                           
  1672                           ; Switch on 2 bytes has been partitioned into a top level switch of size 1, and 1 sub-sw
      +                          itches
  1673                           ; Switch size 1, requested type "simple"
  1674                           ; Number of cases is 1, Range of values is 0 to 0
  1675                           ; switch strategies available:
  1676                           ; Name         Instructions Cycles
  1677                           ; simple_byte            4     3 (average)
  1678                           ;	Chosen strategy is simple_byte
  1679   000B28  503B               	movf	(??_main+1)^0,w,c
  1680   000B2A  0A00               	xorlw	0	; case 0
  1681   000B2C  B4D8               	btfsc	status,2,c
  1682   000B2E  EF9B  F005         	goto	l3853
  1683   000B32  EF71  F005         	goto	l3807
  1684   000B36                     l3853:
  1685                           
  1686                           ; Switch size 1, requested type "simple"
  1687                           ; Number of cases is 7, Range of values is 0 to 7
  1688                           ; switch strategies available:
  1689                           ; Name         Instructions Cycles
  1690                           ; simple_byte           22    12 (average)
  1691                           ;	Chosen strategy is simple_byte
  1692   000B36  503A               	movf	??_main^0,w,c
  1693   000B38  0A00               	xorlw	0	; case 0
  1694   000B3A  B4D8               	btfsc	status,2,c
  1695   000B3C  EFF0  F004         	goto	l3757
  1696   000B40  0A01               	xorlw	1	; case 1
  1697   000B42  B4D8               	btfsc	status,2,c
  1698   000B44  EFF5  F004         	goto	l3759
  1699   000B48  0A03               	xorlw	3	; case 2
  1700   000B4A  B4D8               	btfsc	status,2,c
  1701   000B4C  EF07  F005         	goto	l3765
  1702   000B50  0A01               	xorlw	1	; case 3
  1703   000B52  B4D8               	btfsc	status,2,c
  1704   000B54  EF4A  F005         	goto	l3787
  1705   000B58  0A07               	xorlw	7	; case 4
  1706   000B5A  B4D8               	btfsc	status,2,c
  1707   000B5C  EF58  F005         	goto	l3793
  1708   000B60  0A02               	xorlw	2	; case 6
  1709   000B62  B4D8               	btfsc	status,2,c
  1710   000B64  EF5D  F005         	goto	l3795
  1711   000B68  0A01               	xorlw	1	; case 7
  1712   000B6A  B4D8               	btfsc	status,2,c
  1713   000B6C  EF63  F005         	goto	l3801
  1714   000B70  EF71  F005         	goto	l3807
  1715   000B74                     l3815:
  1716                           
  1717                           ;main.c: 134:         get_time();
  1718   000B74  EC0B  F00E         	call	_get_time	;wreg free
  1719                           
  1720                           ;main.c: 135:         speed = (read_adc(4) / 10.23);
  1721   000B78  0E14               	movlw	20
  1722   000B7A  6E1B               	movwf	___fldiv@a^0,c
  1723   000B7C  0EAE               	movlw	174
  1724   000B7E  6E1C               	movwf	(___fldiv@a+1)^0,c
  1725   000B80  0E23               	movlw	35
  1726   000B82  6E1D               	movwf	(___fldiv@a+2)^0,c
  1727   000B84  0E41               	movlw	65
  1728   000B86  6E1E               	movwf	(___fldiv@a+3)^0,c
  1729   000B88  0E04               	movlw	4
  1730   000B8A  ECB6  F00F         	call	_read_adc
  1731   000B8E  C001  F009         	movff	?_read_adc,___xxtofl@val
  1732   000B92  C002  F00A         	movff	?_read_adc+1,___xxtofl@val+1
  1733   000B96  6A0B               	clrf	(___xxtofl@val+2)^0,c
  1734   000B98  6A0C               	clrf	(___xxtofl@val+3)^0,c
  1735   000B9A  0E00               	movlw	0
  1736   000B9C  EC59  F00A         	call	___xxtofl
  1737   000BA0  C009  F017         	movff	?___xxtofl,___fldiv@b
  1738   000BA4  C00A  F018         	movff	?___xxtofl+1,___fldiv@b+1
  1739   000BA8  C00B  F019         	movff	?___xxtofl+2,___fldiv@b+2
  1740   000BAC  C00C  F01A         	movff	?___xxtofl+3,___fldiv@b+3
  1741   000BB0  EC5B  F002         	call	___fldiv	;wreg free
  1742   000BB4  C017  F030         	movff	?___fldiv,___fltol@f1
  1743   000BB8  C018  F031         	movff	?___fldiv+1,___fltol@f1+1
  1744   000BBC  C019  F032         	movff	?___fldiv+2,___fltol@f1+2
  1745   000BC0  C01A  F033         	movff	?___fldiv+3,___fltol@f1+3
  1746   000BC4  EC80  F00C         	call	___fltol	;wreg free
  1747   000BC8  C030  F0AF         	movff	?___fltol,_speed
  1748   000BCC  C031  F0B0         	movff	?___fltol+1,_speed+1
  1749                           
  1750                           ;main.c: 136:         display_speed(speed);
  1751   000BD0  C0AF  F008         	movff	_speed,display_speed@speed
  1752   000BD4  C0B0  F009         	movff	_speed+1,display_speed@speed+1
  1753   000BD8  EC42  F010         	call	_display_speed	;wreg free
  1754   000BDC  EFA6  F004         	goto	l3735
  1755   000BE0  EF07  F000         	goto	start
  1756   000BE4                     __end_of_main:
  1757                           	callstack 0
  1758                           
  1759 ;; *************** function _view_log *****************
  1760 ;; Defined at:
  1761 ;;		line 263 in file "car_black_box.c"
  1762 ;; Parameters:    Size  Location     Type
  1763 ;;  key             1    wreg     unsigned char 
  1764 ;; Auto vars:     Size  Location     Type
  1765 ;;  key             1   13[COMRAM] unsigned char 
  1766 ;;  i               2   11[COMRAM] int 
  1767 ;; Return value:  Size  Location     Type
  1768 ;;                  1    wreg      void 
  1769 ;; Registers used:
  1770 ;;		wreg, fsr1l, fsr1h, fsr2l, fsr2h, status,2, status,0, tblptrl, tblptrh, tblptru, cstack
  1771 ;; Tracked objects:
  1772 ;;		On entry : 0/0
  1773 ;;		On exit  : 0/0
  1774 ;;		Unchanged: 0/0
  1775 ;; Data sizes:     COMRAM   BANK0   BANK1   BANK2   BANK3   BANK4   BANK5
  1776 ;;      Params:         0       0       0       0       0       0       0
  1777 ;;      Locals:         3       0       0       0       0       0       0
  1778 ;;      Temps:          2       0       0       0       0       0       0
  1779 ;;      Totals:         5       0       0       0       0       0       0
  1780 ;;Total ram usage:        5 bytes
  1781 ;; Hardware stack levels used: 1
  1782 ;; Hardware stack levels required when called: 5
  1783 ;; This function calls:
  1784 ;;		___lwmod
  1785 ;;		_clcd_print
  1786 ;;		_clcd_putch
  1787 ;;		_read_external_eeprom
  1788 ;; This function is called by:
  1789 ;;		_main
  1790 ;; This function uses a non-reentrant model
  1791 ;;
  1792                           
  1793                           	psect	text1
  1794   001242                     __ptext1:
  1795                           	callstack 0
  1796   001242                     _view_log:
  1797                           	callstack 25
  1798                           
  1799                           ;incstack = 0
  1800                           ;view_log@key stored from wreg
  1801   001242  6E0E               	movwf	view_log@key^0,c
  1802   001244                     
  1803                           ;car_black_box.c: 264:     clcd_print("Logs:-->[", (0x80 + (0)));
  1804   001244  0ED0               	movlw	low STR_31
  1805   001246  6E03               	movwf	clcd_print@data^0,c
  1806   001248  0E2F               	movlw	high STR_31
  1807   00124A  6E04               	movwf	(clcd_print@data+1)^0,c
  1808   00124C  0E80               	movlw	128
  1809   00124E  6E05               	movwf	clcd_print@addr^0,c
  1810   001250  ECBF  F00E         	call	_clcd_print	;wreg free
  1811   001254                     
  1812                           ;car_black_box.c: 265:     clcd_putch((view_flag % total_index) + 48, (0x80 + (9)));
  1813   001254  0E89               	movlw	137
  1814   001256  6E08               	movwf	clcd_putch@addr^0,c
  1815   001258  C0A9  F001         	movff	_view_flag,___lwmod@dividend
  1816   00125C  C0AA  F002         	movff	_view_flag+1,___lwmod@dividend+1
  1817   001260  C057  F003         	movff	_total_index,___lwmod@divisor
  1818   001264  6A04               	clrf	(___lwmod@divisor+1)^0,c
  1819   001266  EC28  F00F         	call	___lwmod	;wreg free
  1820   00126A  5001               	movf	?___lwmod^0,w,c
  1821   00126C  0F30               	addlw	48
  1822   00126E  ECFD  F010         	call	_clcd_putch
  1823   001272                     
  1824                           ;car_black_box.c: 266:     clcd_print("]          ", (0x80 + (10)));
  1825   001272  0EC4               	movlw	low STR_32
  1826   001274  6E03               	movwf	clcd_print@data^0,c
  1827   001276  0E2F               	movlw	high STR_32
  1828   001278  6E04               	movwf	(clcd_print@data+1)^0,c
  1829   00127A  0E8A               	movlw	138
  1830   00127C  6E05               	movwf	clcd_print@addr^0,c
  1831   00127E  ECBF  F00E         	call	_clcd_print	;wreg free
  1832   001282                     
  1833                           ;car_black_box.c: 268:     if (key == 11) {
  1834   001282  0E0B               	movlw	11
  1835   001284  180E               	xorwf	view_log@key^0,w,c
  1836   001286  A4D8               	btfss	status,2,c
  1837   001288  EF48  F009         	goto	u2731
  1838   00128C  EF4A  F009         	goto	u2730
  1839   001290                     u2731:
  1840   001290  EF51  F009         	goto	l3227
  1841   001294                     u2730:
  1842   001294                     
  1843                           ;car_black_box.c: 269:         previous_key = key;
  1844   001294  C00E  F04B         	movff	view_log@key,_previous_key
  1845   001298  6A4C               	clrf	(_previous_key+1)^0,c
  1846   00129A                     
  1847                           ;car_black_box.c: 270:         if (wait1++ > 400) {
  1848   00129A  4A45               	infsnz	_wait1^0,f,c
  1849   00129C  2A46               	incf	(_wait1+1)^0,f,c
  1850   00129E  EF17  F00A         	goto	l3275
  1851   0012A2                     l3227:
  1852   0012A2  5045               	movf	_wait1^0,w,c
  1853   0012A4  1046               	iorwf	(_wait1+1)^0,w,c
  1854   0012A6  B4D8               	btfsc	status,2,c
  1855   0012A8  EF58  F009         	goto	u2741
  1856   0012AC  EF5A  F009         	goto	u2740
  1857   0012B0                     u2741:
  1858   0012B0  EFA0  F009         	goto	l3245
  1859   0012B4                     u2740:
  1860   0012B4  0E90               	movlw	144
  1861   0012B6  5C45               	subwf	_wait1^0,w,c
  1862   0012B8  0E01               	movlw	1
  1863   0012BA  5846               	subwfb	(_wait1+1)^0,w,c
  1864   0012BC  B0D8               	btfsc	status,0,c
  1865   0012BE  EF63  F009         	goto	u2751
  1866   0012C2  EF65  F009         	goto	u2750
  1867   0012C6                     u2751:
  1868   0012C6  EFA0  F009         	goto	l3245
  1869   0012CA                     u2750:
  1870   0012CA  0E0B               	movlw	11
  1871   0012CC  184B               	xorwf	_previous_key^0,w,c
  1872   0012CE  104C               	iorwf	(_previous_key+1)^0,w,c
  1873   0012D0  A4D8               	btfss	status,2,c
  1874   0012D2  EF6D  F009         	goto	u2761
  1875   0012D6  EF6F  F009         	goto	u2760
  1876   0012DA                     u2761:
  1877   0012DA  EFA0  F009         	goto	l3245
  1878   0012DE                     u2760:
  1879   0012DE  280E               	incf	view_log@key^0,w,c
  1880   0012E0  A4D8               	btfss	status,2,c
  1881   0012E2  EF75  F009         	goto	u2771
  1882   0012E6  EF77  F009         	goto	u2770
  1883   0012EA                     u2771:
  1884   0012EA  EFA0  F009         	goto	l3245
  1885   0012EE                     u2770:
  1886   0012EE                     
  1887                           ;car_black_box.c: 273:         view_flag--;
  1888   0012EE  0100               	movlb	0	; () banked
  1889   0012F0  07A9               	decf	_view_flag& (0+255),f,b
  1890   0012F2  A0D8               	btfss	status,0,c
  1891   0012F4  07AA               	decf	(_view_flag+1)& (0+255),f,b
  1892                           
  1893                           ;car_black_box.c: 274:         count_event--;
  1894   0012F6  0643               	decf	_count_event^0,f,c
  1895   0012F8  A0D8               	btfss	status,0,c
  1896   0012FA  0644               	decf	(_count_event+1)^0,f,c
  1897   0012FC                     
  1898                           ; BSR set to: 0
  1899                           ;car_black_box.c: 275:         if (count_event == -1) {
  1900   0012FC  2843               	incf	_count_event^0,w,c
  1901   0012FE  E106               	bnz	u2781
  1902   001300  2844               	incf	(_count_event+1)^0,w,c
  1903   001302  A4D8               	btfss	status,2,c
  1904   001304  EF86  F009         	goto	u2781
  1905   001308  EF88  F009         	goto	u2780
  1906   00130C                     u2781:
  1907   00130C  EF8C  F009         	goto	l3241
  1908   001310                     u2780:
  1909   001310                     
  1910                           ; BSR set to: 0
  1911                           ;car_black_box.c: 276:             count_event = 9;
  1912   001310  0E00               	movlw	0
  1913   001312  6E44               	movwf	(_count_event+1)^0,c
  1914   001314  0E09               	movlw	9
  1915   001316  6E43               	movwf	_count_event^0,c
  1916   001318                     l3241:
  1917                           
  1918                           ; BSR set to: 0
  1919                           ;car_black_box.c: 278:         if (view_flag == -1) {
  1920   001318  29A9               	incf	_view_flag& (0+255),w,b
  1921   00131A  E106               	bnz	u2791
  1922   00131C  29AA               	incf	(_view_flag+1)& (0+255),w,b
  1923   00131E  A4D8               	btfss	status,2,c
  1924   001320  EF94  F009         	goto	u2791
  1925   001324  EF96  F009         	goto	u2790
  1926   001328                     u2791:
  1927   001328  EF9A  F009         	goto	l265
  1928   00132C                     u2790:
  1929   00132C                     
  1930                           ; BSR set to: 0
  1931                           ;car_black_box.c: 279:             view_flag = 9;
  1932   00132C  0E00               	movlw	0
  1933   00132E  6FAA               	movwf	(_view_flag+1)& (0+255),b
  1934   001330  0E09               	movlw	9
  1935   001332  6FA9               	movwf	_view_flag& (0+255),b
  1936   001334                     l265:
  1937                           
  1938                           ;car_black_box.c: 281:         wait1 = 0;
  1939   001334  0E00               	movlw	0
  1940   001336  6E46               	movwf	(_wait1+1)^0,c
  1941   001338  0E00               	movlw	0
  1942   00133A  6E45               	movwf	_wait1^0,c
  1943                           
  1944                           ;car_black_box.c: 282:     } else if (key == 12) {
  1945   00133C  EF17  F00A         	goto	l3275
  1946   001340                     l3245:
  1947   001340  0E0C               	movlw	12
  1948   001342  180E               	xorwf	view_log@key^0,w,c
  1949   001344  A4D8               	btfss	status,2,c
  1950   001346  EFA7  F009         	goto	u2801
  1951   00134A  EFA9  F009         	goto	u2800
  1952   00134E                     u2801:
  1953   00134E  EFCE  F009         	goto	l3255
  1954   001352                     u2800:
  1955   001352                     
  1956                           ;car_black_box.c: 283:         previous_key = key;
  1957   001352  C00E  F04B         	movff	view_log@key,_previous_key
  1958   001356  6A4C               	clrf	(_previous_key+1)^0,c
  1959   001358                     
  1960                           ;car_black_box.c: 284:         if (wait1++ > 300) {
  1961   001358  5045               	movf	_wait1^0,w,c
  1962   00135A  6E0A               	movwf	??_view_log^0,c
  1963   00135C  5046               	movf	(_wait1+1)^0,w,c
  1964   00135E  6E0B               	movwf	(??_view_log+1)^0,c
  1965   001360  4A45               	infsnz	_wait1^0,f,c
  1966   001362  2A46               	incf	(_wait1+1)^0,f,c
  1967   001364  0E2D               	movlw	45
  1968   001366  5C0A               	subwf	??_view_log^0,w,c
  1969   001368  0E01               	movlw	1
  1970   00136A  580B               	subwfb	(??_view_log+1)^0,w,c
  1971   00136C  A0D8               	btfss	status,0,c
  1972   00136E  EFBB  F009         	goto	u2811
  1973   001372  EFBD  F009         	goto	u2810
  1974   001376                     u2811:
  1975   001376  EF17  F00A         	goto	l3275
  1976   00137A                     u2810:
  1977   00137A                     
  1978                           ;car_black_box.c: 285:             wait1 = 0;
  1979   00137A  0E00               	movlw	0
  1980   00137C  6E46               	movwf	(_wait1+1)^0,c
  1981   00137E  0E00               	movlw	0
  1982   001380  6E45               	movwf	_wait1^0,c
  1983                           
  1984                           ;car_black_box.c: 286:             enter_flag = 2;
  1985   001382  0E02               	movlw	2
  1986   001384  6E58               	movwf	_enter_flag^0,c
  1987                           
  1988                           ;car_black_box.c: 287:             view_flag = 0;
  1989   001386  0E00               	movlw	0
  1990   001388  0100               	movlb	0	; () banked
  1991   00138A  6FAA               	movwf	(_view_flag+1)& (0+255),b
  1992   00138C  0E00               	movlw	0
  1993   00138E  6FA9               	movwf	_view_flag& (0+255),b
  1994                           
  1995                           ;car_black_box.c: 288:             sec = 0;
  1996   001390  0E00               	movlw	0
  1997   001392  6E54               	movwf	(_sec+1)^0,c
  1998   001394  0E00               	movlw	0
  1999   001396  6E53               	movwf	_sec^0,c
  2000   001398  EF58  F00A         	goto	l269
  2001   00139C                     l3255:
  2002   00139C  5045               	movf	_wait1^0,w,c
  2003   00139E  1046               	iorwf	(_wait1+1)^0,w,c
  2004   0013A0  B4D8               	btfsc	status,2,c
  2005   0013A2  EFD5  F009         	goto	u2821
  2006   0013A6  EFD7  F009         	goto	u2820
  2007   0013AA                     u2821:
  2008   0013AA  EF9A  F009         	goto	l265
  2009   0013AE                     u2820:
  2010   0013AE  0E2C               	movlw	44
  2011   0013B0  5C45               	subwf	_wait1^0,w,c
  2012   0013B2  0E01               	movlw	1
  2013   0013B4  5846               	subwfb	(_wait1+1)^0,w,c
  2014   0013B6  B0D8               	btfsc	status,0,c
  2015   0013B8  EFE0  F009         	goto	u2831
  2016   0013BC  EFE2  F009         	goto	u2830
  2017   0013C0                     u2831:
  2018   0013C0  EF9A  F009         	goto	l265
  2019   0013C4                     u2830:
  2020   0013C4  0E0C               	movlw	12
  2021   0013C6  184B               	xorwf	_previous_key^0,w,c
  2022   0013C8  104C               	iorwf	(_previous_key+1)^0,w,c
  2023   0013CA  A4D8               	btfss	status,2,c
  2024   0013CC  EFEA  F009         	goto	u2841
  2025   0013D0  EFEC  F009         	goto	u2840
  2026   0013D4                     u2841:
  2027   0013D4  EF9A  F009         	goto	l265
  2028   0013D8                     u2840:
  2029   0013D8  280E               	incf	view_log@key^0,w,c
  2030   0013DA  A4D8               	btfss	status,2,c
  2031   0013DC  EFF2  F009         	goto	u2851
  2032   0013E0  EFF4  F009         	goto	u2850
  2033   0013E4                     u2851:
  2034   0013E4  EF9A  F009         	goto	l265
  2035   0013E8                     u2850:
  2036   0013E8                     
  2037                           ;car_black_box.c: 292:         view_flag++;
  2038   0013E8  0100               	movlb	0	; () banked
  2039   0013EA  4BA9               	infsnz	_view_flag& (0+255),f,b
  2040   0013EC  2BAA               	incf	(_view_flag+1)& (0+255),f,b
  2041                           
  2042                           ;car_black_box.c: 293:         count_event++;
  2043   0013EE  4A43               	infsnz	_count_event^0,f,c
  2044   0013F0  2A44               	incf	(_count_event+1)^0,f,c
  2045   0013F2                     
  2046                           ; BSR set to: 0
  2047                           ;car_black_box.c: 294:         if (count_event == 10)
  2048   0013F2  0E0A               	movlw	10
  2049   0013F4  1843               	xorwf	_count_event^0,w,c
  2050   0013F6  1044               	iorwf	(_count_event+1)^0,w,c
  2051   0013F8  A4D8               	btfss	status,2,c
  2052   0013FA  EF01  F00A         	goto	u2861
  2053   0013FE  EF03  F00A         	goto	u2860
  2054   001402                     u2861:
  2055   001402  EF07  F00A         	goto	l3269
  2056   001406                     u2860:
  2057   001406                     
  2058                           ; BSR set to: 0
  2059                           ;car_black_box.c: 295:             count_event = 0;
  2060   001406  0E00               	movlw	0
  2061   001408  6E44               	movwf	(_count_event+1)^0,c
  2062   00140A  0E00               	movlw	0
  2063   00140C  6E43               	movwf	_count_event^0,c
  2064   00140E                     l3269:
  2065                           
  2066                           ; BSR set to: 0
  2067                           ;car_black_box.c: 296:         if (view_flag == 10)
  2068   00140E  0E0A               	movlw	10
  2069   001410  19A9               	xorwf	_view_flag& (0+255),w,b
  2070   001412  11AA               	iorwf	(_view_flag+1)& (0+255),w,b
  2071   001414  A4D8               	btfss	status,2,c
  2072   001416  EF0F  F00A         	goto	u2871
  2073   00141A  EF11  F00A         	goto	u2870
  2074   00141E                     u2871:
  2075   00141E  EF9A  F009         	goto	l265
  2076   001422                     u2870:
  2077   001422                     
  2078                           ; BSR set to: 0
  2079                           ;car_black_box.c: 297:             view_flag = 0;
  2080   001422  0E00               	movlw	0
  2081   001424  6FAA               	movwf	(_view_flag+1)& (0+255),b
  2082   001426  0E00               	movlw	0
  2083   001428  6FA9               	movwf	_view_flag& (0+255),b
  2084   00142A  EF9A  F009         	goto	l265
  2085   00142E                     l3275:
  2086                           
  2087                           ;car_black_box.c: 302:     address = 0x00 + (16 * (count_event % total_index));
  2088   00142E  C043  F001         	movff	_count_event,___lwmod@dividend
  2089   001432  C044  F002         	movff	_count_event+1,___lwmod@dividend+1
  2090   001436  C057  F003         	movff	_total_index,___lwmod@divisor
  2091   00143A  6A04               	clrf	(___lwmod@divisor+1)^0,c
  2092   00143C  EC28  F00F         	call	___lwmod	;wreg free
  2093   001440  3A01               	swapf	?___lwmod^0,f,c
  2094   001442  3A02               	swapf	(?___lwmod+1)^0,f,c
  2095   001444  0EF0               	movlw	240
  2096   001446  1602               	andwf	(?___lwmod+1)^0,f,c
  2097   001448  5001               	movf	?___lwmod^0,w,c
  2098   00144A  0B0F               	andlw	15
  2099   00144C  1202               	iorwf	(?___lwmod+1)^0,f,c
  2100   00144E  0EF0               	movlw	240
  2101   001450  1601               	andwf	?___lwmod^0,f,c
  2102   001452  C001  F0A7         	movff	?___lwmod,_address
  2103   001456  C002  F0A8         	movff	?___lwmod+1,_address+1
  2104   00145A                     
  2105                           ;car_black_box.c: 303:     for (int i = 0; i < 16; i++) {
  2106   00145A  0E00               	movlw	0
  2107   00145C  6E0D               	movwf	(view_log@i+1)^0,c
  2108   00145E  0E00               	movlw	0
  2109   001460  6E0C               	movwf	view_log@i^0,c
  2110   001462                     l3283:
  2111                           
  2112                           ;car_black_box.c: 304:         view_event[i] = read_external_eeprom(address + i);
  2113   001462  0EB2               	movlw	low _view_event
  2114   001464  240C               	addwf	view_log@i^0,w,c
  2115   001466  6ED9               	movwf	fsr2l,c
  2116   001468  0E00               	movlw	high _view_event
  2117   00146A  200D               	addwfc	(view_log@i+1)^0,w,c
  2118   00146C  6EDA               	movwf	fsr2h,c
  2119   00146E  500C               	movf	view_log@i^0,w,c
  2120   001470  0100               	movlb	0	; () banked
  2121   001472  25A7               	addwf	_address& (0+255),w,b
  2122   001474  EC9B  F010         	call	_read_external_eeprom
  2123   001478  6EDF               	movwf	indf2,c
  2124   00147A                     
  2125                           ;car_black_box.c: 305:     }
  2126   00147A  4A0C               	infsnz	view_log@i^0,f,c
  2127   00147C  2A0D               	incf	(view_log@i+1)^0,f,c
  2128   00147E  BE0D               	btfsc	(view_log@i+1)^0,7,c
  2129   001480  EF4B  F00A         	goto	u2881
  2130   001484  500D               	movf	(view_log@i+1)^0,w,c
  2131   001486  E109               	bnz	u2880
  2132   001488  0E10               	movlw	16
  2133   00148A  5C0C               	subwf	view_log@i^0,w,c
  2134   00148C  A0D8               	btfss	status,0,c
  2135   00148E  EF4B  F00A         	goto	u2881
  2136   001492  EF4D  F00A         	goto	u2880
  2137   001496                     u2881:
  2138   001496  EF31  F00A         	goto	l3283
  2139   00149A                     u2880:
  2140   00149A                     
  2141                           ;car_black_box.c: 306:     view_event[16] = '\0';
  2142   00149A  0E00               	movlw	0
  2143   00149C  0100               	movlb	0	; () banked
  2144   00149E  6FC2               	movwf	(_view_event+16)& (0+255),b
  2145   0014A0                     
  2146                           ; BSR set to: 0
  2147                           ;car_black_box.c: 307:     clcd_print(view_event, (0xC0 + (0)));
  2148   0014A0  0EB2               	movlw	low _view_event
  2149   0014A2  6E03               	movwf	clcd_print@data^0,c
  2150   0014A4  0E00               	movlw	high _view_event
  2151   0014A6  6E04               	movwf	(clcd_print@data+1)^0,c
  2152   0014A8  0EC0               	movlw	192
  2153   0014AA  6E05               	movwf	clcd_print@addr^0,c
  2154   0014AC  ECBF  F00E         	call	_clcd_print	;wreg free
  2155   0014B0                     l269:
  2156   0014B0  0012               	return		;funcret
  2157   0014B2                     __end_of_view_log:
  2158                           	callstack 0
  2159                           
  2160 ;; *************** function _read_external_eeprom *****************
  2161 ;; Defined at:
  2162 ;;		line 23 in file "ext_eeprom.c"
  2163 ;; Parameters:    Size  Location     Type
  2164 ;;  address         1    wreg     unsigned char 
  2165 ;; Auto vars:     Size  Location     Type
  2166 ;;  address         1    1[COMRAM] unsigned char 
  2167 ;;  data            1    2[COMRAM] unsigned char 
  2168 ;; Return value:  Size  Location     Type
  2169 ;;                  1    wreg      unsigned char 
  2170 ;; Registers used:
  2171 ;;		wreg, status,2, cstack
  2172 ;; Tracked objects:
  2173 ;;		On entry : 0/0
  2174 ;;		On exit  : 0/0
  2175 ;;		Unchanged: 0/0
  2176 ;; Data sizes:     COMRAM   BANK0   BANK1   BANK2   BANK3   BANK4   BANK5
  2177 ;;      Params:         0       0       0       0       0       0       0
  2178 ;;      Locals:         2       0       0       0       0       0       0
  2179 ;;      Temps:          0       0       0       0       0       0       0
  2180 ;;      Totals:         2       0       0       0       0       0       0
  2181 ;;Total ram usage:        2 bytes
  2182 ;; Hardware stack levels used: 1
  2183 ;; Hardware stack levels required when called: 4
  2184 ;; This function calls:
  2185 ;;		_i2c_read
  2186 ;;		_i2c_rep_start
  2187 ;;		_i2c_start
  2188 ;;		_i2c_stop
  2189 ;;		_i2c_write
  2190 ;; This function is called by:
  2191 ;;		_main
  2192 ;;		_view_log
  2193 ;; This function uses a non-reentrant model
  2194 ;;
  2195                           
  2196                           	psect	text2
  2197   002136                     __ptext2:
  2198                           	callstack 0
  2199   002136                     _read_external_eeprom:
  2200                           	callstack 25
  2201                           
  2202                           ;incstack = 0
  2203                           ;read_external_eeprom@address stored from wreg
  2204   002136  6E02               	movwf	read_external_eeprom@address^0,c
  2205   002138                     
  2206                           ;ext_eeprom.c: 23: unsigned char read_external_eeprom(unsigned char address);ext_eeprom.
      +                          c: 24: {;ext_eeprom.c: 25:  unsigned char data;;ext_eeprom.c: 27:  i2c_start();
  2207   002138  EC39  F011         	call	_i2c_start	;wreg free
  2208   00213C                     
  2209                           ;ext_eeprom.c: 28:  i2c_write(0xA0);
  2210   00213C  0EA0               	movlw	160
  2211   00213E  EC23  F011         	call	_i2c_write
  2212   002142                     
  2213                           ;ext_eeprom.c: 29:  i2c_write(address);
  2214   002142  5002               	movf	read_external_eeprom@address^0,w,c
  2215   002144  EC23  F011         	call	_i2c_write
  2216   002148                     
  2217                           ;ext_eeprom.c: 30:  i2c_rep_start();
  2218   002148  EC2D  F011         	call	_i2c_rep_start	;wreg free
  2219   00214C                     
  2220                           ;ext_eeprom.c: 31:  i2c_write(0xA1);
  2221   00214C  0EA1               	movlw	161
  2222   00214E  EC23  F011         	call	_i2c_write
  2223                           
  2224                           ;ext_eeprom.c: 32:  data = i2c_read();
  2225   002152  EC1D  F011         	call	_i2c_read	;wreg free
  2226   002156  6E03               	movwf	read_external_eeprom@data^0,c
  2227   002158                     
  2228                           ;ext_eeprom.c: 33:  i2c_stop();
  2229   002158  EC35  F011         	call	_i2c_stop	;wreg free
  2230                           
  2231                           ;ext_eeprom.c: 35:  return data;
  2232   00215C  5003               	movf	read_external_eeprom@data^0,w,c
  2233   00215E  0012               	return		;funcret
  2234   002160                     __end_of_read_external_eeprom:
  2235                           	callstack 0
  2236                           
  2237 ;; *************** function _set_time *****************
  2238 ;; Defined at:
  2239 ;;		line 312 in file "car_black_box.c"
  2240 ;; Parameters:    Size  Location     Type
  2241 ;;  key             1    wreg     unsigned char 
  2242 ;; Auto vars:     Size  Location     Type
  2243 ;;  key             1    0[COMRAM] unsigned char 
  2244 ;; Return value:  Size  Location     Type
  2245 ;;                  1    wreg      void 
  2246 ;; Registers used:
  2247 ;;		wreg
  2248 ;; Tracked objects:
  2249 ;;		On entry : 0/0
  2250 ;;		On exit  : 0/0
  2251 ;;		Unchanged: 0/0
  2252 ;; Data sizes:     COMRAM   BANK0   BANK1   BANK2   BANK3   BANK4   BANK5
  2253 ;;      Params:         0       0       0       0       0       0       0
  2254 ;;      Locals:         0       0       0       0       0       0       0
  2255 ;;      Temps:          0       0       0       0       0       0       0
  2256 ;;      Totals:         0       0       0       0       0       0       0
  2257 ;;Total ram usage:        0 bytes
  2258 ;; Hardware stack levels used: 1
  2259 ;; Hardware stack levels required when called: 1
  2260 ;; This function calls:
  2261 ;;		Nothing
  2262 ;; This function is called by:
  2263 ;;		_main
  2264 ;; This function uses a non-reentrant model
  2265 ;;
  2266                           
  2267                           	psect	text3
  2268   002284                     __ptext3:
  2269                           	callstack 0
  2270   002284                     _set_time:
  2271                           	callstack 29
  2272   002284  0012               	return		;funcret
  2273   002286                     __end_of_set_time:
  2274                           	callstack 0
  2275                           
  2276 ;; *************** function _read_switches *****************
  2277 ;; Defined at:
  2278 ;;		line 18 in file "mkp.c"
  2279 ;; Parameters:    Size  Location     Type
  2280 ;;  detection       1    wreg     unsigned char 
  2281 ;; Auto vars:     Size  Location     Type
  2282 ;;  detection       1    0[COMRAM] unsigned char 
  2283 ;;  key             1    1[COMRAM] unsigned char 
  2284 ;; Return value:  Size  Location     Type
  2285 ;;                  1    wreg      unsigned char 
  2286 ;; Registers used:
  2287 ;;		wreg, status,2, status,0, cstack
  2288 ;; Tracked objects:
  2289 ;;		On entry : 0/0
  2290 ;;		On exit  : 0/0
  2291 ;;		Unchanged: 0/0
  2292 ;; Data sizes:     COMRAM   BANK0   BANK1   BANK2   BANK3   BANK4   BANK5
  2293 ;;      Params:         0       0       0       0       0       0       0
  2294 ;;      Locals:         2       0       0       0       0       0       0
  2295 ;;      Temps:          0       0       0       0       0       0       0
  2296 ;;      Totals:         2       0       0       0       0       0       0
  2297 ;;Total ram usage:        2 bytes
  2298 ;; Hardware stack levels used: 1
  2299 ;; Hardware stack levels required when called: 2
  2300 ;; This function calls:
  2301 ;;		_scan_key
  2302 ;; This function is called by:
  2303 ;;		_main
  2304 ;; This function uses a non-reentrant model
  2305 ;;
  2306                           
  2307                           	psect	text4
  2308   001D0C                     __ptext4:
  2309                           	callstack 0
  2310   001D0C                     _read_switches:
  2311                           	callstack 28
  2312                           
  2313                           ;incstack = 0
  2314                           ;read_switches@detection stored from wreg
  2315   001D0C  6E01               	movwf	read_switches@detection^0,c
  2316   001D0E                     
  2317                           ;mkp.c: 19:     static unsigned char once = 1;;mkp.c: 20:     unsigned char key;;mkp.c: 
      +                          21:     if (detection == 0) {
  2318   001D0E  5001               	movf	read_switches@detection^0,w,c
  2319   001D10  A4D8               	btfss	status,2,c
  2320   001D12  EF8D  F00E         	goto	u2301
  2321   001D16  EF8F  F00E         	goto	u2300
  2322   001D1A                     u2301:
  2323   001D1A  EF93  F00E         	goto	l2993
  2324   001D1E                     u2300:
  2325   001D1E                     
  2326                           ;mkp.c: 22:         return scan_key();
  2327   001D1E  ECFC  F00B         	call	_scan_key	;wreg free
  2328   001D22  EFBE  F00E         	goto	l352
  2329   001D26                     l2993:
  2330   001D26  0401               	decf	read_switches@detection^0,w,c
  2331   001D28  A4D8               	btfss	status,2,c
  2332   001D2A  EF99  F00E         	goto	u2311
  2333   001D2E  EF9B  F00E         	goto	u2310
  2334   001D32                     u2311:
  2335   001D32  EFBE  F00E         	goto	l352
  2336   001D36                     u2310:
  2337   001D36                     
  2338                           ;mkp.c: 24:         key = scan_key();
  2339   001D36  ECFC  F00B         	call	_scan_key	;wreg free
  2340   001D3A  6E02               	movwf	read_switches@key^0,c
  2341   001D3C                     
  2342                           ;mkp.c: 25:         if ((key != 0xFF) && once) {
  2343   001D3C  2802               	incf	read_switches@key^0,w,c
  2344   001D3E  B4D8               	btfsc	status,2,c
  2345   001D40  EFA4  F00E         	goto	u2321
  2346   001D44  EFA6  F00E         	goto	u2320
  2347   001D48                     u2321:
  2348   001D48  EFB3  F00E         	goto	l3007
  2349   001D4C                     u2320:
  2350   001D4C  505B               	movf	read_switches@once^0,w,c
  2351   001D4E  B4D8               	btfsc	status,2,c
  2352   001D50  EFAC  F00E         	goto	u2331
  2353   001D54  EFAE  F00E         	goto	u2330
  2354   001D58                     u2331:
  2355   001D58  EFB3  F00E         	goto	l3007
  2356   001D5C                     u2330:
  2357   001D5C                     
  2358                           ;mkp.c: 26:             once = 0;
  2359   001D5C  0E00               	movlw	0
  2360   001D5E  6E5B               	movwf	read_switches@once^0,c
  2361                           
  2362                           ;mkp.c: 27:             return key;
  2363   001D60  5002               	movf	read_switches@key^0,w,c
  2364   001D62  EFBE  F00E         	goto	l352
  2365   001D66                     l3007:
  2366   001D66  2802               	incf	read_switches@key^0,w,c
  2367   001D68  A4D8               	btfss	status,2,c
  2368   001D6A  EFB9  F00E         	goto	u2341
  2369   001D6E  EFBB  F00E         	goto	u2340
  2370   001D72                     u2341:
  2371   001D72  EFBD  F00E         	goto	l3011
  2372   001D76                     u2340:
  2373   001D76                     
  2374                           ;mkp.c: 29:             once = 1;
  2375   001D76  0E01               	movlw	1
  2376   001D78  6E5B               	movwf	read_switches@once^0,c
  2377   001D7A                     l3011:
  2378                           
  2379                           ;mkp.c: 30:         return 0xFF;
  2380   001D7A  0EFF               	movlw	255
  2381   001D7C                     l352:
  2382   001D7C  0012               	return		;funcret
  2383   001D7E                     __end_of_read_switches:
  2384                           	callstack 0
  2385                           
  2386 ;; *************** function _scan_key *****************
  2387 ;; Defined at:
  2388 ;;		line 34 in file "mkp.c"
  2389 ;; Parameters:    Size  Location     Type
  2390 ;;		None
  2391 ;; Auto vars:     Size  Location     Type
  2392 ;;		None
  2393 ;; Return value:  Size  Location     Type
  2394 ;;                  1    wreg      unsigned char 
  2395 ;; Registers used:
  2396 ;;		wreg
  2397 ;; Tracked objects:
  2398 ;;		On entry : 0/0
  2399 ;;		On exit  : 0/0
  2400 ;;		Unchanged: 0/0
  2401 ;; Data sizes:     COMRAM   BANK0   BANK1   BANK2   BANK3   BANK4   BANK5
  2402 ;;      Params:         0       0       0       0       0       0       0
  2403 ;;      Locals:         0       0       0       0       0       0       0
  2404 ;;      Temps:          0       0       0       0       0       0       0
  2405 ;;      Totals:         0       0       0       0       0       0       0
  2406 ;;Total ram usage:        0 bytes
  2407 ;; Hardware stack levels used: 1
  2408 ;; Hardware stack levels required when called: 1
  2409 ;; This function calls:
  2410 ;;		Nothing
  2411 ;; This function is called by:
  2412 ;;		_read_switches
  2413 ;; This function uses a non-reentrant model
  2414 ;;
  2415                           
  2416                           	psect	text5
  2417   0017F8                     __ptext5:
  2418                           	callstack 0
  2419   0017F8                     _scan_key:
  2420                           	callstack 28
  2421   0017F8                     
  2422                           ;mkp.c: 35:     RB5 = 0;
  2423   0017F8  9A81               	bcf	3969,5,c	;volatile
  2424                           
  2425                           ;mkp.c: 36:     RB6 = 1;
  2426   0017FA  8C81               	bsf	3969,6,c	;volatile
  2427                           
  2428                           ;mkp.c: 37:     RB7 = 1;
  2429   0017FC  8E81               	bsf	3969,7,c	;volatile
  2430                           
  2431                           ;mkp.c: 39:     if (RB1 == 0)
  2432   0017FE  B281               	btfsc	3969,1,c	;volatile
  2433   001800  EF04  F00C         	goto	u2101
  2434   001804  EF06  F00C         	goto	u2100
  2435   001808                     u2101:
  2436   001808  EF09  F00C         	goto	l360
  2437   00180C                     u2100:
  2438   00180C                     
  2439                           ;mkp.c: 40:         return 1;
  2440   00180C  0E01               	movlw	1
  2441   00180E  EF7F  F00C         	goto	l361
  2442   001812                     l360:
  2443   001812  B481               	btfsc	3969,2,c	;volatile
  2444   001814  EF0E  F00C         	goto	u2111
  2445   001818  EF10  F00C         	goto	u2110
  2446   00181C                     u2111:
  2447   00181C  EF13  F00C         	goto	l363
  2448   001820                     u2110:
  2449   001820                     
  2450                           ;mkp.c: 42:         return 4;
  2451   001820  0E04               	movlw	4
  2452   001822  EF7F  F00C         	goto	l361
  2453   001826                     l363:
  2454   001826  B681               	btfsc	3969,3,c	;volatile
  2455   001828  EF18  F00C         	goto	u2121
  2456   00182C  EF1A  F00C         	goto	u2120
  2457   001830                     u2121:
  2458   001830  EF1D  F00C         	goto	l365
  2459   001834                     u2120:
  2460   001834                     
  2461                           ;mkp.c: 44:         return 7;
  2462   001834  0E07               	movlw	7
  2463   001836  EF7F  F00C         	goto	l361
  2464   00183A                     l365:
  2465   00183A  B881               	btfsc	3969,4,c	;volatile
  2466   00183C  EF22  F00C         	goto	u2131
  2467   001840  EF24  F00C         	goto	u2130
  2468   001844                     u2131:
  2469   001844  EF27  F00C         	goto	l362
  2470   001848                     u2130:
  2471   001848                     
  2472                           ;mkp.c: 46:         return 10;
  2473   001848  0E0A               	movlw	10
  2474   00184A  EF7F  F00C         	goto	l361
  2475   00184E                     l362:
  2476                           
  2477                           ;mkp.c: 48:     RB5 = 1;
  2478   00184E  8A81               	bsf	3969,5,c	;volatile
  2479                           
  2480                           ;mkp.c: 49:     RB6 = 0;
  2481   001850  9C81               	bcf	3969,6,c	;volatile
  2482                           
  2483                           ;mkp.c: 50:     RB7 = 1;
  2484   001852  8E81               	bsf	3969,7,c	;volatile
  2485                           
  2486                           ;mkp.c: 52:     if (RB1 == 0)
  2487   001854  B281               	btfsc	3969,1,c	;volatile
  2488   001856  EF2F  F00C         	goto	u2141
  2489   00185A  EF31  F00C         	goto	u2140
  2490   00185E                     u2141:
  2491   00185E  EF34  F00C         	goto	l368
  2492   001862                     u2140:
  2493   001862                     
  2494                           ;mkp.c: 53:         return 2;
  2495   001862  0E02               	movlw	2
  2496   001864  EF7F  F00C         	goto	l361
  2497   001868                     l368:
  2498   001868  B481               	btfsc	3969,2,c	;volatile
  2499   00186A  EF39  F00C         	goto	u2151
  2500   00186E  EF3B  F00C         	goto	u2150
  2501   001872                     u2151:
  2502   001872  EF3E  F00C         	goto	l370
  2503   001876                     u2150:
  2504   001876                     
  2505                           ;mkp.c: 55:         return 5;
  2506   001876  0E05               	movlw	5
  2507   001878  EF7F  F00C         	goto	l361
  2508   00187C                     l370:
  2509   00187C  B681               	btfsc	3969,3,c	;volatile
  2510   00187E  EF43  F00C         	goto	u2161
  2511   001882  EF45  F00C         	goto	u2160
  2512   001886                     u2161:
  2513   001886  EF48  F00C         	goto	l372
  2514   00188A                     u2160:
  2515   00188A                     
  2516                           ;mkp.c: 57:         return 8;
  2517   00188A  0E08               	movlw	8
  2518   00188C  EF7F  F00C         	goto	l361
  2519   001890                     l372:
  2520   001890  B881               	btfsc	3969,4,c	;volatile
  2521   001892  EF4D  F00C         	goto	u2171
  2522   001896  EF4F  F00C         	goto	u2170
  2523   00189A                     u2171:
  2524   00189A  EF52  F00C         	goto	l369
  2525   00189E                     u2170:
  2526   00189E                     
  2527                           ;mkp.c: 59:         return 11;
  2528   00189E  0E0B               	movlw	11
  2529   0018A0  EF7F  F00C         	goto	l361
  2530   0018A4                     l369:
  2531                           
  2532                           ;mkp.c: 61:     RB5 = 1;
  2533   0018A4  8A81               	bsf	3969,5,c	;volatile
  2534                           
  2535                           ;mkp.c: 62:     RB6 = 1;
  2536   0018A6  8C81               	bsf	3969,6,c	;volatile
  2537                           
  2538                           ;mkp.c: 63:     RB7 = 0;
  2539   0018A8  9E81               	bcf	3969,7,c	;volatile
  2540                           
  2541                           ;mkp.c: 64:     RB7 = 0;
  2542   0018AA  9E81               	bcf	3969,7,c	;volatile
  2543                           
  2544                           ;mkp.c: 66:     if (RB1 == 0)
  2545   0018AC  B281               	btfsc	3969,1,c	;volatile
  2546   0018AE  EF5B  F00C         	goto	u2181
  2547   0018B2  EF5D  F00C         	goto	u2180
  2548   0018B6                     u2181:
  2549   0018B6  EF60  F00C         	goto	l375
  2550   0018BA                     u2180:
  2551   0018BA                     
  2552                           ;mkp.c: 67:         return 3;
  2553   0018BA  0E03               	movlw	3
  2554   0018BC  EF7F  F00C         	goto	l361
  2555   0018C0                     l375:
  2556   0018C0  B481               	btfsc	3969,2,c	;volatile
  2557   0018C2  EF65  F00C         	goto	u2191
  2558   0018C6  EF67  F00C         	goto	u2190
  2559   0018CA                     u2191:
  2560   0018CA  EF6A  F00C         	goto	l377
  2561   0018CE                     u2190:
  2562   0018CE                     
  2563                           ;mkp.c: 69:         return 6;
  2564   0018CE  0E06               	movlw	6
  2565   0018D0  EF7F  F00C         	goto	l361
  2566   0018D4                     l377:
  2567   0018D4  B681               	btfsc	3969,3,c	;volatile
  2568   0018D6  EF6F  F00C         	goto	u2201
  2569   0018DA  EF71  F00C         	goto	u2200
  2570   0018DE                     u2201:
  2571   0018DE  EF74  F00C         	goto	l379
  2572   0018E2                     u2200:
  2573   0018E2                     
  2574                           ;mkp.c: 71:         return 9;
  2575   0018E2  0E09               	movlw	9
  2576   0018E4  EF7F  F00C         	goto	l361
  2577   0018E8                     l379:
  2578   0018E8  B881               	btfsc	3969,4,c	;volatile
  2579   0018EA  EF79  F00C         	goto	u2211
  2580   0018EE  EF7B  F00C         	goto	u2210
  2581   0018F2                     u2211:
  2582   0018F2  EF7E  F00C         	goto	l378
  2583   0018F6                     u2210:
  2584   0018F6                     
  2585                           ;mkp.c: 73:         return 12;
  2586   0018F6  0E0C               	movlw	12
  2587   0018F8  EF7F  F00C         	goto	l361
  2588   0018FC                     l378:
  2589   0018FC                     
  2590                           ;mkp.c: 75:     return 0xFF;
  2591   0018FC  0EFF               	movlw	255
  2592   0018FE                     l361:
  2593   0018FE  0012               	return		;funcret
  2594   001900                     __end_of_scan_key:
  2595                           	callstack 0
  2596                           
  2597 ;; *************** function _read_password *****************
  2598 ;; Defined at:
  2599 ;;		line 117 in file "car_black_box.c"
  2600 ;; Parameters:    Size  Location     Type
  2601 ;;  key             1    wreg     unsigned char 
  2602 ;; Auto vars:     Size  Location     Type
  2603 ;;  key             1   11[COMRAM] unsigned char 
  2604 ;; Return value:  Size  Location     Type
  2605 ;;                  1    wreg      void 
  2606 ;; Registers used:
  2607 ;;		wreg, fsr1l, fsr1h, fsr2l, fsr2h, status,2, status,0, tblptrl, tblptrh, tblptru, cstack
  2608 ;; Tracked objects:
  2609 ;;		On entry : 0/0
  2610 ;;		On exit  : 0/0
  2611 ;;		Unchanged: 0/0
  2612 ;; Data sizes:     COMRAM   BANK0   BANK1   BANK2   BANK3   BANK4   BANK5
  2613 ;;      Params:         0       0       0       0       0       0       0
  2614 ;;      Locals:         1       0       0       0       0       0       0
  2615 ;;      Temps:          2       0       0       0       0       0       0
  2616 ;;      Totals:         3       0       0       0       0       0       0
  2617 ;;Total ram usage:        3 bytes
  2618 ;; Hardware stack levels used: 1
  2619 ;; Hardware stack levels required when called: 3
  2620 ;; This function calls:
  2621 ;;		___lwdiv
  2622 ;;		___lwmod
  2623 ;;		_clcd_print
  2624 ;;		_clcd_putch
  2625 ;;		_validate_password
  2626 ;; This function is called by:
  2627 ;;		_main
  2628 ;; This function uses a non-reentrant model
  2629 ;;
  2630                           
  2631                           	psect	text6
  2632   000F64                     __ptext6:
  2633                           	callstack 0
  2634   000F64                     _read_password:
  2635                           	callstack 27
  2636                           
  2637                           ;incstack = 0
  2638                           ;read_password@key stored from wreg
  2639   000F64  6E0C               	movwf	read_password@key^0,c
  2640   000F66                     
  2641                           ;car_black_box.c: 118:     clcd_print(" Enter password ", (0x80 + (0)));
  2642   000F66  0E0C               	movlw	low STR_19
  2643   000F68  6E03               	movwf	clcd_print@data^0,c
  2644   000F6A  0E2F               	movlw	high STR_19
  2645   000F6C  6E04               	movwf	(clcd_print@data+1)^0,c
  2646   000F6E  0E80               	movlw	128
  2647   000F70  6E05               	movwf	clcd_print@addr^0,c
  2648   000F72  ECBF  F00E         	call	_clcd_print	;wreg free
  2649   000F76                     
  2650                           ;car_black_box.c: 119:     if (key == 11) {
  2651   000F76  0E0B               	movlw	11
  2652   000F78  180C               	xorwf	read_password@key^0,w,c
  2653   000F7A  A4D8               	btfss	status,2,c
  2654   000F7C  EFC2  F007         	goto	u2381
  2655   000F80  EFC4  F007         	goto	u2380
  2656   000F84                     u2381:
  2657   000F84  EFDA  F007         	goto	l3039
  2658   000F88                     u2380:
  2659   000F88                     
  2660                           ;car_black_box.c: 120:         enter_password[index] = '1';
  2661   000F88  0EC8               	movlw	low _enter_password
  2662   000F8A  244F               	addwf	_index^0,w,c
  2663   000F8C  6ED9               	movwf	fsr2l,c
  2664   000F8E  0E00               	movlw	high _enter_password
  2665   000F90  2050               	addwfc	(_index+1)^0,w,c
  2666   000F92  6EDA               	movwf	fsr2h,c
  2667   000F94  0E31               	movlw	49
  2668   000F96  6EDF               	movwf	indf2,c
  2669   000F98                     
  2670                           ;car_black_box.c: 121:         clcd_putch('*', (0xC0 + (index + 3)));
  2671   000F98  504F               	movf	_index^0,w,c
  2672   000F9A  0FC3               	addlw	195
  2673   000F9C  6E08               	movwf	clcd_putch@addr^0,c
  2674   000F9E  0E2A               	movlw	42
  2675   000FA0  ECFD  F010         	call	_clcd_putch
  2676   000FA4                     l3035:
  2677                           
  2678                           ;car_black_box.c: 122:         sec = 0;
  2679   000FA4  0E00               	movlw	0
  2680   000FA6  6E54               	movwf	(_sec+1)^0,c
  2681   000FA8  0E00               	movlw	0
  2682   000FAA  6E53               	movwf	_sec^0,c
  2683   000FAC                     
  2684                           ;car_black_box.c: 123:         index++;
  2685   000FAC  4A4F               	infsnz	_index^0,f,c
  2686   000FAE  2A50               	incf	(_index+1)^0,f,c
  2687                           
  2688                           ;car_black_box.c: 124:     } else if (key == 12) {
  2689   000FB0  EFF3  F007         	goto	l3049
  2690   000FB4                     l3039:
  2691   000FB4  0E0C               	movlw	12
  2692   000FB6  180C               	xorwf	read_password@key^0,w,c
  2693   000FB8  A4D8               	btfss	status,2,c
  2694   000FBA  EFE1  F007         	goto	u2391
  2695   000FBE  EFE3  F007         	goto	u2390
  2696   000FC2                     u2391:
  2697   000FC2  EFF3  F007         	goto	l3049
  2698   000FC6                     u2390:
  2699   000FC6                     
  2700                           ;car_black_box.c: 125:         enter_password[index] = '0';
  2701   000FC6  0EC8               	movlw	low _enter_password
  2702   000FC8  244F               	addwf	_index^0,w,c
  2703   000FCA  6ED9               	movwf	fsr2l,c
  2704   000FCC  0E00               	movlw	high _enter_password
  2705   000FCE  2050               	addwfc	(_index+1)^0,w,c
  2706   000FD0  6EDA               	movwf	fsr2h,c
  2707   000FD2  0E30               	movlw	48
  2708   000FD4  6EDF               	movwf	indf2,c
  2709   000FD6                     
  2710                           ;car_black_box.c: 126:         clcd_putch('*', (0xC0 + (index + 3)));
  2711   000FD6  504F               	movf	_index^0,w,c
  2712   000FD8  0FC3               	addlw	195
  2713   000FDA  6E08               	movwf	clcd_putch@addr^0,c
  2714   000FDC  0E2A               	movlw	42
  2715   000FDE  ECFD  F010         	call	_clcd_putch
  2716   000FE2  EFD2  F007         	goto	l3035
  2717   000FE6                     l3049:
  2718                           
  2719                           ;car_black_box.c: 130:     if (sec == 5) {
  2720   000FE6  0E05               	movlw	5
  2721   000FE8  1853               	xorwf	_sec^0,w,c
  2722   000FEA  1054               	iorwf	(_sec+1)^0,w,c
  2723   000FEC  A4D8               	btfss	status,2,c
  2724   000FEE  EFFB  F007         	goto	u2401
  2725   000FF2  EFFD  F007         	goto	u2400
  2726   000FF6                     u2401:
  2727   000FF6  EF07  F008         	goto	l3055
  2728   000FFA                     u2400:
  2729   000FFA                     
  2730                           ;car_black_box.c: 131:         enter_flag = 0;
  2731   000FFA  0E00               	movlw	0
  2732   000FFC  6E58               	movwf	_enter_flag^0,c
  2733                           
  2734                           ;car_black_box.c: 132:         index = 0;
  2735   000FFE  0E00               	movlw	0
  2736   001000  6E50               	movwf	(_index+1)^0,c
  2737   001002  0E00               	movlw	0
  2738   001004  6E4F               	movwf	_index^0,c
  2739                           
  2740                           ;car_black_box.c: 133:         attempt = '3';
  2741   001006  0E33               	movlw	51
  2742   001008  6E5C               	movwf	_attempt^0,c
  2743   00100A  EF20  F009         	goto	l211
  2744   00100E                     l3055:
  2745                           
  2746                           ;car_black_box.c: 136:     if (wait++ < 800) {
  2747   00100E  504D               	movf	_wait^0,w,c
  2748   001010  6E0A               	movwf	??_read_password^0,c
  2749   001012  504E               	movf	(_wait+1)^0,w,c
  2750   001014  6E0B               	movwf	(??_read_password+1)^0,c
  2751   001016  4A4D               	infsnz	_wait^0,f,c
  2752   001018  2A4E               	incf	(_wait+1)^0,f,c
  2753   00101A  0E20               	movlw	32
  2754   00101C  5C0A               	subwf	??_read_password^0,w,c
  2755   00101E  0E03               	movlw	3
  2756   001020  580B               	subwfb	(??_read_password+1)^0,w,c
  2757   001022  B0D8               	btfsc	status,0,c
  2758   001024  EF16  F008         	goto	u2411
  2759   001028  EF18  F008         	goto	u2410
  2760   00102C                     u2411:
  2761   00102C  EF20  F008         	goto	l3059
  2762   001030                     u2410:
  2763   001030                     
  2764                           ;car_black_box.c: 137:         clcd_putch('_', (0xC0 + (index + 3)));
  2765   001030  504F               	movf	_index^0,w,c
  2766   001032  0FC3               	addlw	195
  2767   001034  6E08               	movwf	clcd_putch@addr^0,c
  2768   001036  0E5F               	movlw	95
  2769   001038  ECFD  F010         	call	_clcd_putch
  2770                           
  2771                           ;car_black_box.c: 138:     } else if (wait > 800) {
  2772   00103C  EF41  F008         	goto	l3067
  2773   001040                     l3059:
  2774   001040  0E21               	movlw	33
  2775   001042  5C4D               	subwf	_wait^0,w,c
  2776   001044  0E03               	movlw	3
  2777   001046  584E               	subwfb	(_wait+1)^0,w,c
  2778   001048  A0D8               	btfss	status,0,c
  2779   00104A  EF29  F008         	goto	u2421
  2780   00104E  EF2B  F008         	goto	u2420
  2781   001052                     u2421:
  2782   001052  EF41  F008         	goto	l3067
  2783   001056                     u2420:
  2784   001056                     
  2785                           ;car_black_box.c: 139:         clcd_putch(' ', (0xC0 + (index + 3)));
  2786   001056  504F               	movf	_index^0,w,c
  2787   001058  0FC3               	addlw	195
  2788   00105A  6E08               	movwf	clcd_putch@addr^0,c
  2789   00105C  0E20               	movlw	32
  2790   00105E  ECFD  F010         	call	_clcd_putch
  2791   001062                     
  2792                           ;car_black_box.c: 140:         if (wait == 1600)
  2793   001062  0E40               	movlw	64
  2794   001064  184D               	xorwf	_wait^0,w,c
  2795   001066  E107               	bnz	u2431
  2796   001068  0E06               	movlw	6
  2797   00106A  184E               	xorwf	(_wait+1)^0,w,c
  2798   00106C  A4D8               	btfss	status,2,c
  2799   00106E  EF3B  F008         	goto	u2431
  2800   001072  EF3D  F008         	goto	u2430
  2801   001076                     u2431:
  2802   001076  EF41  F008         	goto	l3067
  2803   00107A                     u2430:
  2804   00107A                     
  2805                           ;car_black_box.c: 141:             wait = 0;
  2806   00107A  0E00               	movlw	0
  2807   00107C  6E4E               	movwf	(_wait+1)^0,c
  2808   00107E  0E00               	movlw	0
  2809   001080  6E4D               	movwf	_wait^0,c
  2810   001082                     l3067:
  2811                           
  2812                           ;car_black_box.c: 143:     if (index == 4) {
  2813   001082  0E04               	movlw	4
  2814   001084  184F               	xorwf	_index^0,w,c
  2815   001086  1050               	iorwf	(_index+1)^0,w,c
  2816   001088  A4D8               	btfss	status,2,c
  2817   00108A  EF49  F008         	goto	u2441
  2818   00108E  EF4B  F008         	goto	u2440
  2819   001092                     u2441:
  2820   001092  EF20  F009         	goto	l211
  2821   001096                     u2440:
  2822   001096                     
  2823                           ;car_black_box.c: 144:         _delay((unsigned long)((300)*(20000000/4000.0)));
  2824   001096  0E08               	movlw	8
  2825   001098  6E0B               	movwf	(??_read_password+1)^0,c
  2826   00109A  0E9D               	movlw	157
  2827   00109C  6E0A               	movwf	??_read_password^0,c
  2828   00109E  0E06               	movlw	6
  2829   0010A0                     u3667:
  2830   0010A0  2EE8               	decfsz	wreg,f,c
  2831   0010A2  D7FE               	bra	u3667
  2832   0010A4  2E0A               	decfsz	??_read_password^0,f,c
  2833   0010A6  D7FC               	bra	u3667
  2834   0010A8  2E0B               	decfsz	(??_read_password+1)^0,f,c
  2835   0010AA  D7FA               	bra	u3667
  2836   0010AC                     
  2837                           ;car_black_box.c: 145:         attempt--;
  2838   0010AC  065C               	decf	_attempt^0,f,c
  2839   0010AE                     
  2840                           ;car_black_box.c: 146:         index = 0;
  2841   0010AE  0E00               	movlw	0
  2842   0010B0  6E50               	movwf	(_index+1)^0,c
  2843   0010B2  0E00               	movlw	0
  2844   0010B4  6E4F               	movwf	_index^0,c
  2845   0010B6                     
  2846                           ;car_black_box.c: 147:         if (validate_password(original_password, enter_password) 
      +                          != 0) {
  2847   0010B6  0E95               	movlw	low _original_password
  2848   0010B8  6E01               	movwf	validate_password@original_password^0,c
  2849   0010BA  0E00               	movlw	high _original_password
  2850   0010BC  6E02               	movwf	(validate_password@original_password+1)^0,c
  2851   0010BE  0EC8               	movlw	low _enter_password
  2852   0010C0  6E03               	movwf	validate_password@enter_password^0,c
  2853   0010C2  0E00               	movlw	high _enter_password
  2854   0010C4  6E04               	movwf	(validate_password@enter_password+1)^0,c
  2855   0010C6  ECBC  F00D         	call	_validate_password	;wreg free
  2856   0010CA  5001               	movf	?_validate_password^0,w,c
  2857   0010CC  1002               	iorwf	(?_validate_password+1)^0,w,c
  2858   0010CE  B4D8               	btfsc	status,2,c
  2859   0010D0  EF6C  F008         	goto	u2451
  2860   0010D4  EF6E  F008         	goto	u2450
  2861   0010D8                     u2451:
  2862   0010D8  EFA5  F008         	goto	l3089
  2863   0010DC                     u2450:
  2864   0010DC                     
  2865                           ;car_black_box.c: 148:             _delay((unsigned long)((500)*(20000000/4000.0)));
  2866   0010DC  0E0D               	movlw	13
  2867   0010DE  6E0B               	movwf	(??_read_password+1)^0,c
  2868   0010E0  0EAF               	movlw	175
  2869   0010E2  6E0A               	movwf	??_read_password^0,c
  2870   0010E4  0EB6               	movlw	182
  2871   0010E6                     u3677:
  2872   0010E6  2EE8               	decfsz	wreg,f,c
  2873   0010E8  D7FE               	bra	u3677
  2874   0010EA  2E0A               	decfsz	??_read_password^0,f,c
  2875   0010EC  D7FC               	bra	u3677
  2876   0010EE  2E0B               	decfsz	(??_read_password+1)^0,f,c
  2877   0010F0  D7FA               	bra	u3677
  2878   0010F2  D000               	nop2	
  2879   0010F4                     
  2880                           ;car_black_box.c: 149:             clcd_print(" Wrong Password", (0x80 + (0)));
  2881   0010F4  0EA4               	movlw	low STR_20
  2882   0010F6  6E03               	movwf	clcd_print@data^0,c
  2883   0010F8  0E2F               	movlw	high STR_20
  2884   0010FA  6E04               	movwf	(clcd_print@data+1)^0,c
  2885   0010FC  0E80               	movlw	128
  2886   0010FE  6E05               	movwf	clcd_print@addr^0,c
  2887   001100  ECBF  F00E         	call	_clcd_print	;wreg free
  2888   001104                     
  2889                           ;car_black_box.c: 150:             clcd_putch(attempt, (0xC0 + (0)));
  2890   001104  0EC0               	movlw	192
  2891   001106  6E08               	movwf	clcd_putch@addr^0,c
  2892   001108  505C               	movf	_attempt^0,w,c
  2893   00110A  ECFD  F010         	call	_clcd_putch
  2894   00110E                     
  2895                           ;car_black_box.c: 151:             clcd_print("-Attempt Remain", (0xC0 + (1)));
  2896   00110E  0EB4               	movlw	low STR_21
  2897   001110  6E03               	movwf	clcd_print@data^0,c
  2898   001112  0E2F               	movlw	high STR_21
  2899   001114  6E04               	movwf	(clcd_print@data+1)^0,c
  2900   001116  0EC1               	movlw	193
  2901   001118  6E05               	movwf	clcd_print@addr^0,c
  2902   00111A  ECBF  F00E         	call	_clcd_print	;wreg free
  2903   00111E                     
  2904                           ;car_black_box.c: 152:             _delay((unsigned long)((500)*(20000000/4000.0)));
  2905   00111E  0E0D               	movlw	13
  2906   001120  6E0B               	movwf	(??_read_password+1)^0,c
  2907   001122  0EAF               	movlw	175
  2908   001124  6E0A               	movwf	??_read_password^0,c
  2909   001126  0EB6               	movlw	182
  2910   001128                     u3687:
  2911   001128  2EE8               	decfsz	wreg,f,c
  2912   00112A  D7FE               	bra	u3687
  2913   00112C  2E0A               	decfsz	??_read_password^0,f,c
  2914   00112E  D7FC               	bra	u3687
  2915   001130  2E0B               	decfsz	(??_read_password+1)^0,f,c
  2916   001132  D7FA               	bra	u3687
  2917   001134  D000               	nop2	
  2918   001136                     
  2919                           ;car_black_box.c: 153:             clcd_print("                ", (0xC0 + (0)));
  2920   001136  0E72               	movlw	low STR_1
  2921   001138  6E03               	movwf	clcd_print@data^0,c
  2922   00113A  0E2F               	movlw	high STR_1
  2923   00113C  6E04               	movwf	(clcd_print@data+1)^0,c
  2924   00113E  0EC0               	movlw	192
  2925   001140  6E05               	movwf	clcd_print@addr^0,c
  2926   001142  ECBF  F00E         	call	_clcd_print	;wreg free
  2927                           
  2928                           ;car_black_box.c: 154:         } else {
  2929   001146  EFCB  F008         	goto	l3101
  2930   00114A                     l3089:
  2931                           
  2932                           ;car_black_box.c: 155:             index = 0;
  2933   00114A  0E00               	movlw	0
  2934   00114C  6E50               	movwf	(_index+1)^0,c
  2935   00114E  0E00               	movlw	0
  2936   001150  6E4F               	movwf	_index^0,c
  2937                           
  2938                           ;car_black_box.c: 156:             attempt = '3';
  2939   001152  0E33               	movlw	51
  2940   001154  6E5C               	movwf	_attempt^0,c
  2941   001156                     
  2942                           ;car_black_box.c: 157:             clcd_print("Correct Password", (0x80 + (0)));
  2943   001156  0E61               	movlw	low STR_23
  2944   001158  6E03               	movwf	clcd_print@data^0,c
  2945   00115A  0E2F               	movlw	high STR_23
  2946   00115C  6E04               	movwf	(clcd_print@data+1)^0,c
  2947   00115E  0E80               	movlw	128
  2948   001160  6E05               	movwf	clcd_print@addr^0,c
  2949   001162  ECBF  F00E         	call	_clcd_print	;wreg free
  2950   001166                     
  2951                           ;car_black_box.c: 158:             clcd_print("   Menu Page    ", (0xC0 + (0)));
  2952   001166  0E95               	movlw	low STR_24
  2953   001168  6E03               	movwf	clcd_print@data^0,c
  2954   00116A  0E2E               	movlw	high STR_24
  2955   00116C  6E04               	movwf	(clcd_print@data+1)^0,c
  2956   00116E  0EC0               	movlw	192
  2957   001170  6E05               	movwf	clcd_print@addr^0,c
  2958   001172  ECBF  F00E         	call	_clcd_print	;wreg free
  2959   001176                     
  2960                           ;car_black_box.c: 159:             _delay((unsigned long)((700)*(20000000/4000.0)));
  2961   001176  0E12               	movlw	18
  2962   001178  6E0B               	movwf	(??_read_password+1)^0,c
  2963   00117A  0EC2               	movlw	194
  2964   00117C  6E0A               	movwf	??_read_password^0,c
  2965   00117E  0E66               	movlw	102
  2966   001180                     u3697:
  2967   001180  2EE8               	decfsz	wreg,f,c
  2968   001182  D7FE               	bra	u3697
  2969   001184  2E0A               	decfsz	??_read_password^0,f,c
  2970   001186  D7FC               	bra	u3697
  2971   001188  2E0B               	decfsz	(??_read_password+1)^0,f,c
  2972   00118A  D7FA               	bra	u3697
  2973   00118C  D000               	nop2	
  2974   00118E                     
  2975                           ;car_black_box.c: 160:             enter_flag = 2;
  2976   00118E  0E02               	movlw	2
  2977   001190  6E58               	movwf	_enter_flag^0,c
  2978   001192  EF20  F009         	goto	l211
  2979   001196                     l3101:
  2980                           
  2981                           ;car_black_box.c: 163:         if (attempt == '0') {
  2982   001196  0E30               	movlw	48
  2983   001198  185C               	xorwf	_attempt^0,w,c
  2984   00119A  A4D8               	btfss	status,2,c
  2985   00119C  EFD2  F008         	goto	u2461
  2986   0011A0  EFD4  F008         	goto	u2460
  2987   0011A4                     u2461:
  2988   0011A4  EF20  F009         	goto	l211
  2989   0011A8                     u2460:
  2990   0011A8                     
  2991                           ;car_black_box.c: 164:             clcd_print("  Attempt Over  ", (0x80 + (0)));
  2992   0011A8  0EC8               	movlw	low STR_25
  2993   0011AA  6E03               	movwf	clcd_print@data^0,c
  2994   0011AC  0E2E               	movlw	high STR_25
  2995   0011AE  6E04               	movwf	(clcd_print@data+1)^0,c
  2996   0011B0  0E80               	movlw	128
  2997   0011B2  6E05               	movwf	clcd_print@addr^0,c
  2998   0011B4  ECBF  F00E         	call	_clcd_print	;wreg free
  2999                           
  3000                           ;car_black_box.c: 165:             clcd_print(" Wait For    Sec", (0xC0 + (0)));
  3001   0011B8  0E2E               	movlw	low STR_26
  3002   0011BA  6E03               	movwf	clcd_print@data^0,c
  3003   0011BC  0E2F               	movlw	high STR_26
  3004   0011BE  6E04               	movwf	(clcd_print@data+1)^0,c
  3005   0011C0  0EC0               	movlw	192
  3006   0011C2  6E05               	movwf	clcd_print@addr^0,c
  3007   0011C4  ECBF  F00E         	call	_clcd_print	;wreg free
  3008   0011C8                     
  3009                           ;car_black_box.c: 166:             sec = 0;
  3010   0011C8  0E00               	movlw	0
  3011   0011CA  6E54               	movwf	(_sec+1)^0,c
  3012   0011CC  0E00               	movlw	0
  3013   0011CE  6E53               	movwf	_sec^0,c
  3014                           
  3015                           ;car_black_box.c: 167:             while (sec != 60) {
  3016   0011D0  EF12  F009         	goto	l3109
  3017   0011D4                     l3107:
  3018                           
  3019                           ;car_black_box.c: 168:                 clcd_putch((59 - sec) / 10 + 48, (0xC0 + (10)));
  3020   0011D4  0ECA               	movlw	202
  3021   0011D6  6E08               	movwf	clcd_putch@addr^0,c
  3022   0011D8  5053               	movf	_sec^0,w,c
  3023   0011DA  083B               	sublw	59
  3024   0011DC  6E01               	movwf	___lwdiv@dividend^0,c
  3025   0011DE  5054               	movf	(_sec+1)^0,w,c
  3026   0011E0  A0D8               	btfss	status,0,c
  3027   0011E2  2AE8               	incf	wreg,f,c
  3028   0011E4  0800               	sublw	0
  3029   0011E6  6E02               	movwf	(___lwdiv@dividend+1)^0,c
  3030   0011E8  0E00               	movlw	0
  3031   0011EA  6E04               	movwf	(___lwdiv@divisor+1)^0,c
  3032   0011EC  0E0A               	movlw	10
  3033   0011EE  6E03               	movwf	___lwdiv@divisor^0,c
  3034   0011F0  EC4C  F00E         	call	___lwdiv	;wreg free
  3035   0011F4  5001               	movf	?___lwdiv^0,w,c
  3036   0011F6  0F30               	addlw	48
  3037   0011F8  ECFD  F010         	call	_clcd_putch
  3038                           
  3039                           ;car_black_box.c: 169:                 clcd_putch(((59 - sec) % 10) + 48, (0xC0 + (11)))
      +                          ;
  3040   0011FC  0ECB               	movlw	203
  3041   0011FE  6E08               	movwf	clcd_putch@addr^0,c
  3042   001200  5053               	movf	_sec^0,w,c
  3043   001202  083B               	sublw	59
  3044   001204  6E01               	movwf	___lwmod@dividend^0,c
  3045   001206  5054               	movf	(_sec+1)^0,w,c
  3046   001208  A0D8               	btfss	status,0,c
  3047   00120A  2AE8               	incf	wreg,f,c
  3048   00120C  0800               	sublw	0
  3049   00120E  6E02               	movwf	(___lwmod@dividend+1)^0,c
  3050   001210  0E00               	movlw	0
  3051   001212  6E04               	movwf	(___lwmod@divisor+1)^0,c
  3052   001214  0E0A               	movlw	10
  3053   001216  6E03               	movwf	___lwmod@divisor^0,c
  3054   001218  EC28  F00F         	call	___lwmod	;wreg free
  3055   00121C  5001               	movf	?___lwmod^0,w,c
  3056   00121E  0F30               	addlw	48
  3057   001220  ECFD  F010         	call	_clcd_putch
  3058   001224                     l3109:
  3059                           
  3060                           ;car_black_box.c: 167:             while (sec != 60) {
  3061   001224  0E3C               	movlw	60
  3062   001226  1853               	xorwf	_sec^0,w,c
  3063   001228  1054               	iorwf	(_sec+1)^0,w,c
  3064   00122A  A4D8               	btfss	status,2,c
  3065   00122C  EF1A  F009         	goto	u2471
  3066   001230  EF1C  F009         	goto	u2470
  3067   001234                     u2471:
  3068   001234  EFEA  F008         	goto	l3107
  3069   001238                     u2470:
  3070   001238                     
  3071                           ;car_black_box.c: 171:             enter_flag = 0;
  3072   001238  0E00               	movlw	0
  3073   00123A  6E58               	movwf	_enter_flag^0,c
  3074                           
  3075                           ;car_black_box.c: 172:             attempt = '3';
  3076   00123C  0E33               	movlw	51
  3077   00123E  6E5C               	movwf	_attempt^0,c
  3078   001240                     l211:
  3079   001240  0012               	return		;funcret
  3080   001242                     __end_of_read_password:
  3081                           	callstack 0
  3082                           
  3083 ;; *************** function _read_adc *****************
  3084 ;; Defined at:
  3085 ;;		line 30 in file "adc.c"
  3086 ;; Parameters:    Size  Location     Type
  3087 ;;  channel         1    wreg     unsigned char 
  3088 ;; Auto vars:     Size  Location     Type
  3089 ;;  channel         1    7[COMRAM] unsigned char 
  3090 ;; Return value:  Size  Location     Type
  3091 ;;                  2    0[COMRAM] unsigned short 
  3092 ;; Registers used:
  3093 ;;		wreg, status,2, status,0
  3094 ;; Tracked objects:
  3095 ;;		On entry : 0/0
  3096 ;;		On exit  : 0/0
  3097 ;;		Unchanged: 0/0
  3098 ;; Data sizes:     COMRAM   BANK0   BANK1   BANK2   BANK3   BANK4   BANK5
  3099 ;;      Params:         2       0       0       0       0       0       0
  3100 ;;      Locals:         1       0       0       0       0       0       0
  3101 ;;      Temps:          5       0       0       0       0       0       0
  3102 ;;      Totals:         8       0       0       0       0       0       0
  3103 ;;Total ram usage:        8 bytes
  3104 ;; Hardware stack levels used: 1
  3105 ;; Hardware stack levels required when called: 1
  3106 ;; This function calls:
  3107 ;;		Nothing
  3108 ;; This function is called by:
  3109 ;;		_main
  3110 ;; This function uses a non-reentrant model
  3111 ;;
  3112                           
  3113                           	psect	text7
  3114   001F6C                     __ptext7:
  3115                           	callstack 0
  3116   001F6C                     _read_adc:
  3117                           	callstack 29
  3118                           
  3119                           ;incstack = 0
  3120                           ;read_adc@channel stored from wreg
  3121   001F6C  6E08               	movwf	read_adc@channel^0,c
  3122   001F6E                     
  3123                           ;adc.c: 30: unsigned short read_adc(unsigned char channel);adc.c: 31: {;adc.c: 32:     A
      +                          DCON0 = (ADCON0 & 0XC3) | (channel << 2);
  3124   001F6E  C008  F003         	movff	read_adc@channel,??_read_adc
  3125   001F72  90D8               	bcf	status,0,c
  3126   001F74  3603               	rlcf	??_read_adc^0,f,c
  3127   001F76  90D8               	bcf	status,0,c
  3128   001F78  3603               	rlcf	??_read_adc^0,f,c
  3129   001F7A  50C2               	movf	194,w,c	;volatile
  3130   001F7C  0BC3               	andlw	195
  3131   001F7E  1003               	iorwf	??_read_adc^0,w,c
  3132   001F80  6EC2               	movwf	194,c	;volatile
  3133   001F82                     
  3134                           ;adc.c: 33:     GO = 1;
  3135   001F82  82C2               	bsf	4034,1,c	;volatile
  3136   001F84                     l458:
  3137   001F84  B2C2               	btfsc	4034,1,c	;volatile
  3138   001F86  EFC7  F00F         	goto	u2281
  3139   001F8A  EFC9  F00F         	goto	u2280
  3140   001F8E                     u2281:
  3141   001F8E  EFC2  F00F         	goto	l458
  3142   001F92                     u2280:
  3143   001F92                     
  3144                           ;adc.c: 35:     return ADRESL | ((ADRESH & 0X03) << 8);
  3145   001F92  CFC4 F003          	movff	4036,??_read_adc	;volatile
  3146   001F96  0E03               	movlw	3
  3147   001F98  1603               	andwf	??_read_adc^0,f,c
  3148   001F9A  5003               	movf	??_read_adc^0,w,c
  3149   001F9C  6E05               	movwf	(??_read_adc+2)^0,c
  3150   001F9E  6A04               	clrf	(??_read_adc+1)^0,c
  3151   001FA0  50C3               	movf	195,w,c	;volatile
  3152   001FA2  6E06               	movwf	(??_read_adc+3)^0,c
  3153   001FA4  6A07               	clrf	(??_read_adc+4)^0,c
  3154   001FA6  5004               	movf	(??_read_adc+1)^0,w,c
  3155   001FA8  1006               	iorwf	(??_read_adc+3)^0,w,c
  3156   001FAA  6E01               	movwf	?_read_adc^0,c
  3157   001FAC  5005               	movf	(??_read_adc+2)^0,w,c
  3158   001FAE  1007               	iorwf	(??_read_adc+4)^0,w,c
  3159   001FB0  6E02               	movwf	(?_read_adc+1)^0,c
  3160   001FB2  0012               	return		;funcret
  3161   001FB4                     __end_of_read_adc:
  3162                           	callstack 0
  3163                           
  3164 ;; *************** function _init_config *****************
  3165 ;; Defined at:
  3166 ;;		line 23 in file "main.c"
  3167 ;; Parameters:    Size  Location     Type
  3168 ;;		None
  3169 ;; Auto vars:     Size  Location     Type
  3170 ;;		None
  3171 ;; Return value:  Size  Location     Type
  3172 ;;                  1    wreg      void 
  3173 ;; Registers used:
  3174 ;;		wreg, status,2, status,0, cstack
  3175 ;; Tracked objects:
  3176 ;;		On entry : 0/0
  3177 ;;		On exit  : 0/0
  3178 ;;		Unchanged: 0/0
  3179 ;; Data sizes:     COMRAM   BANK0   BANK1   BANK2   BANK3   BANK4   BANK5
  3180 ;;      Params:         0       0       0       0       0       0       0
  3181 ;;      Locals:         0       0       0       0       0       0       0
  3182 ;;      Temps:          0       0       0       0       0       0       0
  3183 ;;      Totals:         0       0       0       0       0       0       0
  3184 ;;Total ram usage:        0 bytes
  3185 ;; Hardware stack levels used: 1
  3186 ;; Hardware stack levels required when called: 6
  3187 ;; This function calls:
  3188 ;;		_init_adc
  3189 ;;		_init_clcd
  3190 ;;		_init_ds1307
  3191 ;;		_init_i2c
  3192 ;;		_init_matrix_keypad
  3193 ;;		_init_timer0
  3194 ;; This function is called by:
  3195 ;;		_main
  3196 ;; This function uses a non-reentrant model
  3197 ;;
  3198                           
  3199                           	psect	text8
  3200   0021C6                     __ptext8:
  3201                           	callstack 0
  3202   0021C6                     _init_config:
  3203                           	callstack 24
  3204   0021C6                     
  3205                           ;main.c: 24:     init_matrix_keypad();
  3206   0021C6  EC29  F011         	call	_init_matrix_keypad	;wreg free
  3207   0021CA                     
  3208                           ;main.c: 25:     init_clcd();
  3209   0021CA  EC64  F00D         	call	_init_clcd	;wreg free
  3210   0021CE                     
  3211                           ;main.c: 26:     init_adc();
  3212   0021CE  ECD4  F010         	call	_init_adc	;wreg free
  3213   0021D2                     
  3214                           ;main.c: 27:     init_timer0();
  3215   0021D2  ECF0  F010         	call	_init_timer0	;wreg free
  3216   0021D6                     
  3217                           ;main.c: 28:     init_i2c();
  3218   0021D6  EC09  F011         	call	_init_i2c	;wreg free
  3219   0021DA                     
  3220                           ;main.c: 29:     init_ds1307();
  3221   0021DA  ECDA  F00F         	call	_init_ds1307	;wreg free
  3222   0021DE  0012               	return		;funcret
  3223   0021E0                     __end_of_init_config:
  3224                           	callstack 0
  3225                           
  3226 ;; *************** function _init_timer0 *****************
  3227 ;; Defined at:
  3228 ;;		line 11 in file "timer0.c"
  3229 ;; Parameters:    Size  Location     Type
  3230 ;;		None
  3231 ;; Auto vars:     Size  Location     Type
  3232 ;;		None
  3233 ;; Return value:  Size  Location     Type
  3234 ;;                  1    wreg      void 
  3235 ;; Registers used:
  3236 ;;		wreg, status,2
  3237 ;; Tracked objects:
  3238 ;;		On entry : 0/0
  3239 ;;		On exit  : 0/0
  3240 ;;		Unchanged: 0/0
  3241 ;; Data sizes:     COMRAM   BANK0   BANK1   BANK2   BANK3   BANK4   BANK5
  3242 ;;      Params:         0       0       0       0       0       0       0
  3243 ;;      Locals:         0       0       0       0       0       0       0
  3244 ;;      Temps:          0       0       0       0       0       0       0
  3245 ;;      Totals:         0       0       0       0       0       0       0
  3246 ;;Total ram usage:        0 bytes
  3247 ;; Hardware stack levels used: 1
  3248 ;; Hardware stack levels required when called: 1
  3249 ;; This function calls:
  3250 ;;		Nothing
  3251 ;; This function is called by:
  3252 ;;		_init_config
  3253 ;; This function uses a non-reentrant model
  3254 ;;
  3255                           
  3256                           	psect	text9
  3257   0021E0                     __ptext9:
  3258                           	callstack 0
  3259   0021E0                     _init_timer0:
  3260                           	callstack 28
  3261   0021E0                     
  3262                           ;timer0.c: 14:     GIE = 1;
  3263   0021E0  8EF2               	bsf	4082,7,c	;volatile
  3264                           
  3265                           ;timer0.c: 15:     PEIE = 1;
  3266   0021E2  8CF2               	bsf	4082,6,c	;volatile
  3267                           
  3268                           ;timer0.c: 16:     TMR0IE = 1;
  3269   0021E4  8AF2               	bsf	4082,5,c	;volatile
  3270                           
  3271                           ;timer0.c: 17:     TMR0IF = 0;
  3272   0021E6  94F2               	bcf	4082,2,c	;volatile
  3273   0021E8                     
  3274                           ;timer0.c: 22:     TMR0 = 3036;
  3275   0021E8  0E0B               	movlw	11
  3276   0021EA  6ED7               	movwf	215,c	;volatile
  3277   0021EC  0EDC               	movlw	220
  3278   0021EE  6ED6               	movwf	214,c	;volatile
  3279   0021F0                     
  3280                           ;timer0.c: 23:     TMR0ON = 1;
  3281   0021F0  8ED5               	bsf	4053,7,c	;volatile
  3282   0021F2                     
  3283                           ;timer0.c: 24:     T08BIT = 0;
  3284   0021F2  9CD5               	bcf	4053,6,c	;volatile
  3285   0021F4                     
  3286                           ;timer0.c: 25:     T0CS = 0;
  3287   0021F4  9AD5               	bcf	4053,5,c	;volatile
  3288   0021F6                     
  3289                           ;timer0.c: 26:     PSA = 1;
  3290   0021F6  86D5               	bsf	4053,3,c	;volatile
  3291   0021F8  0012               	return		;funcret
  3292   0021FA                     __end_of_init_timer0:
  3293                           	callstack 0
  3294                           
  3295 ;; *************** function _init_matrix_keypad *****************
  3296 ;; Defined at:
  3297 ;;		line 12 in file "mkp.c"
  3298 ;; Parameters:    Size  Location     Type
  3299 ;;		None
  3300 ;; Auto vars:     Size  Location     Type
  3301 ;;		None
  3302 ;; Return value:  Size  Location     Type
  3303 ;;                  1    wreg      void 
  3304 ;; Registers used:
  3305 ;;		wreg, status,2
  3306 ;; Tracked objects:
  3307 ;;		On entry : 0/0
  3308 ;;		On exit  : 0/0
  3309 ;;		Unchanged: 0/0
  3310 ;; Data sizes:     COMRAM   BANK0   BANK1   BANK2   BANK3   BANK4   BANK5
  3311 ;;      Params:         0       0       0       0       0       0       0
  3312 ;;      Locals:         0       0       0       0       0       0       0
  3313 ;;      Temps:          0       0       0       0       0       0       0
  3314 ;;      Totals:         0       0       0       0       0       0       0
  3315 ;;Total ram usage:        0 bytes
  3316 ;; Hardware stack levels used: 1
  3317 ;; Hardware stack levels required when called: 1
  3318 ;; This function calls:
  3319 ;;		Nothing
  3320 ;; This function is called by:
  3321 ;;		_init_config
  3322 ;; This function uses a non-reentrant model
  3323 ;;
  3324                           
  3325                           	psect	text10
  3326   002252                     __ptext10:
  3327                           	callstack 0
  3328   002252                     _init_matrix_keypad:
  3329                           	callstack 28
  3330   002252                     
  3331                           ;mkp.c: 14:     TRISB = 0x1E;
  3332   002252  0E1E               	movlw	30
  3333   002254  6E93               	movwf	147,c	;volatile
  3334   002256                     
  3335                           ;mkp.c: 15:     RBPU = 0;
  3336   002256  9EF1               	bcf	4081,7,c	;volatile
  3337   002258  0012               	return		;funcret
  3338   00225A                     __end_of_init_matrix_keypad:
  3339                           	callstack 0
  3340                           
  3341 ;; *************** function _init_i2c *****************
  3342 ;; Defined at:
  3343 ;;		line 13 in file "i2c.c"
  3344 ;; Parameters:    Size  Location     Type
  3345 ;;		None
  3346 ;; Auto vars:     Size  Location     Type
  3347 ;;		None
  3348 ;; Return value:  Size  Location     Type
  3349 ;;                  1    wreg      void 
  3350 ;; Registers used:
  3351 ;;		wreg, status,2
  3352 ;; Tracked objects:
  3353 ;;		On entry : 0/0
  3354 ;;		On exit  : 0/0
  3355 ;;		Unchanged: 0/0
  3356 ;; Data sizes:     COMRAM   BANK0   BANK1   BANK2   BANK3   BANK4   BANK5
  3357 ;;      Params:         0       0       0       0       0       0       0
  3358 ;;      Locals:         0       0       0       0       0       0       0
  3359 ;;      Temps:          0       0       0       0       0       0       0
  3360 ;;      Totals:         0       0       0       0       0       0       0
  3361 ;;Total ram usage:        0 bytes
  3362 ;; Hardware stack levels used: 1
  3363 ;; Hardware stack levels required when called: 1
  3364 ;; This function calls:
  3365 ;;		Nothing
  3366 ;; This function is called by:
  3367 ;;		_init_config
  3368 ;; This function uses a non-reentrant model
  3369 ;;
  3370                           
  3371                           	psect	text11
  3372   002212                     __ptext11:
  3373                           	callstack 0
  3374   002212                     _init_i2c:
  3375                           	callstack 28
  3376   002212                     
  3377                           ;i2c.c: 16:  TRISC3 = 1;
  3378   002212  8694               	bsf	3988,3,c	;volatile
  3379                           
  3380                           ;i2c.c: 17:  TRISC4 = 1;
  3381   002214  8894               	bsf	3988,4,c	;volatile
  3382   002216                     
  3383                           ;i2c.c: 19:  SSPCON1 = 0x28;
  3384   002216  0E28               	movlw	40
  3385   002218  6EC6               	movwf	198,c	;volatile
  3386                           
  3387                           ;i2c.c: 21:  SSPADD = 0x31;
  3388   00221A  0E31               	movlw	49
  3389   00221C  6EC8               	movwf	200,c	;volatile
  3390   00221E                     
  3391                           ;i2c.c: 23:  CKE = 0;
  3392   00221E  9CC7               	bcf	4039,6,c	;volatile
  3393   002220                     
  3394                           ;i2c.c: 25:  SMP = 1;
  3395   002220  8EC7               	bsf	4039,7,c	;volatile
  3396   002222                     
  3397                           ;i2c.c: 27:  SSPIF = 0;
  3398   002222  969E               	bcf	3998,3,c	;volatile
  3399   002224                     
  3400                           ;i2c.c: 29:  BCLIF = 0;
  3401   002224  96A1               	bcf	4001,3,c	;volatile
  3402   002226  0012               	return		;funcret
  3403   002228                     __end_of_init_i2c:
  3404                           	callstack 0
  3405                           
  3406 ;; *************** function _init_ds1307 *****************
  3407 ;; Defined at:
  3408 ;;		line 12 in file "ds1307.c"
  3409 ;; Parameters:    Size  Location     Type
  3410 ;;		None
  3411 ;; Auto vars:     Size  Location     Type
  3412 ;;  dummy           1    3[COMRAM] unsigned char 
  3413 ;; Return value:  Size  Location     Type
  3414 ;;                  1    wreg      void 
  3415 ;; Registers used:
  3416 ;;		wreg, status,2, status,0, cstack
  3417 ;; Tracked objects:
  3418 ;;		On entry : 0/0
  3419 ;;		On exit  : 0/0
  3420 ;;		Unchanged: 0/0
  3421 ;; Data sizes:     COMRAM   BANK0   BANK1   BANK2   BANK3   BANK4   BANK5
  3422 ;;      Params:         0       0       0       0       0       0       0
  3423 ;;      Locals:         1       0       0       0       0       0       0
  3424 ;;      Temps:          0       0       0       0       0       0       0
  3425 ;;      Totals:         1       0       0       0       0       0       0
  3426 ;;Total ram usage:        1 bytes
  3427 ;; Hardware stack levels used: 1
  3428 ;; Hardware stack levels required when called: 5
  3429 ;; This function calls:
  3430 ;;		_read_ds1307
  3431 ;;		_write_ds1307
  3432 ;; This function is called by:
  3433 ;;		_init_config
  3434 ;; This function uses a non-reentrant model
  3435 ;;
  3436                           
  3437                           	psect	text12
  3438   001FB4                     __ptext12:
  3439                           	callstack 0
  3440   001FB4                     _init_ds1307:
  3441                           	callstack 24
  3442   001FB4                     
  3443                           ;ds1307.c: 14:  unsigned char dummy;;ds1307.c: 17:  dummy = read_ds1307(0x00);
  3444   001FB4  0E00               	movlw	0
  3445   001FB6  ECB0  F010         	call	_read_ds1307
  3446   001FBA  6E04               	movwf	init_ds1307@dummy^0,c
  3447   001FBC                     
  3448                           ;ds1307.c: 18:  write_ds1307(0x00, dummy | 0x80);
  3449   001FBC  5004               	movf	init_ds1307@dummy^0,w,c
  3450   001FBE  0980               	iorlw	128
  3451   001FC0  6E02               	movwf	write_ds1307@data^0,c
  3452   001FC2  0E00               	movlw	0
  3453   001FC4  ECC5  F010         	call	_write_ds1307
  3454   001FC8                     
  3455                           ;ds1307.c: 21:  dummy = read_ds1307(0x02);
  3456   001FC8  0E02               	movlw	2
  3457   001FCA  ECB0  F010         	call	_read_ds1307
  3458   001FCE  6E04               	movwf	init_ds1307@dummy^0,c
  3459                           
  3460                           ;ds1307.c: 22:  write_ds1307(0x02, dummy | 0x40);
  3461   001FD0  5004               	movf	init_ds1307@dummy^0,w,c
  3462   001FD2  0940               	iorlw	64
  3463   001FD4  6E02               	movwf	write_ds1307@data^0,c
  3464   001FD6  0E02               	movlw	2
  3465   001FD8  ECC5  F010         	call	_write_ds1307
  3466   001FDC                     
  3467                           ;ds1307.c: 37:  write_ds1307(0x07, 0x93);
  3468   001FDC  0E93               	movlw	147
  3469   001FDE  6E02               	movwf	write_ds1307@data^0,c
  3470   001FE0  0E07               	movlw	7
  3471   001FE2  ECC5  F010         	call	_write_ds1307
  3472   001FE6                     
  3473                           ;ds1307.c: 40:  dummy = read_ds1307(0x00);
  3474   001FE6  0E00               	movlw	0
  3475   001FE8  ECB0  F010         	call	_read_ds1307
  3476   001FEC  6E04               	movwf	init_ds1307@dummy^0,c
  3477                           
  3478                           ;ds1307.c: 41:  write_ds1307(0x00, dummy & 0x7F);
  3479   001FEE  5004               	movf	init_ds1307@dummy^0,w,c
  3480   001FF0  0B7F               	andlw	127
  3481   001FF2  6E02               	movwf	write_ds1307@data^0,c
  3482   001FF4  0E00               	movlw	0
  3483   001FF6  ECC5  F010         	call	_write_ds1307
  3484   001FFA  0012               	return		;funcret
  3485   001FFC                     __end_of_init_ds1307:
  3486                           	callstack 0
  3487                           
  3488 ;; *************** function _write_ds1307 *****************
  3489 ;; Defined at:
  3490 ;;		line 45 in file "ds1307.c"
  3491 ;; Parameters:    Size  Location     Type
  3492 ;;  address         1    wreg     unsigned char 
  3493 ;;  data            1    1[COMRAM] unsigned char 
  3494 ;; Auto vars:     Size  Location     Type
  3495 ;;  address         1    2[COMRAM] unsigned char 
  3496 ;; Return value:  Size  Location     Type
  3497 ;;                  1    wreg      void 
  3498 ;; Registers used:
  3499 ;;		wreg, status,2, cstack
  3500 ;; Tracked objects:
  3501 ;;		On entry : 0/0
  3502 ;;		On exit  : 0/0
  3503 ;;		Unchanged: 0/0
  3504 ;; Data sizes:     COMRAM   BANK0   BANK1   BANK2   BANK3   BANK4   BANK5
  3505 ;;      Params:         1       0       0       0       0       0       0
  3506 ;;      Locals:         1       0       0       0       0       0       0
  3507 ;;      Temps:          0       0       0       0       0       0       0
  3508 ;;      Totals:         2       0       0       0       0       0       0
  3509 ;;Total ram usage:        2 bytes
  3510 ;; Hardware stack levels used: 1
  3511 ;; Hardware stack levels required when called: 3
  3512 ;; This function calls:
  3513 ;;		_i2c_start
  3514 ;;		_i2c_stop
  3515 ;;		_i2c_write
  3516 ;; This function is called by:
  3517 ;;		_init_ds1307
  3518 ;; This function uses a non-reentrant model
  3519 ;;
  3520                           
  3521                           	psect	text13
  3522   00218A                     __ptext13:
  3523                           	callstack 0
  3524   00218A                     _write_ds1307:
  3525                           	callstack 25
  3526                           
  3527                           ;incstack = 0
  3528                           ;write_ds1307@address stored from wreg
  3529   00218A  6E03               	movwf	write_ds1307@address^0,c
  3530   00218C                     
  3531                           ;ds1307.c: 45: void write_ds1307(unsigned char address, unsigned char data);ds1307.c: 46
      +                          : {;ds1307.c: 47:  i2c_start();
  3532   00218C  EC39  F011         	call	_i2c_start	;wreg free
  3533   002190                     
  3534                           ;ds1307.c: 48:  i2c_write(0xD0);
  3535   002190  0ED0               	movlw	208
  3536   002192  EC23  F011         	call	_i2c_write
  3537   002196                     
  3538                           ;ds1307.c: 49:  i2c_write(address);
  3539   002196  5003               	movf	write_ds1307@address^0,w,c
  3540   002198  EC23  F011         	call	_i2c_write
  3541   00219C                     
  3542                           ;ds1307.c: 50:  i2c_write(data);
  3543   00219C  5002               	movf	write_ds1307@data^0,w,c
  3544   00219E  EC23  F011         	call	_i2c_write
  3545   0021A2                     
  3546                           ;ds1307.c: 51:  i2c_stop();
  3547   0021A2  EC35  F011         	call	_i2c_stop	;wreg free
  3548   0021A6  0012               	return		;funcret
  3549   0021A8                     __end_of_write_ds1307:
  3550                           	callstack 0
  3551                           
  3552 ;; *************** function _init_clcd *****************
  3553 ;; Defined at:
  3554 ;;		line 35 in file "clcd.c"
  3555 ;; Parameters:    Size  Location     Type
  3556 ;;		None
  3557 ;; Auto vars:     Size  Location     Type
  3558 ;;		None
  3559 ;; Return value:  Size  Location     Type
  3560 ;;                  1    wreg      void 
  3561 ;; Registers used:
  3562 ;;		wreg, status,2, status,0, cstack
  3563 ;; Tracked objects:
  3564 ;;		On entry : 0/0
  3565 ;;		On exit  : 0/0
  3566 ;;		Unchanged: 0/0
  3567 ;; Data sizes:     COMRAM   BANK0   BANK1   BANK2   BANK3   BANK4   BANK5
  3568 ;;      Params:         0       0       0       0       0       0       0
  3569 ;;      Locals:         0       0       0       0       0       0       0
  3570 ;;      Temps:          2       0       0       0       0       0       0
  3571 ;;      Totals:         2       0       0       0       0       0       0
  3572 ;;Total ram usage:        2 bytes
  3573 ;; Hardware stack levels used: 1
  3574 ;; Hardware stack levels required when called: 2
  3575 ;; This function calls:
  3576 ;;		_clcd_write
  3577 ;; This function is called by:
  3578 ;;		_init_config
  3579 ;; This function uses a non-reentrant model
  3580 ;;
  3581                           
  3582                           	psect	text14
  3583   001AC8                     __ptext14:
  3584                           	callstack 0
  3585   001AC8                     _init_clcd:
  3586                           	callstack 27
  3587   001AC8                     
  3588                           ;clcd.c: 38:  TRISD = 0x00;
  3589   001AC8  0E00               	movlw	0
  3590   001ACA  6E95               	movwf	149,c	;volatile
  3591   001ACC                     
  3592                           ;clcd.c: 40:  TRISC = TRISC & 0xF8;
  3593   001ACC  5094               	movf	148,w,c	;volatile
  3594   001ACE  0BF8               	andlw	248
  3595   001AD0  6E94               	movwf	148,c	;volatile
  3596   001AD2                     
  3597                           ;clcd.c: 42:  RC0 = 0;
  3598   001AD2  9082               	bcf	3970,0,c	;volatile
  3599   001AD4                     
  3600                           ;clcd.c: 46:     _delay((unsigned long)((40)*(20000000/4000.0)));
  3601   001AD4  0E02               	movlw	2
  3602   001AD6  6E04               	movwf	(??_init_clcd+1)^0,c
  3603   001AD8  0E04               	movlw	4
  3604   001ADA  6E03               	movwf	??_init_clcd^0,c
  3605   001ADC  0EBA               	movlw	186
  3606   001ADE                     u3707:
  3607   001ADE  2EE8               	decfsz	wreg,f,c
  3608   001AE0  D7FE               	bra	u3707
  3609   001AE2  2E03               	decfsz	??_init_clcd^0,f,c
  3610   001AE4  D7FC               	bra	u3707
  3611   001AE6  2E04               	decfsz	(??_init_clcd+1)^0,f,c
  3612   001AE8  D7FA               	bra	u3707
  3613   001AEA  D000               	nop2	
  3614   001AEC                     
  3615                           ;clcd.c: 49:     clcd_write(0x33, 0 );
  3616   001AEC  0E00               	movlw	0
  3617   001AEE  6E01               	movwf	clcd_write@control_bit^0,c
  3618   001AF0  0E33               	movlw	51
  3619   001AF2  EC7E  F010         	call	_clcd_write
  3620   001AF6                     
  3621                           ;clcd.c: 50:     _delay((unsigned long)((4100)*(20000000/4000000.0)));
  3622   001AF6  0E1B               	movlw	27
  3623   001AF8  6E03               	movwf	??_init_clcd^0,c
  3624   001AFA  0E9E               	movlw	158
  3625   001AFC                     u3717:
  3626   001AFC  2EE8               	decfsz	wreg,f,c
  3627   001AFE  D7FE               	bra	u3717
  3628   001B00  2E03               	decfsz	??_init_clcd^0,f,c
  3629   001B02  D7FC               	bra	u3717
  3630   001B04  D000               	nop2	
  3631   001B06                     
  3632                           ;clcd.c: 51:     clcd_write(0x33, 0 );
  3633   001B06  0E00               	movlw	0
  3634   001B08  6E01               	movwf	clcd_write@control_bit^0,c
  3635   001B0A  0E33               	movlw	51
  3636   001B0C  EC7E  F010         	call	_clcd_write
  3637   001B10                     
  3638                           ;clcd.c: 52:     _delay((unsigned long)((100)*(20000000/4000000.0)));
  3639   001B10  0EA6               	movlw	166
  3640   001B12                     u3727:
  3641   001B12  2EE8               	decfsz	wreg,f,c
  3642   001B14  D7FE               	bra	u3727
  3643   001B16  D000               	nop2	
  3644   001B18                     
  3645                           ;clcd.c: 53:     clcd_write(0x33, 0 );
  3646   001B18  0E00               	movlw	0
  3647   001B1A  6E01               	movwf	clcd_write@control_bit^0,c
  3648   001B1C  0E33               	movlw	51
  3649   001B1E  EC7E  F010         	call	_clcd_write
  3650   001B22                     
  3651                           ;clcd.c: 54:     _delay((unsigned long)((1)*(20000000/4000000.0)));
  3652   001B22  D000               	nop2		;2 cycle nop
  3653   001B24  D000               	nop2		;2 cycle nop
  3654   001B26  F000               	nop	
  3655   001B28                     
  3656                           ;clcd.c: 56:     clcd_write(0x02, 0);
  3657   001B28  0E00               	movlw	0
  3658   001B2A  6E01               	movwf	clcd_write@control_bit^0,c
  3659   001B2C  0E02               	movlw	2
  3660   001B2E  EC7E  F010         	call	_clcd_write
  3661   001B32                     
  3662                           ;clcd.c: 57:     _delay((unsigned long)((100)*(20000000/4000000.0)));
  3663   001B32  0EA6               	movlw	166
  3664   001B34                     u3737:
  3665   001B34  2EE8               	decfsz	wreg,f,c
  3666   001B36  D7FE               	bra	u3737
  3667   001B38  D000               	nop2	
  3668   001B3A                     
  3669                           ;clcd.c: 58:     clcd_write(0x38, 0);
  3670   001B3A  0E00               	movlw	0
  3671   001B3C  6E01               	movwf	clcd_write@control_bit^0,c
  3672   001B3E  0E38               	movlw	56
  3673   001B40  EC7E  F010         	call	_clcd_write
  3674   001B44                     
  3675                           ;clcd.c: 59:     _delay((unsigned long)((100)*(20000000/4000000.0)));
  3676   001B44  0EA6               	movlw	166
  3677   001B46                     u3747:
  3678   001B46  2EE8               	decfsz	wreg,f,c
  3679   001B48  D7FE               	bra	u3747
  3680   001B4A  D000               	nop2	
  3681   001B4C                     
  3682                           ;clcd.c: 60:     clcd_write(0x01, 0);
  3683   001B4C  0E00               	movlw	0
  3684   001B4E  6E01               	movwf	clcd_write@control_bit^0,c
  3685   001B50  0E01               	movlw	1
  3686   001B52  EC7E  F010         	call	_clcd_write
  3687   001B56                     
  3688                           ;clcd.c: 61:     _delay((unsigned long)((500)*(20000000/4000000.0)));
  3689   001B56  0E04               	movlw	4
  3690   001B58  6E03               	movwf	??_init_clcd^0,c
  3691   001B5A  0E3E               	movlw	62
  3692   001B5C                     u3757:
  3693   001B5C  2EE8               	decfsz	wreg,f,c
  3694   001B5E  D7FE               	bra	u3757
  3695   001B60  2E03               	decfsz	??_init_clcd^0,f,c
  3696   001B62  D7FC               	bra	u3757
  3697   001B64                     
  3698                           ;clcd.c: 62:     clcd_write(0x0C, 0);
  3699   001B64  0E00               	movlw	0
  3700   001B66  6E01               	movwf	clcd_write@control_bit^0,c
  3701   001B68  0E0C               	movlw	12
  3702   001B6A  EC7E  F010         	call	_clcd_write
  3703   001B6E                     
  3704                           ;clcd.c: 63:     _delay((unsigned long)((100)*(20000000/4000000.0)));
  3705   001B6E  0EA6               	movlw	166
  3706   001B70                     u3767:
  3707   001B70  2EE8               	decfsz	wreg,f,c
  3708   001B72  D7FE               	bra	u3767
  3709   001B74  D000               	nop2	
  3710   001B76  0012               	return		;funcret
  3711   001B78                     __end_of_init_clcd:
  3712                           	callstack 0
  3713                           
  3714 ;; *************** function _init_adc *****************
  3715 ;; Defined at:
  3716 ;;		line 12 in file "adc.c"
  3717 ;; Parameters:    Size  Location     Type
  3718 ;;		None
  3719 ;; Auto vars:     Size  Location     Type
  3720 ;;		None
  3721 ;; Return value:  Size  Location     Type
  3722 ;;                  1    wreg      void 
  3723 ;; Registers used:
  3724 ;;		None
  3725 ;; Tracked objects:
  3726 ;;		On entry : 0/0
  3727 ;;		On exit  : 0/0
  3728 ;;		Unchanged: 0/0
  3729 ;; Data sizes:     COMRAM   BANK0   BANK1   BANK2   BANK3   BANK4   BANK5
  3730 ;;      Params:         0       0       0       0       0       0       0
  3731 ;;      Locals:         0       0       0       0       0       0       0
  3732 ;;      Temps:          0       0       0       0       0       0       0
  3733 ;;      Totals:         0       0       0       0       0       0       0
  3734 ;;Total ram usage:        0 bytes
  3735 ;; Hardware stack levels used: 1
  3736 ;; Hardware stack levels required when called: 1
  3737 ;; This function calls:
  3738 ;;		Nothing
  3739 ;; This function is called by:
  3740 ;;		_init_config
  3741 ;; This function uses a non-reentrant model
  3742 ;;
  3743                           
  3744                           	psect	text15
  3745   0021A8                     __ptext15:
  3746                           	callstack 0
  3747   0021A8                     _init_adc:
  3748                           	callstack 28
  3749   0021A8                     
  3750                           ;adc.c: 13:     ADON = 1;
  3751   0021A8  80C2               	bsf	4034,0,c	;volatile
  3752                           
  3753                           ;adc.c: 14:     VCFG1 = 0;
  3754   0021AA  9AC1               	bcf	4033,5,c	;volatile
  3755                           
  3756                           ;adc.c: 15:     VCFG0 = 0;
  3757   0021AC  98C1               	bcf	4033,4,c	;volatile
  3758                           
  3759                           ;adc.c: 16:     PCFG3 = 1;
  3760   0021AE  86C1               	bsf	4033,3,c	;volatile
  3761                           
  3762                           ;adc.c: 17:     PCFG2 = 0;
  3763   0021B0  94C1               	bcf	4033,2,c	;volatile
  3764                           
  3765                           ;adc.c: 18:     PCFG1 = 1;
  3766   0021B2  82C1               	bsf	4033,1,c	;volatile
  3767                           
  3768                           ;adc.c: 19:     PCFG0 = 0;
  3769   0021B4  90C1               	bcf	4033,0,c	;volatile
  3770                           
  3771                           ;adc.c: 20:     ACQT2 = 1;
  3772   0021B6  8AC0               	bsf	4032,5,c	;volatile
  3773                           
  3774                           ;adc.c: 21:     ACQT1 = 0;
  3775   0021B8  98C0               	bcf	4032,4,c	;volatile
  3776                           
  3777                           ;adc.c: 22:     ACQT0 = 0;
  3778   0021BA  96C0               	bcf	4032,3,c	;volatile
  3779                           
  3780                           ;adc.c: 23:     ADCS2 = 0;
  3781   0021BC  94C0               	bcf	4032,2,c	;volatile
  3782                           
  3783                           ;adc.c: 24:     ADCS1 = 1;
  3784   0021BE  82C0               	bsf	4032,1,c	;volatile
  3785                           
  3786                           ;adc.c: 25:     ADCS0 = 0;
  3787   0021C0  90C0               	bcf	4032,0,c	;volatile
  3788                           
  3789                           ;adc.c: 26:     ADFM = 1;
  3790   0021C2  8EC0               	bsf	4032,7,c	;volatile
  3791   0021C4  0012               	return		;funcret
  3792   0021C6                     __end_of_init_adc:
  3793                           	callstack 0
  3794                           
  3795 ;; *************** function _get_time *****************
  3796 ;; Defined at:
  3797 ;;		line 44 in file "car_black_box.c"
  3798 ;; Parameters:    Size  Location     Type
  3799 ;;		None
  3800 ;; Auto vars:     Size  Location     Type
  3801 ;;		None
  3802 ;; Return value:  Size  Location     Type
  3803 ;;                  1    wreg      void 
  3804 ;; Registers used:
  3805 ;;		wreg, status,2, status,0, cstack
  3806 ;; Tracked objects:
  3807 ;;		On entry : 0/0
  3808 ;;		On exit  : 0/0
  3809 ;;		Unchanged: 0/0
  3810 ;; Data sizes:     COMRAM   BANK0   BANK1   BANK2   BANK3   BANK4   BANK5
  3811 ;;      Params:         0       0       0       0       0       0       0
  3812 ;;      Locals:         0       0       0       0       0       0       0
  3813 ;;      Temps:          0       0       0       0       0       0       0
  3814 ;;      Totals:         0       0       0       0       0       0       0
  3815 ;;Total ram usage:        0 bytes
  3816 ;; Hardware stack levels used: 1
  3817 ;; Hardware stack levels required when called: 5
  3818 ;; This function calls:
  3819 ;;		_read_ds1307
  3820 ;; This function is called by:
  3821 ;;		_main
  3822 ;; This function uses a non-reentrant model
  3823 ;;
  3824                           
  3825                           	psect	text16
  3826   001C16                     __ptext16:
  3827                           	callstack 0
  3828   001C16                     _get_time:
  3829                           	callstack 25
  3830   001C16                     
  3831                           ;car_black_box.c: 45:     clock_reg[0] = read_ds1307(0x02);
  3832   001C16  0E02               	movlw	2
  3833   001C18  ECB0  F010         	call	_read_ds1307
  3834   001C1C  0100               	movlb	0	; () banked
  3835   001C1E  6FA2               	movwf	_clock_reg& (0+255),b
  3836                           
  3837                           ;car_black_box.c: 46:     clock_reg[1] = read_ds1307(0x01);
  3838   001C20  0E01               	movlw	1
  3839   001C22  ECB0  F010         	call	_read_ds1307
  3840   001C26  0100               	movlb	0	; () banked
  3841   001C28  6FA3               	movwf	(_clock_reg+1)& (0+255),b
  3842                           
  3843                           ;car_black_box.c: 47:     clock_reg[2] = read_ds1307(0x00);
  3844   001C2A  0E00               	movlw	0
  3845   001C2C  ECB0  F010         	call	_read_ds1307
  3846   001C30  0100               	movlb	0	; () banked
  3847   001C32  6FA4               	movwf	(_clock_reg+2)& (0+255),b
  3848   001C34                     
  3849                           ; BSR set to: 0
  3850                           ;car_black_box.c: 49:     if (clock_reg[0] & 0x40) {
  3851   001C34  ADA2               	btfss	_clock_reg& (0+255),6,b
  3852   001C36  EF1F  F00E         	goto	u2291
  3853   001C3A  EF21  F00E         	goto	u2290
  3854   001C3E                     u2291:
  3855   001C3E  EF2C  F00E         	goto	l2975
  3856   001C42                     u2290:
  3857   001C42                     
  3858                           ; BSR set to: 0
  3859                           ;car_black_box.c: 50:         event[0] = '0' + ((clock_reg[0] >> 4) & 0x01);
  3860   001C42  39A2               	swapf	_clock_reg& (0+255),w,b
  3861   001C44  0B0F               	andlw	15
  3862   001C46  0B01               	andlw	1
  3863   001C48  0F30               	addlw	48
  3864   001C4A  6F84               	movwf	_event& (0+255),b
  3865                           
  3866                           ;car_black_box.c: 51:         event[1] = '0' + (clock_reg[0] & 0x0F);
  3867   001C4C  51A2               	movf	_clock_reg& (0+255),w,b
  3868   001C4E  0B0F               	andlw	15
  3869   001C50  0F30               	addlw	48
  3870   001C52  6F85               	movwf	(_event+1)& (0+255),b
  3871                           
  3872                           ;car_black_box.c: 52:     } else {
  3873   001C54  EF35  F00E         	goto	l2977
  3874   001C58                     l2975:
  3875                           
  3876                           ; BSR set to: 0
  3877                           ;car_black_box.c: 53:         event[0] = '0' + ((clock_reg[0] >> 4) & 0x03);
  3878   001C58  39A2               	swapf	_clock_reg& (0+255),w,b
  3879   001C5A  0B0F               	andlw	15
  3880   001C5C  0B03               	andlw	3
  3881   001C5E  0F30               	addlw	48
  3882   001C60  6F84               	movwf	_event& (0+255),b
  3883                           
  3884                           ;car_black_box.c: 54:         event[1] = '0' + (clock_reg[0] & 0x0F);
  3885   001C62  51A2               	movf	_clock_reg& (0+255),w,b
  3886   001C64  0B0F               	andlw	15
  3887   001C66  0F30               	addlw	48
  3888   001C68  6F85               	movwf	(_event+1)& (0+255),b
  3889   001C6A                     l2977:
  3890                           
  3891                           ; BSR set to: 0
  3892                           ;car_black_box.c: 56:     event[2] = ':';
  3893   001C6A  0E3A               	movlw	58
  3894   001C6C  6F86               	movwf	(_event+2)& (0+255),b
  3895   001C6E                     
  3896                           ; BSR set to: 0
  3897                           ;car_black_box.c: 57:     event[3] = '0' + ((clock_reg[1] >> 4) & 0x0F);
  3898   001C6E  39A3               	swapf	(_clock_reg+1)& (0+255),w,b
  3899   001C70  0B0F               	andlw	15
  3900   001C72  0B0F               	andlw	15
  3901   001C74  0F30               	addlw	48
  3902   001C76  6F87               	movwf	(_event+3)& (0+255),b
  3903   001C78                     
  3904                           ; BSR set to: 0
  3905                           ;car_black_box.c: 58:     event[4] = '0' + (clock_reg[1] & 0x0F);
  3906   001C78  51A3               	movf	(_clock_reg+1)& (0+255),w,b
  3907   001C7A  0B0F               	andlw	15
  3908   001C7C  0F30               	addlw	48
  3909   001C7E  6F88               	movwf	(_event+4)& (0+255),b
  3910   001C80                     
  3911                           ; BSR set to: 0
  3912                           ;car_black_box.c: 59:     event[5] = ':';
  3913   001C80  0E3A               	movlw	58
  3914   001C82  6F89               	movwf	(_event+5)& (0+255),b
  3915                           
  3916                           ;car_black_box.c: 60:     event[6] = '0' + ((clock_reg[2] >> 4) & 0x0F);
  3917   001C84  39A4               	swapf	(_clock_reg+2)& (0+255),w,b
  3918   001C86  0B0F               	andlw	15
  3919   001C88  0B0F               	andlw	15
  3920   001C8A  0F30               	addlw	48
  3921   001C8C  6F8A               	movwf	(_event+6)& (0+255),b
  3922                           
  3923                           ;car_black_box.c: 61:     event[7] = '0' + (clock_reg[2] & 0x0F);
  3924   001C8E  51A4               	movf	(_clock_reg+2)& (0+255),w,b
  3925   001C90  0B0F               	andlw	15
  3926   001C92  0F30               	addlw	48
  3927   001C94  6F8B               	movwf	(_event+7)& (0+255),b
  3928   001C96                     
  3929                           ; BSR set to: 0
  3930   001C96  0012               	return		;funcret
  3931   001C98                     __end_of_get_time:
  3932                           	callstack 0
  3933                           
  3934 ;; *************** function _read_ds1307 *****************
  3935 ;; Defined at:
  3936 ;;		line 54 in file "ds1307.c"
  3937 ;; Parameters:    Size  Location     Type
  3938 ;;  address         1    wreg     unsigned char 
  3939 ;; Auto vars:     Size  Location     Type
  3940 ;;  address         1    1[COMRAM] unsigned char 
  3941 ;;  data            1    2[COMRAM] unsigned char 
  3942 ;; Return value:  Size  Location     Type
  3943 ;;                  1    wreg      unsigned char 
  3944 ;; Registers used:
  3945 ;;		wreg, status,2, cstack
  3946 ;; Tracked objects:
  3947 ;;		On entry : 0/0
  3948 ;;		On exit  : 0/0
  3949 ;;		Unchanged: 0/0
  3950 ;; Data sizes:     COMRAM   BANK0   BANK1   BANK2   BANK3   BANK4   BANK5
  3951 ;;      Params:         0       0       0       0       0       0       0
  3952 ;;      Locals:         2       0       0       0       0       0       0
  3953 ;;      Temps:          0       0       0       0       0       0       0
  3954 ;;      Totals:         2       0       0       0       0       0       0
  3955 ;;Total ram usage:        2 bytes
  3956 ;; Hardware stack levels used: 1
  3957 ;; Hardware stack levels required when called: 4
  3958 ;; This function calls:
  3959 ;;		_i2c_read
  3960 ;;		_i2c_rep_start
  3961 ;;		_i2c_start
  3962 ;;		_i2c_stop
  3963 ;;		_i2c_write
  3964 ;; This function is called by:
  3965 ;;		_get_time
  3966 ;;		_init_ds1307
  3967 ;; This function uses a non-reentrant model
  3968 ;;
  3969                           
  3970                           	psect	text17
  3971   002160                     __ptext17:
  3972                           	callstack 0
  3973   002160                     _read_ds1307:
  3974                           	callstack 24
  3975                           
  3976                           ; BSR set to: 0
  3977                           ;incstack = 0
  3978                           ;read_ds1307@address stored from wreg
  3979   002160  6E02               	movwf	read_ds1307@address^0,c
  3980   002162                     
  3981                           ;ds1307.c: 54: unsigned char read_ds1307(unsigned char address);ds1307.c: 55: {;ds1307.c
      +                          : 56:  unsigned char data;;ds1307.c: 58:  i2c_start();
  3982   002162  EC39  F011         	call	_i2c_start	;wreg free
  3983   002166                     
  3984                           ;ds1307.c: 59:  i2c_write(0xD0);
  3985   002166  0ED0               	movlw	208
  3986   002168  EC23  F011         	call	_i2c_write
  3987   00216C                     
  3988                           ;ds1307.c: 60:  i2c_write(address);
  3989   00216C  5002               	movf	read_ds1307@address^0,w,c
  3990   00216E  EC23  F011         	call	_i2c_write
  3991   002172                     
  3992                           ;ds1307.c: 61:  i2c_rep_start();
  3993   002172  EC2D  F011         	call	_i2c_rep_start	;wreg free
  3994   002176                     
  3995                           ;ds1307.c: 62:  i2c_write(0xD1);
  3996   002176  0ED1               	movlw	209
  3997   002178  EC23  F011         	call	_i2c_write
  3998                           
  3999                           ;ds1307.c: 63:  data = i2c_read();
  4000   00217C  EC1D  F011         	call	_i2c_read	;wreg free
  4001   002180  6E03               	movwf	read_ds1307@data^0,c
  4002   002182                     
  4003                           ;ds1307.c: 64:  i2c_stop();
  4004   002182  EC35  F011         	call	_i2c_stop	;wreg free
  4005                           
  4006                           ;ds1307.c: 66:  return data;
  4007   002186  5003               	movf	read_ds1307@data^0,w,c
  4008   002188  0012               	return		;funcret
  4009   00218A                     __end_of_read_ds1307:
  4010                           	callstack 0
  4011                           
  4012 ;; *************** function _i2c_rep_start *****************
  4013 ;; Defined at:
  4014 ;;		line 58 in file "i2c.c"
  4015 ;; Parameters:    Size  Location     Type
  4016 ;;		None
  4017 ;; Auto vars:     Size  Location     Type
  4018 ;;		None
  4019 ;; Return value:  Size  Location     Type
  4020 ;;                  1    wreg      void 
  4021 ;; Registers used:
  4022 ;;		cstack
  4023 ;; Tracked objects:
  4024 ;;		On entry : 0/0
  4025 ;;		On exit  : 0/0
  4026 ;;		Unchanged: 0/0
  4027 ;; Data sizes:     COMRAM   BANK0   BANK1   BANK2   BANK3   BANK4   BANK5
  4028 ;;      Params:         0       0       0       0       0       0       0
  4029 ;;      Locals:         0       0       0       0       0       0       0
  4030 ;;      Temps:          0       0       0       0       0       0       0
  4031 ;;      Totals:         0       0       0       0       0       0       0
  4032 ;;Total ram usage:        0 bytes
  4033 ;; Hardware stack levels used: 1
  4034 ;; Hardware stack levels required when called: 2
  4035 ;; This function calls:
  4036 ;;		_i2c_idle
  4037 ;; This function is called by:
  4038 ;;		_read_external_eeprom
  4039 ;;		_read_ds1307
  4040 ;; This function uses a non-reentrant model
  4041 ;;
  4042                           
  4043                           	psect	text18
  4044   00225A                     __ptext18:
  4045                           	callstack 0
  4046   00225A                     _i2c_rep_start:
  4047                           	callstack 26
  4048   00225A                     
  4049                           ;i2c.c: 60:  RSEN = 1;
  4050   00225A  82C5               	bsf	4037,1,c	;volatile
  4051   00225C                     
  4052                           ;i2c.c: 61:  i2c_idle();
  4053   00225C  EC14  F011         	call	_i2c_idle	;wreg free
  4054   002260  0012               	return		;funcret
  4055   002262                     __end_of_i2c_rep_start:
  4056                           	callstack 0
  4057                           
  4058 ;; *************** function _i2c_read *****************
  4059 ;; Defined at:
  4060 ;;		line 82 in file "i2c.c"
  4061 ;; Parameters:    Size  Location     Type
  4062 ;;		None
  4063 ;; Auto vars:     Size  Location     Type
  4064 ;;		None
  4065 ;; Return value:  Size  Location     Type
  4066 ;;                  1    wreg      unsigned char 
  4067 ;; Registers used:
  4068 ;;		wreg, status,2, cstack
  4069 ;; Tracked objects:
  4070 ;;		On entry : 0/0
  4071 ;;		On exit  : 0/0
  4072 ;;		Unchanged: 0/0
  4073 ;; Data sizes:     COMRAM   BANK0   BANK1   BANK2   BANK3   BANK4   BANK5
  4074 ;;      Params:         0       0       0       0       0       0       0
  4075 ;;      Locals:         0       0       0       0       0       0       0
  4076 ;;      Temps:          0       0       0       0       0       0       0
  4077 ;;      Totals:         0       0       0       0       0       0       0
  4078 ;;Total ram usage:        0 bytes
  4079 ;; Hardware stack levels used: 1
  4080 ;; Hardware stack levels required when called: 3
  4081 ;; This function calls:
  4082 ;;		_i2c_no_ack
  4083 ;;		_i2c_rx_mode
  4084 ;; This function is called by:
  4085 ;;		_read_external_eeprom
  4086 ;;		_read_ds1307
  4087 ;; This function uses a non-reentrant model
  4088 ;;
  4089                           
  4090                           	psect	text19
  4091   00223A                     __ptext19:
  4092                           	callstack 0
  4093   00223A                     _i2c_read:
  4094                           	callstack 25
  4095   00223A                     
  4096                           ;i2c.c: 84:  i2c_rx_mode();
  4097   00223A  EC31  F011         	call	_i2c_rx_mode	;wreg free
  4098                           
  4099                           ;i2c.c: 85:  i2c_no_ack();
  4100   00223E  EC3D  F011         	call	_i2c_no_ack	;wreg free
  4101   002242                     
  4102                           ;i2c.c: 87:  return SSPBUF;
  4103   002242  50C9               	movf	201,w,c	;volatile
  4104   002244  0012               	return		;funcret
  4105   002246                     __end_of_i2c_read:
  4106                           	callstack 0
  4107                           
  4108 ;; *************** function _i2c_rx_mode *****************
  4109 ;; Defined at:
  4110 ;;		line 70 in file "i2c.c"
  4111 ;; Parameters:    Size  Location     Type
  4112 ;;		None
  4113 ;; Auto vars:     Size  Location     Type
  4114 ;;		None
  4115 ;; Return value:  Size  Location     Type
  4116 ;;                  1    wreg      void 
  4117 ;; Registers used:
  4118 ;;		cstack
  4119 ;; Tracked objects:
  4120 ;;		On entry : 0/0
  4121 ;;		On exit  : 0/0
  4122 ;;		Unchanged: 0/0
  4123 ;; Data sizes:     COMRAM   BANK0   BANK1   BANK2   BANK3   BANK4   BANK5
  4124 ;;      Params:         0       0       0       0       0       0       0
  4125 ;;      Locals:         0       0       0       0       0       0       0
  4126 ;;      Temps:          0       0       0       0       0       0       0
  4127 ;;      Totals:         0       0       0       0       0       0       0
  4128 ;;Total ram usage:        0 bytes
  4129 ;; Hardware stack levels used: 1
  4130 ;; Hardware stack levels required when called: 2
  4131 ;; This function calls:
  4132 ;;		_i2c_idle
  4133 ;; This function is called by:
  4134 ;;		_i2c_read
  4135 ;; This function uses a non-reentrant model
  4136 ;;
  4137                           
  4138                           	psect	text20
  4139   002262                     __ptext20:
  4140                           	callstack 0
  4141   002262                     _i2c_rx_mode:
  4142                           	callstack 25
  4143   002262                     
  4144                           ;i2c.c: 72:  RCEN = 1;
  4145   002262  86C5               	bsf	4037,3,c	;volatile
  4146   002264                     
  4147                           ;i2c.c: 73:  i2c_idle();
  4148   002264  EC14  F011         	call	_i2c_idle	;wreg free
  4149   002268  0012               	return		;funcret
  4150   00226A                     __end_of_i2c_rx_mode:
  4151                           	callstack 0
  4152                           
  4153 ;; *************** function _i2c_no_ack *****************
  4154 ;; Defined at:
  4155 ;;		line 76 in file "i2c.c"
  4156 ;; Parameters:    Size  Location     Type
  4157 ;;		None
  4158 ;; Auto vars:     Size  Location     Type
  4159 ;;		None
  4160 ;; Return value:  Size  Location     Type
  4161 ;;                  1    wreg      void 
  4162 ;; Registers used:
  4163 ;;		None
  4164 ;; Tracked objects:
  4165 ;;		On entry : 0/0
  4166 ;;		On exit  : 0/0
  4167 ;;		Unchanged: 0/0
  4168 ;; Data sizes:     COMRAM   BANK0   BANK1   BANK2   BANK3   BANK4   BANK5
  4169 ;;      Params:         0       0       0       0       0       0       0
  4170 ;;      Locals:         0       0       0       0       0       0       0
  4171 ;;      Temps:          0       0       0       0       0       0       0
  4172 ;;      Totals:         0       0       0       0       0       0       0
  4173 ;;Total ram usage:        0 bytes
  4174 ;; Hardware stack levels used: 1
  4175 ;; Hardware stack levels required when called: 1
  4176 ;; This function calls:
  4177 ;;		Nothing
  4178 ;; This function is called by:
  4179 ;;		_i2c_read
  4180 ;; This function uses a non-reentrant model
  4181 ;;
  4182                           
  4183                           	psect	text21
  4184   00227A                     __ptext21:
  4185                           	callstack 0
  4186   00227A                     _i2c_no_ack:
  4187                           	callstack 26
  4188   00227A                     
  4189                           ;i2c.c: 78:  ACKDT = 1;
  4190   00227A  8AC5               	bsf	4037,5,c	;volatile
  4191                           
  4192                           ;i2c.c: 79:  ACKEN = 1;
  4193   00227C  88C5               	bsf	4037,4,c	;volatile
  4194   00227E  0012               	return		;funcret
  4195   002280                     __end_of_i2c_no_ack:
  4196                           	callstack 0
  4197                           
  4198 ;; *************** function _display_speed *****************
  4199 ;; Defined at:
  4200 ;;		line 92 in file "car_black_box.c"
  4201 ;; Parameters:    Size  Location     Type
  4202 ;;  speed           2    7[COMRAM] unsigned short 
  4203 ;; Auto vars:     Size  Location     Type
  4204 ;;		None
  4205 ;; Return value:  Size  Location     Type
  4206 ;;                  1    wreg      void 
  4207 ;; Registers used:
  4208 ;;		wreg, status,2, status,0, cstack
  4209 ;; Tracked objects:
  4210 ;;		On entry : 0/0
  4211 ;;		On exit  : 0/0
  4212 ;;		Unchanged: 0/0
  4213 ;; Data sizes:     COMRAM   BANK0   BANK1   BANK2   BANK3   BANK4   BANK5
  4214 ;;      Params:         2       0       0       0       0       0       0
  4215 ;;      Locals:         0       0       0       0       0       0       0
  4216 ;;      Temps:          0       0       0       0       0       0       0
  4217 ;;      Totals:         2       0       0       0       0       0       0
  4218 ;;Total ram usage:        2 bytes
  4219 ;; Hardware stack levels used: 1
  4220 ;; Hardware stack levels required when called: 2
  4221 ;; This function calls:
  4222 ;;		___lwdiv
  4223 ;;		___lwmod
  4224 ;; This function is called by:
  4225 ;;		_main
  4226 ;; This function uses a non-reentrant model
  4227 ;;
  4228                           
  4229                           	psect	text22
  4230   002084                     __ptext22:
  4231                           	callstack 0
  4232   002084                     _display_speed:
  4233                           	callstack 28
  4234   002084                     
  4235                           ;car_black_box.c: 93:     event[14] = (speed / 10) + 48;
  4236   002084  C008  F001         	movff	display_speed@speed,___lwdiv@dividend
  4237   002088  C009  F002         	movff	display_speed@speed+1,___lwdiv@dividend+1
  4238   00208C  0E00               	movlw	0
  4239   00208E  6E04               	movwf	(___lwdiv@divisor+1)^0,c
  4240   002090  0E0A               	movlw	10
  4241   002092  6E03               	movwf	___lwdiv@divisor^0,c
  4242   002094  EC4C  F00E         	call	___lwdiv	;wreg free
  4243   002098  5001               	movf	?___lwdiv^0,w,c
  4244   00209A  0F30               	addlw	48
  4245   00209C  0100               	movlb	0	; () banked
  4246   00209E  6F92               	movwf	(_event+14)& (0+255),b
  4247                           
  4248                           ;car_black_box.c: 94:     event[15] = (speed % 10) + 48;
  4249   0020A0  C008  F001         	movff	display_speed@speed,___lwmod@dividend
  4250   0020A4  C009  F002         	movff	display_speed@speed+1,___lwmod@dividend+1
  4251   0020A8  0E00               	movlw	0
  4252   0020AA  6E04               	movwf	(___lwmod@divisor+1)^0,c
  4253   0020AC  0E0A               	movlw	10
  4254   0020AE  6E03               	movwf	___lwmod@divisor^0,c
  4255   0020B0  EC28  F00F         	call	___lwmod	;wreg free
  4256   0020B4  5001               	movf	?___lwmod^0,w,c
  4257   0020B6  0F30               	addlw	48
  4258   0020B8  0100               	movlb	0	; () banked
  4259   0020BA  6F93               	movwf	(_event+15)& (0+255),b
  4260   0020BC                     
  4261                           ; BSR set to: 0
  4262                           ;car_black_box.c: 95:     event[16] = '\0';
  4263   0020BC  0E00               	movlw	0
  4264   0020BE  6F94               	movwf	(_event+16)& (0+255),b
  4265   0020C0                     
  4266                           ; BSR set to: 0
  4267   0020C0  0012               	return		;funcret
  4268   0020C2                     __end_of_display_speed:
  4269                           	callstack 0
  4270                           
  4271 ;; *************** function ___lwmod *****************
  4272 ;; Defined at:
  4273 ;;		line 7 in file "C:\Program Files\Microchip\xc8\v2.41\pic\sources\c99\common\lwmod.c"
  4274 ;; Parameters:    Size  Location     Type
  4275 ;;  dividend        2    0[COMRAM] unsigned int 
  4276 ;;  divisor         2    2[COMRAM] unsigned int 
  4277 ;; Auto vars:     Size  Location     Type
  4278 ;;  counter         1    4[COMRAM] unsigned char 
  4279 ;; Return value:  Size  Location     Type
  4280 ;;                  2    0[COMRAM] unsigned int 
  4281 ;; Registers used:
  4282 ;;		wreg, status,2, status,0
  4283 ;; Tracked objects:
  4284 ;;		On entry : 0/0
  4285 ;;		On exit  : 0/0
  4286 ;;		Unchanged: 0/0
  4287 ;; Data sizes:     COMRAM   BANK0   BANK1   BANK2   BANK3   BANK4   BANK5
  4288 ;;      Params:         4       0       0       0       0       0       0
  4289 ;;      Locals:         1       0       0       0       0       0       0
  4290 ;;      Temps:          0       0       0       0       0       0       0
  4291 ;;      Totals:         5       0       0       0       0       0       0
  4292 ;;Total ram usage:        5 bytes
  4293 ;; Hardware stack levels used: 1
  4294 ;; Hardware stack levels required when called: 1
  4295 ;; This function calls:
  4296 ;;		Nothing
  4297 ;; This function is called by:
  4298 ;;		_display_speed
  4299 ;;		_read_password
  4300 ;;		_view_log
  4301 ;; This function uses a non-reentrant model
  4302 ;;
  4303                           
  4304                           	psect	text23
  4305   001E50                     __ptext23:
  4306                           	callstack 0
  4307   001E50                     ___lwmod:
  4308                           	callstack 28
  4309   001E50  5003               	movf	___lwmod@divisor^0,w,c
  4310   001E52  1004               	iorwf	(___lwmod@divisor+1)^0,w,c
  4311   001E54  B4D8               	btfsc	status,2,c
  4312   001E56  EF2F  F00F         	goto	u2251
  4313   001E5A  EF31  F00F         	goto	u2250
  4314   001E5E                     u2251:
  4315   001E5E  EF55  F00F         	goto	l1109
  4316   001E62                     u2250:
  4317   001E62  0E01               	movlw	1
  4318   001E64  6E05               	movwf	___lwmod@counter^0,c
  4319   001E66  EF39  F00F         	goto	l2935
  4320   001E6A                     l2933:
  4321   001E6A  90D8               	bcf	status,0,c
  4322   001E6C  3603               	rlcf	___lwmod@divisor^0,f,c
  4323   001E6E  3604               	rlcf	(___lwmod@divisor+1)^0,f,c
  4324   001E70  2A05               	incf	___lwmod@counter^0,f,c
  4325   001E72                     l2935:
  4326   001E72  AE04               	btfss	(___lwmod@divisor+1)^0,7,c
  4327   001E74  EF3E  F00F         	goto	u2261
  4328   001E78  EF40  F00F         	goto	u2260
  4329   001E7C                     u2261:
  4330   001E7C  EF35  F00F         	goto	l2933
  4331   001E80                     u2260:
  4332   001E80                     l2937:
  4333   001E80  5003               	movf	___lwmod@divisor^0,w,c
  4334   001E82  5C01               	subwf	___lwmod@dividend^0,w,c
  4335   001E84  5004               	movf	(___lwmod@divisor+1)^0,w,c
  4336   001E86  5802               	subwfb	(___lwmod@dividend+1)^0,w,c
  4337   001E88  A0D8               	btfss	status,0,c
  4338   001E8A  EF49  F00F         	goto	u2271
  4339   001E8E  EF4B  F00F         	goto	u2270
  4340   001E92                     u2271:
  4341   001E92  EF4F  F00F         	goto	l2941
  4342   001E96                     u2270:
  4343   001E96  5003               	movf	___lwmod@divisor^0,w,c
  4344   001E98  5E01               	subwf	___lwmod@dividend^0,f,c
  4345   001E9A  5004               	movf	(___lwmod@divisor+1)^0,w,c
  4346   001E9C  5A02               	subwfb	(___lwmod@dividend+1)^0,f,c
  4347   001E9E                     l2941:
  4348   001E9E  90D8               	bcf	status,0,c
  4349   001EA0  3204               	rrcf	(___lwmod@divisor+1)^0,f,c
  4350   001EA2  3203               	rrcf	___lwmod@divisor^0,f,c
  4351   001EA4  2E05               	decfsz	___lwmod@counter^0,f,c
  4352   001EA6  EF40  F00F         	goto	l2937
  4353   001EAA                     l1109:
  4354   001EAA  C001  F001         	movff	___lwmod@dividend,?___lwmod
  4355   001EAE  C002  F002         	movff	___lwmod@dividend+1,?___lwmod+1
  4356   001EB2  0012               	return		;funcret
  4357   001EB4                     __end_of___lwmod:
  4358                           	callstack 0
  4359                           
  4360 ;; *************** function ___lwdiv *****************
  4361 ;; Defined at:
  4362 ;;		line 7 in file "C:\Program Files\Microchip\xc8\v2.41\pic\sources\c99\common\lwdiv.c"
  4363 ;; Parameters:    Size  Location     Type
  4364 ;;  dividend        2    0[COMRAM] unsigned int 
  4365 ;;  divisor         2    2[COMRAM] unsigned int 
  4366 ;; Auto vars:     Size  Location     Type
  4367 ;;  quotient        2    4[COMRAM] unsigned int 
  4368 ;;  counter         1    6[COMRAM] unsigned char 
  4369 ;; Return value:  Size  Location     Type
  4370 ;;                  2    0[COMRAM] unsigned int 
  4371 ;; Registers used:
  4372 ;;		wreg, status,2, status,0
  4373 ;; Tracked objects:
  4374 ;;		On entry : 0/0
  4375 ;;		On exit  : 0/0
  4376 ;;		Unchanged: 0/0
  4377 ;; Data sizes:     COMRAM   BANK0   BANK1   BANK2   BANK3   BANK4   BANK5
  4378 ;;      Params:         4       0       0       0       0       0       0
  4379 ;;      Locals:         3       0       0       0       0       0       0
  4380 ;;      Temps:          0       0       0       0       0       0       0
  4381 ;;      Totals:         7       0       0       0       0       0       0
  4382 ;;Total ram usage:        7 bytes
  4383 ;; Hardware stack levels used: 1
  4384 ;; Hardware stack levels required when called: 1
  4385 ;; This function calls:
  4386 ;;		Nothing
  4387 ;; This function is called by:
  4388 ;;		_display_speed
  4389 ;;		_read_password
  4390 ;; This function uses a non-reentrant model
  4391 ;;
  4392                           
  4393                           	psect	text24
  4394   001C98                     __ptext24:
  4395                           	callstack 0
  4396   001C98                     ___lwdiv:
  4397                           	callstack 28
  4398   001C98  0E00               	movlw	0
  4399   001C9A  6E06               	movwf	(___lwdiv@quotient+1)^0,c
  4400   001C9C  0E00               	movlw	0
  4401   001C9E  6E05               	movwf	___lwdiv@quotient^0,c
  4402   001CA0  5003               	movf	___lwdiv@divisor^0,w,c
  4403   001CA2  1004               	iorwf	(___lwdiv@divisor+1)^0,w,c
  4404   001CA4  B4D8               	btfsc	status,2,c
  4405   001CA6  EF57  F00E         	goto	u2221
  4406   001CAA  EF59  F00E         	goto	u2220
  4407   001CAE                     u2221:
  4408   001CAE  EF81  F00E         	goto	l1099
  4409   001CB2                     u2220:
  4410   001CB2  0E01               	movlw	1
  4411   001CB4  6E07               	movwf	___lwdiv@counter^0,c
  4412   001CB6  EF61  F00E         	goto	l2915
  4413   001CBA                     l2913:
  4414   001CBA  90D8               	bcf	status,0,c
  4415   001CBC  3603               	rlcf	___lwdiv@divisor^0,f,c
  4416   001CBE  3604               	rlcf	(___lwdiv@divisor+1)^0,f,c
  4417   001CC0  2A07               	incf	___lwdiv@counter^0,f,c
  4418   001CC2                     l2915:
  4419   001CC2  AE04               	btfss	(___lwdiv@divisor+1)^0,7,c
  4420   001CC4  EF66  F00E         	goto	u2231
  4421   001CC8  EF68  F00E         	goto	u2230
  4422   001CCC                     u2231:
  4423   001CCC  EF5D  F00E         	goto	l2913
  4424   001CD0                     u2230:
  4425   001CD0                     l2917:
  4426   001CD0  90D8               	bcf	status,0,c
  4427   001CD2  3605               	rlcf	___lwdiv@quotient^0,f,c
  4428   001CD4  3606               	rlcf	(___lwdiv@quotient+1)^0,f,c
  4429   001CD6  5003               	movf	___lwdiv@divisor^0,w,c
  4430   001CD8  5C01               	subwf	___lwdiv@dividend^0,w,c
  4431   001CDA  5004               	movf	(___lwdiv@divisor+1)^0,w,c
  4432   001CDC  5802               	subwfb	(___lwdiv@dividend+1)^0,w,c
  4433   001CDE  A0D8               	btfss	status,0,c
  4434   001CE0  EF74  F00E         	goto	u2241
  4435   001CE4  EF76  F00E         	goto	u2240
  4436   001CE8                     u2241:
  4437   001CE8  EF7B  F00E         	goto	l2925
  4438   001CEC                     u2240:
  4439   001CEC  5003               	movf	___lwdiv@divisor^0,w,c
  4440   001CEE  5E01               	subwf	___lwdiv@dividend^0,f,c
  4441   001CF0  5004               	movf	(___lwdiv@divisor+1)^0,w,c
  4442   001CF2  5A02               	subwfb	(___lwdiv@dividend+1)^0,f,c
  4443   001CF4  8005               	bsf	___lwdiv@quotient^0,0,c
  4444   001CF6                     l2925:
  4445   001CF6  90D8               	bcf	status,0,c
  4446   001CF8  3204               	rrcf	(___lwdiv@divisor+1)^0,f,c
  4447   001CFA  3203               	rrcf	___lwdiv@divisor^0,f,c
  4448   001CFC  2E07               	decfsz	___lwdiv@counter^0,f,c
  4449   001CFE  EF68  F00E         	goto	l2917
  4450   001D02                     l1099:
  4451   001D02  C005  F001         	movff	___lwdiv@quotient,?___lwdiv
  4452   001D06  C006  F002         	movff	___lwdiv@quotient+1,?___lwdiv+1
  4453   001D0A  0012               	return		;funcret
  4454   001D0C                     __end_of___lwdiv:
  4455                           	callstack 0
  4456                           
  4457 ;; *************** function _display_dashboard *****************
  4458 ;; Defined at:
  4459 ;;		line 36 in file "car_black_box.c"
  4460 ;; Parameters:    Size  Location     Type
  4461 ;;  key             1    wreg     unsigned char 
  4462 ;; Auto vars:     Size  Location     Type
  4463 ;;  key             1   16[COMRAM] unsigned char 
  4464 ;; Return value:  Size  Location     Type
  4465 ;;                  1    wreg      void 
  4466 ;; Registers used:
  4467 ;;		wreg, fsr1l, fsr1h, fsr2l, fsr2h, status,2, status,0, tblptrl, tblptrh, tblptru, cstack
  4468 ;; Tracked objects:
  4469 ;;		On entry : 0/0
  4470 ;;		On exit  : 0/0
  4471 ;;		Unchanged: 0/0
  4472 ;; Data sizes:     COMRAM   BANK0   BANK1   BANK2   BANK3   BANK4   BANK5
  4473 ;;      Params:         0       0       0       0       0       0       0
  4474 ;;      Locals:         1       0       0       0       0       0       0
  4475 ;;      Temps:          0       0       0       0       0       0       0
  4476 ;;      Totals:         1       0       0       0       0       0       0
  4477 ;;Total ram usage:        1 bytes
  4478 ;; Hardware stack levels used: 1
  4479 ;; Hardware stack levels required when called: 6
  4480 ;; This function calls:
  4481 ;;		_clcd_print
  4482 ;;		_gear_monitor
  4483 ;; This function is called by:
  4484 ;;		_main
  4485 ;; This function uses a non-reentrant model
  4486 ;;
  4487                           
  4488                           	psect	text25
  4489   001EB4                     __ptext25:
  4490                           	callstack 0
  4491   001EB4                     _display_dashboard:
  4492                           	callstack 24
  4493                           
  4494                           ;incstack = 0
  4495                           ;display_dashboard@key stored from wreg
  4496   001EB4  6E11               	movwf	display_dashboard@key^0,c
  4497   001EB6                     
  4498                           ;car_black_box.c: 37:     clcd_print("  TIME    EV  SP", (0x80 + (0)));
  4499   001EB6  0E1D               	movlw	low STR_18
  4500   001EB8  6E03               	movwf	clcd_print@data^0,c
  4501   001EBA  0E2F               	movlw	high STR_18
  4502   001EBC  6E04               	movwf	(clcd_print@data+1)^0,c
  4503   001EBE  0E80               	movlw	128
  4504   001EC0  6E05               	movwf	clcd_print@addr^0,c
  4505   001EC2  ECBF  F00E         	call	_clcd_print	;wreg free
  4506   001EC6                     
  4507                           ;car_black_box.c: 38:     if (key == 1 || key == 2 || key == 3) {
  4508   001EC6  0411               	decf	display_dashboard@key^0,w,c
  4509   001EC8  B4D8               	btfsc	status,2,c
  4510   001ECA  EF69  F00F         	goto	u2351
  4511   001ECE  EF6B  F00F         	goto	u2350
  4512   001ED2                     u2351:
  4513   001ED2  EF7D  F00F         	goto	l3023
  4514   001ED6                     u2350:
  4515   001ED6  0E02               	movlw	2
  4516   001ED8  1811               	xorwf	display_dashboard@key^0,w,c
  4517   001EDA  B4D8               	btfsc	status,2,c
  4518   001EDC  EF72  F00F         	goto	u2361
  4519   001EE0  EF74  F00F         	goto	u2360
  4520   001EE4                     u2361:
  4521   001EE4  EF7D  F00F         	goto	l3023
  4522   001EE8                     u2360:
  4523   001EE8  0E03               	movlw	3
  4524   001EEA  1811               	xorwf	display_dashboard@key^0,w,c
  4525   001EEC  A4D8               	btfss	status,2,c
  4526   001EEE  EF7B  F00F         	goto	u2371
  4527   001EF2  EF7D  F00F         	goto	u2370
  4528   001EF6                     u2371:
  4529   001EF6  EF80  F00F         	goto	l3025
  4530   001EFA                     u2370:
  4531   001EFA                     l3023:
  4532                           
  4533                           ;car_black_box.c: 39:         gear_monitor(key);
  4534   001EFA  5011               	movf	display_dashboard@key^0,w,c
  4535   001EFC  EC33  F00B         	call	_gear_monitor
  4536   001F00                     l3025:
  4537                           
  4538                           ;car_black_box.c: 41:     clcd_print(event, (0xC0 + (0)));
  4539   001F00  0E84               	movlw	low _event
  4540   001F02  6E03               	movwf	clcd_print@data^0,c
  4541   001F04  0E00               	movlw	high _event
  4542   001F06  6E04               	movwf	(clcd_print@data+1)^0,c
  4543   001F08  0EC0               	movlw	192
  4544   001F0A  6E05               	movwf	clcd_print@addr^0,c
  4545   001F0C  ECBF  F00E         	call	_clcd_print	;wreg free
  4546   001F10  0012               	return		;funcret
  4547   001F12                     __end_of_display_dashboard:
  4548                           	callstack 0
  4549                           
  4550 ;; *************** function _gear_monitor *****************
  4551 ;; Defined at:
  4552 ;;		line 66 in file "car_black_box.c"
  4553 ;; Parameters:    Size  Location     Type
  4554 ;;  key             1    wreg     unsigned char 
  4555 ;; Auto vars:     Size  Location     Type
  4556 ;;  key             1   15[COMRAM] unsigned char 
  4557 ;; Return value:  Size  Location     Type
  4558 ;;                  1    wreg      void 
  4559 ;; Registers used:
  4560 ;;		wreg, fsr2l, fsr2h, status,2, status,0, tblptrl, tblptrh, tblptru, cstack
  4561 ;; Tracked objects:
  4562 ;;		On entry : 0/0
  4563 ;;		On exit  : 0/0
  4564 ;;		Unchanged: 0/0
  4565 ;; Data sizes:     COMRAM   BANK0   BANK1   BANK2   BANK3   BANK4   BANK5
  4566 ;;      Params:         0       0       0       0       0       0       0
  4567 ;;      Locals:         1       0       0       0       0       0       0
  4568 ;;      Temps:          2       0       0       0       0       0       0
  4569 ;;      Totals:         3       0       0       0       0       0       0
  4570 ;;Total ram usage:        3 bytes
  4571 ;; Hardware stack levels used: 1
  4572 ;; Hardware stack levels required when called: 5
  4573 ;; This function calls:
  4574 ;;		_store_event
  4575 ;; This function is called by:
  4576 ;;		_display_dashboard
  4577 ;; This function uses a non-reentrant model
  4578 ;;
  4579                           
  4580                           	psect	text26
  4581   001666                     __ptext26:
  4582                           	callstack 0
  4583   001666                     _gear_monitor:
  4584                           	callstack 24
  4585                           
  4586                           ;incstack = 0
  4587                           ;gear_monitor@key stored from wreg
  4588   001666  6E10               	movwf	gear_monitor@key^0,c
  4589   001668                     
  4590                           ;car_black_box.c: 67:     if (key == 1 && previous_key != 1) {
  4591   001668  0410               	decf	gear_monitor@key^0,w,c
  4592   00166A  A4D8               	btfss	status,2,c
  4593   00166C  EF3A  F00B         	goto	u1951
  4594   001670  EF3C  F00B         	goto	u1950
  4595   001674                     u1951:
  4596   001674  EF4D  F00B         	goto	l2775
  4597   001678                     u1950:
  4598   001678  044B               	decf	_previous_key^0,w,c
  4599   00167A  104C               	iorwf	(_previous_key+1)^0,w,c
  4600   00167C  B4D8               	btfsc	status,2,c
  4601   00167E  EF43  F00B         	goto	u1961
  4602   001682  EF45  F00B         	goto	u1960
  4603   001686                     u1961:
  4604   001686  EF4D  F00B         	goto	l2775
  4605   00168A                     u1960:
  4606   00168A                     
  4607                           ;car_black_box.c: 68:         gear_flag = 1;
  4608   00168A  0E01               	movlw	1
  4609   00168C  6E56               	movwf	_gear_flag^0,c
  4610                           
  4611                           ;car_black_box.c: 69:         gear_index = 7;
  4612   00168E  0E00               	movlw	0
  4613   001690  6E52               	movwf	(_gear_index+1)^0,c
  4614   001692  0E07               	movlw	7
  4615   001694  6E51               	movwf	_gear_index^0,c
  4616                           
  4617                           ;car_black_box.c: 70:     } else if (key == 2 || key == 3) {
  4618   001696  EFC0  F00B         	goto	l2805
  4619   00169A                     l2775:
  4620   00169A  0E02               	movlw	2
  4621   00169C  1810               	xorwf	gear_monitor@key^0,w,c
  4622   00169E  B4D8               	btfsc	status,2,c
  4623   0016A0  EF54  F00B         	goto	u1971
  4624   0016A4  EF56  F00B         	goto	u1970
  4625   0016A8                     u1971:
  4626   0016A8  EF5F  F00B         	goto	l2779
  4627   0016AC                     u1970:
  4628   0016AC  0E03               	movlw	3
  4629   0016AE  1810               	xorwf	gear_monitor@key^0,w,c
  4630   0016B0  A4D8               	btfss	status,2,c
  4631   0016B2  EF5D  F00B         	goto	u1981
  4632   0016B6  EF5F  F00B         	goto	u1980
  4633   0016BA                     u1981:
  4634   0016BA  EFC0  F00B         	goto	l2805
  4635   0016BE                     u1980:
  4636   0016BE                     l2779:
  4637                           
  4638                           ;car_black_box.c: 71:         if (gear_index == 7 && key == 2 && previous_key != 2) {
  4639   0016BE  0E07               	movlw	7
  4640   0016C0  1851               	xorwf	_gear_index^0,w,c
  4641   0016C2  1052               	iorwf	(_gear_index+1)^0,w,c
  4642   0016C4  A4D8               	btfss	status,2,c
  4643   0016C6  EF67  F00B         	goto	u1991
  4644   0016CA  EF69  F00B         	goto	u1990
  4645   0016CE                     u1991:
  4646   0016CE  EF82  F00B         	goto	l2787
  4647   0016D2                     u1990:
  4648   0016D2  0E02               	movlw	2
  4649   0016D4  1810               	xorwf	gear_monitor@key^0,w,c
  4650   0016D6  A4D8               	btfss	status,2,c
  4651   0016D8  EF70  F00B         	goto	u2001
  4652   0016DC  EF72  F00B         	goto	u2000
  4653   0016E0                     u2001:
  4654   0016E0  EF82  F00B         	goto	l2787
  4655   0016E4                     u2000:
  4656   0016E4  0E02               	movlw	2
  4657   0016E6  184B               	xorwf	_previous_key^0,w,c
  4658   0016E8  104C               	iorwf	(_previous_key+1)^0,w,c
  4659   0016EA  B4D8               	btfsc	status,2,c
  4660   0016EC  EF7A  F00B         	goto	u2011
  4661   0016F0  EF7C  F00B         	goto	u2010
  4662   0016F4                     u2011:
  4663   0016F4  EF82  F00B         	goto	l2787
  4664   0016F8                     u2010:
  4665   0016F8                     
  4666                           ;car_black_box.c: 72:             gear_flag = 1;
  4667   0016F8  0E01               	movlw	1
  4668   0016FA  6E56               	movwf	_gear_flag^0,c
  4669                           
  4670                           ;car_black_box.c: 73:             gear_index = 0;
  4671   0016FC  0E00               	movlw	0
  4672   0016FE  6E52               	movwf	(_gear_index+1)^0,c
  4673   001700  0E00               	movlw	0
  4674   001702  6E51               	movwf	_gear_index^0,c
  4675   001704                     l2787:
  4676                           
  4677                           ;car_black_box.c: 75:         if (key == 2 && gear_index < 6) {
  4678   001704  0E02               	movlw	2
  4679   001706  1810               	xorwf	gear_monitor@key^0,w,c
  4680   001708  A4D8               	btfss	status,2,c
  4681   00170A  EF89  F00B         	goto	u2021
  4682   00170E  EF8B  F00B         	goto	u2020
  4683   001712                     u2021:
  4684   001712  EF9C  F00B         	goto	l2795
  4685   001716                     u2020:
  4686   001716  5052               	movf	(_gear_index+1)^0,w,c
  4687   001718  E107               	bnz	u2031
  4688   00171A  0E06               	movlw	6
  4689   00171C  5C51               	subwf	_gear_index^0,w,c
  4690   00171E  B0D8               	btfsc	status,0,c
  4691   001720  EF94  F00B         	goto	u2031
  4692   001724  EF96  F00B         	goto	u2030
  4693   001728                     u2031:
  4694   001728  EF9C  F00B         	goto	l2795
  4695   00172C                     u2030:
  4696   00172C                     
  4697                           ;car_black_box.c: 76:             gear_index++;
  4698   00172C  4A51               	infsnz	_gear_index^0,f,c
  4699   00172E  2A52               	incf	(_gear_index+1)^0,f,c
  4700   001730                     l2793:
  4701                           
  4702                           ;car_black_box.c: 77:             gear_flag = 1;
  4703   001730  0E01               	movlw	1
  4704   001732  6E56               	movwf	_gear_flag^0,c
  4705                           
  4706                           ;car_black_box.c: 78:         } else if (key == 3 && gear_index > 1 && gear_index < 7) {
  4707   001734  EFC0  F00B         	goto	l2805
  4708   001738                     l2795:
  4709   001738  0E03               	movlw	3
  4710   00173A  1810               	xorwf	gear_monitor@key^0,w,c
  4711   00173C  A4D8               	btfss	status,2,c
  4712   00173E  EFA3  F00B         	goto	u2041
  4713   001742  EFA5  F00B         	goto	u2040
  4714   001746                     u2041:
  4715   001746  EFC0  F00B         	goto	l183
  4716   00174A                     u2040:
  4717   00174A  5052               	movf	(_gear_index+1)^0,w,c
  4718   00174C  E109               	bnz	u2050
  4719   00174E  0E02               	movlw	2
  4720   001750  5C51               	subwf	_gear_index^0,w,c
  4721   001752  A0D8               	btfss	status,0,c
  4722   001754  EFAE  F00B         	goto	u2051
  4723   001758  EFB0  F00B         	goto	u2050
  4724   00175C                     u2051:
  4725   00175C  EFC0  F00B         	goto	l183
  4726   001760                     u2050:
  4727   001760  5052               	movf	(_gear_index+1)^0,w,c
  4728   001762  E107               	bnz	u2061
  4729   001764  0E07               	movlw	7
  4730   001766  5C51               	subwf	_gear_index^0,w,c
  4731   001768  B0D8               	btfsc	status,0,c
  4732   00176A  EFB9  F00B         	goto	u2061
  4733   00176E  EFBB  F00B         	goto	u2060
  4734   001772                     u2061:
  4735   001772  EFC0  F00B         	goto	l183
  4736   001776                     u2060:
  4737   001776                     
  4738                           ;car_black_box.c: 79:             gear_index--;
  4739   001776  0651               	decf	_gear_index^0,f,c
  4740   001778  A0D8               	btfss	status,0,c
  4741   00177A  0652               	decf	(_gear_index+1)^0,f,c
  4742   00177C  EF98  F00B         	goto	l2793
  4743   001780                     l183:
  4744   001780                     l2805:
  4745                           
  4746                           ;car_black_box.c: 83:     if (gear_flag == 1) {
  4747   001780  0456               	decf	_gear_flag^0,w,c
  4748   001782  A4D8               	btfss	status,2,c
  4749   001784  EFC6  F00B         	goto	u2071
  4750   001788  EFC8  F00B         	goto	u2070
  4751   00178C                     u2071:
  4752   00178C  EFF8  F00B         	goto	l2815
  4753   001790                     u2070:
  4754   001790                     
  4755                           ;car_black_box.c: 84:         gear_flag = 0;
  4756   001790  0E00               	movlw	0
  4757   001792  6E56               	movwf	_gear_flag^0,c
  4758   001794                     
  4759                           ;car_black_box.c: 85:         event[10] = gear_data[gear_index][0];
  4760   001794  90D8               	bcf	status,0,c
  4761   001796  3451               	rlcf	_gear_index^0,w,c
  4762   001798  6ED9               	movwf	fsr2l,c
  4763   00179A  3452               	rlcf	(_gear_index+1)^0,w,c
  4764   00179C  6EDA               	movwf	fsr2h,c
  4765   00179E  0E60               	movlw	low _gear_data
  4766   0017A0  26D9               	addwf	fsr2l,f,c
  4767   0017A2  0E00               	movlw	high _gear_data
  4768   0017A4  22DA               	addwfc	fsr2h,f,c
  4769   0017A6  CFDE FFF6          	movff	postinc2,tblptrl
  4770   0017AA  CFDD FFF7          	movff	postdec2,tblptrh
  4771   0017AE                     	if	0	;tblptru may be non-zero
  4772   0017AE                     	endif
  4773   0017AE                     	if	0	;tblptru may be non-zero
  4774   0017AE                     	endif
  4775   0017AE  0008               	tblrd		*
  4776   0017B0  CFF5 F08E          	movff	tablat,_event+10
  4777   0017B4                     
  4778                           ;car_black_box.c: 86:         event[11] = gear_data[gear_index][1];
  4779   0017B4  90D8               	bcf	status,0,c
  4780   0017B6  3451               	rlcf	_gear_index^0,w,c
  4781   0017B8  6ED9               	movwf	fsr2l,c
  4782   0017BA  3452               	rlcf	(_gear_index+1)^0,w,c
  4783   0017BC  6EDA               	movwf	fsr2h,c
  4784   0017BE  0E60               	movlw	low _gear_data
  4785   0017C0  26D9               	addwf	fsr2l,f,c
  4786   0017C2  0E00               	movlw	high _gear_data
  4787   0017C4  22DA               	addwfc	fsr2h,f,c
  4788   0017C6  CFDE F00E          	movff	postinc2,??_gear_monitor
  4789   0017CA  CFDD F00F          	movff	postdec2,??_gear_monitor+1
  4790   0017CE  0E01               	movlw	1
  4791   0017D0  260E               	addwf	??_gear_monitor^0,f,c
  4792   0017D2  0E00               	movlw	0
  4793   0017D4  220F               	addwfc	(??_gear_monitor+1)^0,f,c
  4794   0017D6  C00E  FFF6         	movff	??_gear_monitor,tblptrl
  4795   0017DA  C00F  FFF7         	movff	??_gear_monitor+1,tblptrh
  4796   0017DE                     	if	0	;tblptru may be non-zero
  4797   0017DE                     	endif
  4798   0017DE                     	if	0	;tblptru may be non-zero
  4799   0017DE                     	endif
  4800   0017DE  0008               	tblrd		*
  4801   0017E0  CFF5 F08F          	movff	tablat,_event+11
  4802   0017E4                     
  4803                           ;car_black_box.c: 87:         store_event(event);
  4804   0017E4  0E84               	movlw	low _event
  4805   0017E6  6E06               	movwf	store_event@event^0,c
  4806   0017E8  0E00               	movlw	high _event
  4807   0017EA  6E07               	movwf	(store_event@event+1)^0,c
  4808   0017EC  EC03  F00D         	call	_store_event	;wreg free
  4809   0017F0                     l2815:
  4810                           
  4811                           ;car_black_box.c: 89:     previous_key = key;
  4812   0017F0  C010  F04B         	movff	gear_monitor@key,_previous_key
  4813   0017F4  6A4C               	clrf	(_previous_key+1)^0,c
  4814   0017F6  0012               	return		;funcret
  4815   0017F8                     __end_of_gear_monitor:
  4816                           	callstack 0
  4817                           
  4818 ;; *************** function _clear_log *****************
  4819 ;; Defined at:
  4820 ;;		line 382 in file "car_black_box.c"
  4821 ;; Parameters:    Size  Location     Type
  4822 ;;		None
  4823 ;; Auto vars:     Size  Location     Type
  4824 ;;		None
  4825 ;; Return value:  Size  Location     Type
  4826 ;;                  1    wreg      void 
  4827 ;; Registers used:
  4828 ;;		wreg, fsr1l, fsr1h, fsr2l, fsr2h, status,2, status,0, tblptrl, tblptrh, tblptru, cstack
  4829 ;; Tracked objects:
  4830 ;;		On entry : 0/0
  4831 ;;		On exit  : 0/0
  4832 ;;		Unchanged: 0/0
  4833 ;; Data sizes:     COMRAM   BANK0   BANK1   BANK2   BANK3   BANK4   BANK5
  4834 ;;      Params:         0       0       0       0       0       0       0
  4835 ;;      Locals:         0       0       0       0       0       0       0
  4836 ;;      Temps:          2       0       0       0       0       0       0
  4837 ;;      Totals:         2       0       0       0       0       0       0
  4838 ;;Total ram usage:        2 bytes
  4839 ;; Hardware stack levels used: 1
  4840 ;; Hardware stack levels required when called: 5
  4841 ;; This function calls:
  4842 ;;		_clcd_print
  4843 ;;		_store_event
  4844 ;; This function is called by:
  4845 ;;		_main
  4846 ;; This function uses a non-reentrant model
  4847 ;;
  4848                           
  4849                           	psect	text27
  4850   001F12                     __ptext27:
  4851                           	callstack 0
  4852   001F12                     _clear_log:
  4853                           	callstack 25
  4854   001F12                     
  4855                           ;car_black_box.c: 383:     clcd_print("   Log Cleared   ", (0x80 + (0)));
  4856   001F12  0E3F               	movlw	low STR_33
  4857   001F14  6E03               	movwf	clcd_print@data^0,c
  4858   001F16  0E2E               	movlw	high STR_33
  4859   001F18  6E04               	movwf	(clcd_print@data+1)^0,c
  4860   001F1A  0E80               	movlw	128
  4861   001F1C  6E05               	movwf	clcd_print@addr^0,c
  4862   001F1E  ECBF  F00E         	call	_clcd_print	;wreg free
  4863                           
  4864                           ;car_black_box.c: 384:     clcd_print("  Successfully  ", (0xC0 + (0)));
  4865   001F22  0ED9               	movlw	low STR_34
  4866   001F24  6E03               	movwf	clcd_print@data^0,c
  4867   001F26  0E2E               	movlw	high STR_34
  4868   001F28  6E04               	movwf	(clcd_print@data+1)^0,c
  4869   001F2A  0EC0               	movlw	192
  4870   001F2C  6E05               	movwf	clcd_print@addr^0,c
  4871   001F2E  ECBF  F00E         	call	_clcd_print	;wreg free
  4872   001F32                     
  4873                           ;car_black_box.c: 385:     index_eeprom = 0;
  4874   001F32  0E00               	movlw	0
  4875   001F34  0100               	movlb	0	; () banked
  4876   001F36  6FAE               	movwf	(_index_eeprom+1)& (0+255),b
  4877   001F38  0E00               	movlw	0
  4878   001F3A  6FAD               	movwf	_index_eeprom& (0+255),b
  4879   001F3C                     
  4880                           ; BSR set to: 0
  4881                           ;car_black_box.c: 386:     count_event = 0;
  4882   001F3C  0E00               	movlw	0
  4883   001F3E  6E44               	movwf	(_count_event+1)^0,c
  4884   001F40  0E00               	movlw	0
  4885   001F42  6E43               	movwf	_count_event^0,c
  4886   001F44                     
  4887                           ; BSR set to: 0
  4888                           ;car_black_box.c: 387:     total_index = 0;
  4889   001F44  0E00               	movlw	0
  4890   001F46  6E57               	movwf	_total_index^0,c
  4891   001F48                     
  4892                           ; BSR set to: 0
  4893                           ;car_black_box.c: 388:     store_event(event);
  4894   001F48  0E84               	movlw	low _event
  4895   001F4A  6E06               	movwf	store_event@event^0,c
  4896   001F4C  0E00               	movlw	high _event
  4897   001F4E  6E07               	movwf	(store_event@event+1)^0,c
  4898   001F50  EC03  F00D         	call	_store_event	;wreg free
  4899   001F54                     
  4900                           ;car_black_box.c: 389:     _delay((unsigned long)((5000)*(20000000/4000.0)));
  4901   001F54  0E7F               	movlw	127
  4902   001F56  6E0F               	movwf	(??_clear_log+1)^0,c
  4903   001F58  0ED4               	movlw	212
  4904   001F5A  6E0E               	movwf	??_clear_log^0,c
  4905   001F5C  0E32               	movlw	50
  4906   001F5E                     u3777:
  4907   001F5E  2EE8               	decfsz	wreg,f,c
  4908   001F60  D7FE               	bra	u3777
  4909   001F62  2E0E               	decfsz	??_clear_log^0,f,c
  4910   001F64  D7FC               	bra	u3777
  4911   001F66  2E0F               	decfsz	(??_clear_log+1)^0,f,c
  4912   001F68  D7FA               	bra	u3777
  4913   001F6A  0012               	return		;funcret
  4914   001F6C                     __end_of_clear_log:
  4915                           	callstack 0
  4916                           
  4917 ;; *************** function _change_password *****************
  4918 ;; Defined at:
  4919 ;;		line 394 in file "car_black_box.c"
  4920 ;; Parameters:    Size  Location     Type
  4921 ;;  key             1    wreg     unsigned char 
  4922 ;; Auto vars:     Size  Location     Type
  4923 ;;  key             1   13[COMRAM] unsigned char 
  4924 ;;  i               2   11[COMRAM] int 
  4925 ;; Return value:  Size  Location     Type
  4926 ;;                  1    wreg      void 
  4927 ;; Registers used:
  4928 ;;		wreg, fsr1l, fsr1h, fsr2l, fsr2h, status,2, status,0, tblptrl, tblptrh, tblptru, cstack
  4929 ;; Tracked objects:
  4930 ;;		On entry : 0/0
  4931 ;;		On exit  : 0/0
  4932 ;;		Unchanged: 0/0
  4933 ;; Data sizes:     COMRAM   BANK0   BANK1   BANK2   BANK3   BANK4   BANK5
  4934 ;;      Params:         0       0       0       0       0       0       0
  4935 ;;      Locals:         3       0       0       0       0       0       0
  4936 ;;      Temps:          2       0       0       0       0       0       0
  4937 ;;      Totals:         5       0       0       0       0       0       0
  4938 ;;Total ram usage:        5 bytes
  4939 ;; Hardware stack levels used: 1
  4940 ;; Hardware stack levels required when called: 4
  4941 ;; This function calls:
  4942 ;;		_clcd_print
  4943 ;;		_clcd_putch
  4944 ;;		_validate_password
  4945 ;;		_write_external_eeprom
  4946 ;; This function is called by:
  4947 ;;		_main
  4948 ;; This function uses a non-reentrant model
  4949 ;;
  4950                           
  4951                           	psect	text28
  4952   000012                     __ptext28:
  4953                           	callstack 0
  4954   000012                     _change_password:
  4955                           	callstack 26
  4956                           
  4957                           ;incstack = 0
  4958                           ;change_password@key stored from wreg
  4959   000012  6E0E               	movwf	change_password@key^0,c
  4960   000014                     
  4961                           ;car_black_box.c: 395:     if (pass_flag == 0) {
  4962   000014  5055               	movf	_pass_flag^0,w,c
  4963   000016  A4D8               	btfss	status,2,c
  4964   000018  EF10  F000         	goto	u2891
  4965   00001C  EF12  F000         	goto	u2890
  4966   000020                     u2891:
  4967   000020  EFBB  F000         	goto	l3359
  4968   000024                     u2890:
  4969   000024                     
  4970                           ;car_black_box.c: 396:         clcd_print(" Enter Password ", (0x80 + (0)));
  4971   000024  0EFB               	movlw	low STR_35
  4972   000026  6E03               	movwf	clcd_print@data^0,c
  4973   000028  0E2E               	movlw	high STR_35
  4974   00002A  6E04               	movwf	(clcd_print@data+1)^0,c
  4975   00002C  0E80               	movlw	128
  4976   00002E  6E05               	movwf	clcd_print@addr^0,c
  4977   000030  ECBF  F00E         	call	_clcd_print	;wreg free
  4978   000034                     
  4979                           ;car_black_box.c: 397:         if (key == 11) {
  4980   000034  0E0B               	movlw	11
  4981   000036  180E               	xorwf	change_password@key^0,w,c
  4982   000038  A4D8               	btfss	status,2,c
  4983   00003A  EF21  F000         	goto	u2901
  4984   00003E  EF23  F000         	goto	u2900
  4985   000042                     u2901:
  4986   000042  EF39  F000         	goto	l3319
  4987   000046                     u2900:
  4988   000046                     
  4989                           ;car_black_box.c: 398:             enter_password[index] = '1';
  4990   000046  0EC8               	movlw	low _enter_password
  4991   000048  244F               	addwf	_index^0,w,c
  4992   00004A  6ED9               	movwf	fsr2l,c
  4993   00004C  0E00               	movlw	high _enter_password
  4994   00004E  2050               	addwfc	(_index+1)^0,w,c
  4995   000050  6EDA               	movwf	fsr2h,c
  4996   000052  0E31               	movlw	49
  4997   000054  6EDF               	movwf	indf2,c
  4998   000056                     
  4999                           ;car_black_box.c: 399:             clcd_putch('*', (0xC0 + (index + 3)));
  5000   000056  504F               	movf	_index^0,w,c
  5001   000058  0FC3               	addlw	195
  5002   00005A  6E08               	movwf	clcd_putch@addr^0,c
  5003   00005C  0E2A               	movlw	42
  5004   00005E  ECFD  F010         	call	_clcd_putch
  5005   000062                     l3315:
  5006                           
  5007                           ;car_black_box.c: 400:             sec = 0;
  5008   000062  0E00               	movlw	0
  5009   000064  6E54               	movwf	(_sec+1)^0,c
  5010   000066  0E00               	movlw	0
  5011   000068  6E53               	movwf	_sec^0,c
  5012   00006A                     
  5013                           ;car_black_box.c: 401:             index++;
  5014   00006A  4A4F               	infsnz	_index^0,f,c
  5015   00006C  2A50               	incf	(_index+1)^0,f,c
  5016                           
  5017                           ;car_black_box.c: 402:         } else if (key == 12) {
  5018   00006E  EF52  F000         	goto	l3329
  5019   000072                     l3319:
  5020   000072  0E0C               	movlw	12
  5021   000074  180E               	xorwf	change_password@key^0,w,c
  5022   000076  A4D8               	btfss	status,2,c
  5023   000078  EF40  F000         	goto	u2911
  5024   00007C  EF42  F000         	goto	u2910
  5025   000080                     u2911:
  5026   000080  EF52  F000         	goto	l3329
  5027   000084                     u2910:
  5028   000084                     
  5029                           ;car_black_box.c: 403:             enter_password[index] = '0';
  5030   000084  0EC8               	movlw	low _enter_password
  5031   000086  244F               	addwf	_index^0,w,c
  5032   000088  6ED9               	movwf	fsr2l,c
  5033   00008A  0E00               	movlw	high _enter_password
  5034   00008C  2050               	addwfc	(_index+1)^0,w,c
  5035   00008E  6EDA               	movwf	fsr2h,c
  5036   000090  0E30               	movlw	48
  5037   000092  6EDF               	movwf	indf2,c
  5038   000094                     
  5039                           ;car_black_box.c: 404:             clcd_putch('*', (0xC0 + (index + 3)));
  5040   000094  504F               	movf	_index^0,w,c
  5041   000096  0FC3               	addlw	195
  5042   000098  6E08               	movwf	clcd_putch@addr^0,c
  5043   00009A  0E2A               	movlw	42
  5044   00009C  ECFD  F010         	call	_clcd_putch
  5045   0000A0  EF31  F000         	goto	l3315
  5046   0000A4                     l3329:
  5047                           
  5048                           ;car_black_box.c: 408:         if (index == 4) {
  5049   0000A4  0E04               	movlw	4
  5050   0000A6  184F               	xorwf	_index^0,w,c
  5051   0000A8  1050               	iorwf	(_index+1)^0,w,c
  5052   0000AA  A4D8               	btfss	status,2,c
  5053   0000AC  EF5A  F000         	goto	u2921
  5054   0000B0  EF5C  F000         	goto	u2920
  5055   0000B4                     u2921:
  5056   0000B4  EF0C  F002         	goto	l3453
  5057   0000B8                     u2920:
  5058   0000B8                     
  5059                           ;car_black_box.c: 409:             attempt--;
  5060   0000B8  065C               	decf	_attempt^0,f,c
  5061   0000BA                     
  5062                           ;car_black_box.c: 410:             index = 0;
  5063   0000BA  0E00               	movlw	0
  5064   0000BC  6E50               	movwf	(_index+1)^0,c
  5065   0000BE  0E00               	movlw	0
  5066   0000C0  6E4F               	movwf	_index^0,c
  5067   0000C2                     
  5068                           ;car_black_box.c: 411:             enter_password[4] = '\0';
  5069   0000C2  0E00               	movlw	0
  5070   0000C4  0100               	movlb	0	; () banked
  5071   0000C6  6FCC               	movwf	(_enter_password+4)& (0+255),b
  5072   0000C8                     
  5073                           ; BSR set to: 0
  5074                           ;car_black_box.c: 412:             if ((validate_password(original_password, enter_passw
      +                          ord)) != 0) {
  5075   0000C8  0E95               	movlw	low _original_password
  5076   0000CA  6E01               	movwf	validate_password@original_password^0,c
  5077   0000CC  0E00               	movlw	high _original_password
  5078   0000CE  6E02               	movwf	(validate_password@original_password+1)^0,c
  5079   0000D0  0EC8               	movlw	low _enter_password
  5080   0000D2  6E03               	movwf	validate_password@enter_password^0,c
  5081   0000D4  0E00               	movlw	high _enter_password
  5082   0000D6  6E04               	movwf	(validate_password@enter_password+1)^0,c
  5083   0000D8  ECBC  F00D         	call	_validate_password	;wreg free
  5084   0000DC  5001               	movf	?_validate_password^0,w,c
  5085   0000DE  1002               	iorwf	(?_validate_password+1)^0,w,c
  5086   0000E0  B4D8               	btfsc	status,2,c
  5087   0000E2  EF75  F000         	goto	u2931
  5088   0000E6  EF77  F000         	goto	u2930
  5089   0000EA                     u2931:
  5090   0000EA  EFA2  F000         	goto	l3349
  5091   0000EE                     u2930:
  5092   0000EE                     
  5093                           ;car_black_box.c: 413:                 clcd_print(" Wrong Password ", (0x80 + (0)));
  5094   0000EE  0EEA               	movlw	low STR_36
  5095   0000F0  6E03               	movwf	clcd_print@data^0,c
  5096   0000F2  0E2E               	movlw	high STR_36
  5097   0000F4  6E04               	movwf	(clcd_print@data+1)^0,c
  5098   0000F6  0E80               	movlw	128
  5099   0000F8  6E05               	movwf	clcd_print@addr^0,c
  5100   0000FA  ECBF  F00E         	call	_clcd_print	;wreg free
  5101   0000FE                     
  5102                           ;car_black_box.c: 414:                 clcd_putch(attempt, (0xC0 + (0)));
  5103   0000FE  0EC0               	movlw	192
  5104   000100  6E08               	movwf	clcd_putch@addr^0,c
  5105   000102  505C               	movf	_attempt^0,w,c
  5106   000104  ECFD  F010         	call	_clcd_putch
  5107   000108                     
  5108                           ;car_black_box.c: 415:                 clcd_print("-Attempt Remain", (0xC0 + (1)));
  5109   000108  0EB4               	movlw	low STR_21
  5110   00010A  6E03               	movwf	clcd_print@data^0,c
  5111   00010C  0E2F               	movlw	high STR_21
  5112   00010E  6E04               	movwf	(clcd_print@data+1)^0,c
  5113   000110  0EC1               	movlw	193
  5114   000112  6E05               	movwf	clcd_print@addr^0,c
  5115   000114  ECBF  F00E         	call	_clcd_print	;wreg free
  5116   000118                     
  5117                           ;car_black_box.c: 416:                 _delay((unsigned long)((1000)*(20000000/4000.0)))
      +                          ;
  5118   000118  0E1A               	movlw	26
  5119   00011A  6E0B               	movwf	(??_change_password+1)^0,c
  5120   00011C  0E5E               	movlw	94
  5121   00011E  6E0A               	movwf	??_change_password^0,c
  5122   000120  0E6E               	movlw	110
  5123   000122                     u3787:
  5124   000122  2EE8               	decfsz	wreg,f,c
  5125   000124  D7FE               	bra	u3787
  5126   000126  2E0A               	decfsz	??_change_password^0,f,c
  5127   000128  D7FC               	bra	u3787
  5128   00012A  2E0B               	decfsz	(??_change_password+1)^0,f,c
  5129   00012C  D7FA               	bra	u3787
  5130   00012E  D000               	nop2	
  5131   000130                     
  5132                           ;car_black_box.c: 417:                 clcd_print("                ", (0xC0 + (0)));
  5133   000130  0E72               	movlw	low STR_1
  5134   000132  6E03               	movwf	clcd_print@data^0,c
  5135   000134  0E2F               	movlw	high STR_1
  5136   000136  6E04               	movwf	(clcd_print@data+1)^0,c
  5137   000138  0EC0               	movlw	192
  5138   00013A  6E05               	movwf	clcd_print@addr^0,c
  5139   00013C  ECBF  F00E         	call	_clcd_print	;wreg free
  5140                           
  5141                           ;car_black_box.c: 418:             } else {
  5142   000140  EFAC  F000         	goto	l3353
  5143   000144                     l3349:
  5144                           
  5145                           ;car_black_box.c: 419:                 clcd_print("                ", (0xC0 + (0)));
  5146   000144  0E72               	movlw	low STR_1
  5147   000146  6E03               	movwf	clcd_print@data^0,c
  5148   000148  0E2F               	movlw	high STR_1
  5149   00014A  6E04               	movwf	(clcd_print@data+1)^0,c
  5150   00014C  0EC0               	movlw	192
  5151   00014E  6E05               	movwf	clcd_print@addr^0,c
  5152   000150  ECBF  F00E         	call	_clcd_print	;wreg free
  5153   000154                     
  5154                           ;car_black_box.c: 420:                 pass_flag = 1;
  5155   000154  0E01               	movlw	1
  5156   000156  6E55               	movwf	_pass_flag^0,c
  5157   000158                     l3353:
  5158                           
  5159                           ;car_black_box.c: 422:             if (attempt == '0') {
  5160   000158  0E30               	movlw	48
  5161   00015A  185C               	xorwf	_attempt^0,w,c
  5162   00015C  A4D8               	btfss	status,2,c
  5163   00015E  EFB3  F000         	goto	u2941
  5164   000162  EFB5  F000         	goto	u2940
  5165   000166                     u2941:
  5166   000166  EF0C  F002         	goto	l3453
  5167   00016A                     u2940:
  5168   00016A                     
  5169                           ;car_black_box.c: 423:                 pass_flag = 0;
  5170   00016A  0E00               	movlw	0
  5171   00016C  6E55               	movwf	_pass_flag^0,c
  5172                           
  5173                           ;car_black_box.c: 424:                 enter_flag = 2;
  5174   00016E  0E02               	movlw	2
  5175   000170  6E58               	movwf	_enter_flag^0,c
  5176   000172  EF5A  F002         	goto	l299
  5177   000176                     l3359:
  5178   000176  0455               	decf	_pass_flag^0,w,c
  5179   000178  A4D8               	btfss	status,2,c
  5180   00017A  EFC1  F000         	goto	u2951
  5181   00017E  EFC3  F000         	goto	u2950
  5182   000182                     u2951:
  5183   000182  EF29  F001         	goto	l3393
  5184   000186                     u2950:
  5185   000186                     
  5186                           ;car_black_box.c: 429:         clcd_print("  New Password  ", (0x80 + (0)));
  5187   000186  0EB7               	movlw	low STR_40
  5188   000188  6E03               	movwf	clcd_print@data^0,c
  5189   00018A  0E2E               	movlw	high STR_40
  5190   00018C  6E04               	movwf	(clcd_print@data+1)^0,c
  5191   00018E  0E80               	movlw	128
  5192   000190  6E05               	movwf	clcd_print@addr^0,c
  5193   000192  ECBF  F00E         	call	_clcd_print	;wreg free
  5194   000196                     
  5195                           ;car_black_box.c: 430:         if (key == 11) {
  5196   000196  0E0B               	movlw	11
  5197   000198  180E               	xorwf	change_password@key^0,w,c
  5198   00019A  A4D8               	btfss	status,2,c
  5199   00019C  EFD2  F000         	goto	u2961
  5200   0001A0  EFD4  F000         	goto	u2960
  5201   0001A4                     u2961:
  5202   0001A4  EFEA  F000         	goto	l3373
  5203   0001A8                     u2960:
  5204   0001A8                     
  5205                           ;car_black_box.c: 431:             enter_password[index] = '1';
  5206   0001A8  0EC8               	movlw	low _enter_password
  5207   0001AA  244F               	addwf	_index^0,w,c
  5208   0001AC  6ED9               	movwf	fsr2l,c
  5209   0001AE  0E00               	movlw	high _enter_password
  5210   0001B0  2050               	addwfc	(_index+1)^0,w,c
  5211   0001B2  6EDA               	movwf	fsr2h,c
  5212   0001B4  0E31               	movlw	49
  5213   0001B6  6EDF               	movwf	indf2,c
  5214   0001B8                     
  5215                           ;car_black_box.c: 432:             clcd_putch('*', (0xC0 + (index + 3)));
  5216   0001B8  504F               	movf	_index^0,w,c
  5217   0001BA  0FC3               	addlw	195
  5218   0001BC  6E08               	movwf	clcd_putch@addr^0,c
  5219   0001BE  0E2A               	movlw	42
  5220   0001C0  ECFD  F010         	call	_clcd_putch
  5221   0001C4                     l3369:
  5222                           
  5223                           ;car_black_box.c: 433:             sec = 0;
  5224   0001C4  0E00               	movlw	0
  5225   0001C6  6E54               	movwf	(_sec+1)^0,c
  5226   0001C8  0E00               	movlw	0
  5227   0001CA  6E53               	movwf	_sec^0,c
  5228   0001CC                     
  5229                           ;car_black_box.c: 434:             index++;
  5230   0001CC  4A4F               	infsnz	_index^0,f,c
  5231   0001CE  2A50               	incf	(_index+1)^0,f,c
  5232                           
  5233                           ;car_black_box.c: 435:         } else if (key == 12) {
  5234   0001D0  EF03  F001         	goto	l3383
  5235   0001D4                     l3373:
  5236   0001D4  0E0C               	movlw	12
  5237   0001D6  180E               	xorwf	change_password@key^0,w,c
  5238   0001D8  A4D8               	btfss	status,2,c
  5239   0001DA  EFF1  F000         	goto	u2971
  5240   0001DE  EFF3  F000         	goto	u2970
  5241   0001E2                     u2971:
  5242   0001E2  EF03  F001         	goto	l3383
  5243   0001E6                     u2970:
  5244   0001E6                     
  5245                           ;car_black_box.c: 436:             enter_password[index] = '0';
  5246   0001E6  0EC8               	movlw	low _enter_password
  5247   0001E8  244F               	addwf	_index^0,w,c
  5248   0001EA  6ED9               	movwf	fsr2l,c
  5249   0001EC  0E00               	movlw	high _enter_password
  5250   0001EE  2050               	addwfc	(_index+1)^0,w,c
  5251   0001F0  6EDA               	movwf	fsr2h,c
  5252   0001F2  0E30               	movlw	48
  5253   0001F4  6EDF               	movwf	indf2,c
  5254   0001F6                     
  5255                           ;car_black_box.c: 437:             clcd_putch('*', (0xC0 + (index + 3)));
  5256   0001F6  504F               	movf	_index^0,w,c
  5257   0001F8  0FC3               	addlw	195
  5258   0001FA  6E08               	movwf	clcd_putch@addr^0,c
  5259   0001FC  0E2A               	movlw	42
  5260   0001FE  ECFD  F010         	call	_clcd_putch
  5261   000202  EFE2  F000         	goto	l3369
  5262   000206                     l3383:
  5263                           
  5264                           ;car_black_box.c: 441:         if (index == 4) {
  5265   000206  0E04               	movlw	4
  5266   000208  184F               	xorwf	_index^0,w,c
  5267   00020A  1050               	iorwf	(_index+1)^0,w,c
  5268   00020C  A4D8               	btfss	status,2,c
  5269   00020E  EF0B  F001         	goto	u2981
  5270   000212  EF0D  F001         	goto	u2980
  5271   000216                     u2981:
  5272   000216  EF0C  F002         	goto	l3453
  5273   00021A                     u2980:
  5274   00021A                     
  5275                           ;car_black_box.c: 442:             clcd_print("                ", (0xC0 + (0)));
  5276   00021A  0E72               	movlw	low STR_1
  5277   00021C  6E03               	movwf	clcd_print@data^0,c
  5278   00021E  0E2F               	movlw	high STR_1
  5279   000220  6E04               	movwf	(clcd_print@data+1)^0,c
  5280   000222  0EC0               	movlw	192
  5281   000224  6E05               	movwf	clcd_print@addr^0,c
  5282   000226  ECBF  F00E         	call	_clcd_print	;wreg free
  5283   00022A                     
  5284                           ;car_black_box.c: 443:             pass_flag = 2;
  5285   00022A  0E02               	movlw	2
  5286   00022C  6E55               	movwf	_pass_flag^0,c
  5287   00022E                     
  5288                           ;car_black_box.c: 444:             index = 0;
  5289   00022E  0E00               	movlw	0
  5290   000230  6E50               	movwf	(_index+1)^0,c
  5291   000232  0E00               	movlw	0
  5292   000234  6E4F               	movwf	_index^0,c
  5293   000236                     
  5294                           ;car_black_box.c: 445:             _delay((unsigned long)((500)*(20000000/4000.0)));
  5295   000236  0E0D               	movlw	13
  5296   000238  6E0B               	movwf	(??_change_password+1)^0,c
  5297   00023A  0EAF               	movlw	175
  5298   00023C  6E0A               	movwf	??_change_password^0,c
  5299   00023E  0EB6               	movlw	182
  5300   000240                     u3797:
  5301   000240  2EE8               	decfsz	wreg,f,c
  5302   000242  D7FE               	bra	u3797
  5303   000244  2E0A               	decfsz	??_change_password^0,f,c
  5304   000246  D7FC               	bra	u3797
  5305   000248  2E0B               	decfsz	(??_change_password+1)^0,f,c
  5306   00024A  D7FA               	bra	u3797
  5307   00024C  D000               	nop2	
  5308   00024E  EF0C  F002         	goto	l3453
  5309   000252                     l3393:
  5310   000252  0E02               	movlw	2
  5311   000254  1855               	xorwf	_pass_flag^0,w,c
  5312   000256  A4D8               	btfss	status,2,c
  5313   000258  EF30  F001         	goto	u2991
  5314   00025C  EF32  F001         	goto	u2990
  5315   000260                     u2991:
  5316   000260  EF0C  F002         	goto	l3453
  5317   000264                     u2990:
  5318   000264                     
  5319                           ;car_black_box.c: 449:         clcd_print("Confirm Password", (0x80 + (0)));
  5320   000264  0E50               	movlw	low STR_42
  5321   000266  6E03               	movwf	clcd_print@data^0,c
  5322   000268  0E2F               	movlw	high STR_42
  5323   00026A  6E04               	movwf	(clcd_print@data+1)^0,c
  5324   00026C  0E80               	movlw	128
  5325   00026E  6E05               	movwf	clcd_print@addr^0,c
  5326   000270  ECBF  F00E         	call	_clcd_print	;wreg free
  5327   000274                     
  5328                           ;car_black_box.c: 450:         if (key == 11) {
  5329   000274  0E0B               	movlw	11
  5330   000276  180E               	xorwf	change_password@key^0,w,c
  5331   000278  A4D8               	btfss	status,2,c
  5332   00027A  EF41  F001         	goto	u3001
  5333   00027E  EF43  F001         	goto	u3000
  5334   000282                     u3001:
  5335   000282  EF59  F001         	goto	l3407
  5336   000286                     u3000:
  5337   000286                     
  5338                           ;car_black_box.c: 451:             confirm_password[index] = '1';
  5339   000286  0EC3               	movlw	low _confirm_password
  5340   000288  244F               	addwf	_index^0,w,c
  5341   00028A  6ED9               	movwf	fsr2l,c
  5342   00028C  0E00               	movlw	high _confirm_password
  5343   00028E  2050               	addwfc	(_index+1)^0,w,c
  5344   000290  6EDA               	movwf	fsr2h,c
  5345   000292  0E31               	movlw	49
  5346   000294  6EDF               	movwf	indf2,c
  5347   000296                     
  5348                           ;car_black_box.c: 452:             clcd_putch('*', (0xC0 + (index + 3)));
  5349   000296  504F               	movf	_index^0,w,c
  5350   000298  0FC3               	addlw	195
  5351   00029A  6E08               	movwf	clcd_putch@addr^0,c
  5352   00029C  0E2A               	movlw	42
  5353   00029E  ECFD  F010         	call	_clcd_putch
  5354   0002A2                     l3403:
  5355                           
  5356                           ;car_black_box.c: 453:             sec = 0;
  5357   0002A2  0E00               	movlw	0
  5358   0002A4  6E54               	movwf	(_sec+1)^0,c
  5359   0002A6  0E00               	movlw	0
  5360   0002A8  6E53               	movwf	_sec^0,c
  5361   0002AA                     
  5362                           ;car_black_box.c: 454:             index++;
  5363   0002AA  4A4F               	infsnz	_index^0,f,c
  5364   0002AC  2A50               	incf	(_index+1)^0,f,c
  5365                           
  5366                           ;car_black_box.c: 455:         } else if (key == 12) {
  5367   0002AE  EF72  F001         	goto	l3417
  5368   0002B2                     l3407:
  5369   0002B2  0E0C               	movlw	12
  5370   0002B4  180E               	xorwf	change_password@key^0,w,c
  5371   0002B6  A4D8               	btfss	status,2,c
  5372   0002B8  EF60  F001         	goto	u3011
  5373   0002BC  EF62  F001         	goto	u3010
  5374   0002C0                     u3011:
  5375   0002C0  EF72  F001         	goto	l3417
  5376   0002C4                     u3010:
  5377   0002C4                     
  5378                           ;car_black_box.c: 456:             confirm_password[index] = '0';
  5379   0002C4  0EC3               	movlw	low _confirm_password
  5380   0002C6  244F               	addwf	_index^0,w,c
  5381   0002C8  6ED9               	movwf	fsr2l,c
  5382   0002CA  0E00               	movlw	high _confirm_password
  5383   0002CC  2050               	addwfc	(_index+1)^0,w,c
  5384   0002CE  6EDA               	movwf	fsr2h,c
  5385   0002D0  0E30               	movlw	48
  5386   0002D2  6EDF               	movwf	indf2,c
  5387   0002D4                     
  5388                           ;car_black_box.c: 457:             clcd_putch('*', (0xC0 + (index + 3)));
  5389   0002D4  504F               	movf	_index^0,w,c
  5390   0002D6  0FC3               	addlw	195
  5391   0002D8  6E08               	movwf	clcd_putch@addr^0,c
  5392   0002DA  0E2A               	movlw	42
  5393   0002DC  ECFD  F010         	call	_clcd_putch
  5394   0002E0  EF51  F001         	goto	l3403
  5395   0002E4                     l3417:
  5396                           
  5397                           ;car_black_box.c: 461:         if (index == 4) {
  5398   0002E4  0E04               	movlw	4
  5399   0002E6  184F               	xorwf	_index^0,w,c
  5400   0002E8  1050               	iorwf	(_index+1)^0,w,c
  5401   0002EA  A4D8               	btfss	status,2,c
  5402   0002EC  EF7A  F001         	goto	u3021
  5403   0002F0  EF7C  F001         	goto	u3020
  5404   0002F4                     u3021:
  5405   0002F4  EF0C  F002         	goto	l3453
  5406   0002F8                     u3020:
  5407   0002F8                     
  5408                           ;car_black_box.c: 462:             index = 0;
  5409   0002F8  0E00               	movlw	0
  5410   0002FA  6E50               	movwf	(_index+1)^0,c
  5411   0002FC  0E00               	movlw	0
  5412   0002FE  6E4F               	movwf	_index^0,c
  5413                           
  5414                           ;car_black_box.c: 463:             confirm_password[4] = '\0';
  5415   000300  0E00               	movlw	0
  5416   000302  0100               	movlb	0	; () banked
  5417   000304  6FC7               	movwf	(_confirm_password+4)& (0+255),b
  5418   000306                     
  5419                           ; BSR set to: 0
  5420                           ;car_black_box.c: 464:             if (validate_password(enter_password, confirm_passwor
      +                          d) == 0) {
  5421   000306  0EC8               	movlw	low _enter_password
  5422   000308  6E01               	movwf	validate_password@original_password^0,c
  5423   00030A  0E00               	movlw	high _enter_password
  5424   00030C  6E02               	movwf	(validate_password@original_password+1)^0,c
  5425   00030E  0EC3               	movlw	low _confirm_password
  5426   000310  6E03               	movwf	validate_password@enter_password^0,c
  5427   000312  0E00               	movlw	high _confirm_password
  5428   000314  6E04               	movwf	(validate_password@enter_password+1)^0,c
  5429   000316  ECBC  F00D         	call	_validate_password	;wreg free
  5430   00031A  5001               	movf	?_validate_password^0,w,c
  5431   00031C  1002               	iorwf	(?_validate_password+1)^0,w,c
  5432   00031E  A4D8               	btfss	status,2,c
  5433   000320  EF94  F001         	goto	u3031
  5434   000324  EF96  F001         	goto	u3030
  5435   000328                     u3031:
  5436   000328  EFE8  F001         	goto	l3443
  5437   00032C                     u3030:
  5438   00032C                     
  5439                           ;car_black_box.c: 465:                 clcd_print("Password changed", (0x80 + (0)));
  5440   00032C  0E3F               	movlw	low STR_43
  5441   00032E  6E03               	movwf	clcd_print@data^0,c
  5442   000330  0E2F               	movlw	high STR_43
  5443   000332  6E04               	movwf	(clcd_print@data+1)^0,c
  5444   000334  0E80               	movlw	128
  5445   000336  6E05               	movwf	clcd_print@addr^0,c
  5446   000338  ECBF  F00E         	call	_clcd_print	;wreg free
  5447                           
  5448                           ;car_black_box.c: 466:                 clcd_print("  Successfully  ", (0xC0 + (0)));
  5449   00033C  0ED9               	movlw	low STR_34
  5450   00033E  6E03               	movwf	clcd_print@data^0,c
  5451   000340  0E2E               	movlw	high STR_34
  5452   000342  6E04               	movwf	(clcd_print@data+1)^0,c
  5453   000344  0EC0               	movlw	192
  5454   000346  6E05               	movwf	clcd_print@addr^0,c
  5455   000348  ECBF  F00E         	call	_clcd_print	;wreg free
  5456                           
  5457                           ;car_black_box.c: 467:                 while (confirm_password[index]) {
  5458   00034C  EFB8  F001         	goto	l3429
  5459   000350                     l3425:
  5460                           
  5461                           ;car_black_box.c: 468:                     original_password[index] = confirm_password[i
      +                          ndex];
  5462   000350  0EC3               	movlw	low _confirm_password
  5463   000352  244F               	addwf	_index^0,w,c
  5464   000354  6ED9               	movwf	fsr2l,c
  5465   000356  0E00               	movlw	high _confirm_password
  5466   000358  2050               	addwfc	(_index+1)^0,w,c
  5467   00035A  6EDA               	movwf	fsr2h,c
  5468   00035C  0E95               	movlw	low _original_password
  5469   00035E  244F               	addwf	_index^0,w,c
  5470   000360  6EE1               	movwf	fsr1l,c
  5471   000362  0E00               	movlw	high _original_password
  5472   000364  2050               	addwfc	(_index+1)^0,w,c
  5473   000366  6EE2               	movwf	fsr1h,c
  5474   000368  CFDF FFE7          	movff	indf2,indf1
  5475   00036C                     
  5476                           ;car_black_box.c: 469:                     index++;
  5477   00036C  4A4F               	infsnz	_index^0,f,c
  5478   00036E  2A50               	incf	(_index+1)^0,f,c
  5479   000370                     l3429:
  5480                           
  5481                           ;car_black_box.c: 467:                 while (confirm_password[index]) {
  5482   000370  0EC3               	movlw	low _confirm_password
  5483   000372  244F               	addwf	_index^0,w,c
  5484   000374  6ED9               	movwf	fsr2l,c
  5485   000376  0E00               	movlw	high _confirm_password
  5486   000378  2050               	addwfc	(_index+1)^0,w,c
  5487   00037A  6EDA               	movwf	fsr2h,c
  5488   00037C  50DF               	movf	indf2,w,c
  5489   00037E  A4D8               	btfss	status,2,c
  5490   000380  EFC4  F001         	goto	u3041
  5491   000384  EFC6  F001         	goto	u3040
  5492   000388                     u3041:
  5493   000388  EFA8  F001         	goto	l3425
  5494   00038C                     u3040:
  5495   00038C                     
  5496                           ;car_black_box.c: 471:                 for (int i = 0; i < 4; i++) {
  5497   00038C  0E00               	movlw	0
  5498   00038E  6E0D               	movwf	(change_password@i+1)^0,c
  5499   000390  0E00               	movlw	0
  5500   000392  6E0C               	movwf	change_password@i^0,c
  5501   000394                     l3437:
  5502                           
  5503                           ;car_black_box.c: 472:                     write_external_eeprom(0x46 + i, confirm_passw
      +                          ord[i]);
  5504   000394  0EC3               	movlw	low _confirm_password
  5505   000396  240C               	addwf	change_password@i^0,w,c
  5506   000398  6ED9               	movwf	fsr2l,c
  5507   00039A  0E00               	movlw	high _confirm_password
  5508   00039C  200D               	addwfc	(change_password@i+1)^0,w,c
  5509   00039E  6EDA               	movwf	fsr2h,c
  5510   0003A0  50DF               	movf	indf2,w,c
  5511   0003A2  6E02               	movwf	write_external_eeprom@data^0,c
  5512   0003A4  500C               	movf	change_password@i^0,w,c
  5513   0003A6  0F46               	addlw	70
  5514   0003A8  EC22  F010         	call	_write_external_eeprom
  5515   0003AC                     
  5516                           ;car_black_box.c: 473:                 }
  5517   0003AC  4A0C               	infsnz	change_password@i^0,f,c
  5518   0003AE  2A0D               	incf	(change_password@i+1)^0,f,c
  5519   0003B0  BE0D               	btfsc	(change_password@i+1)^0,7,c
  5520   0003B2  EFE4  F001         	goto	u3051
  5521   0003B6  500D               	movf	(change_password@i+1)^0,w,c
  5522   0003B8  E109               	bnz	u3050
  5523   0003BA  0E04               	movlw	4
  5524   0003BC  5C0C               	subwf	change_password@i^0,w,c
  5525   0003BE  A0D8               	btfss	status,0,c
  5526   0003C0  EFE4  F001         	goto	u3051
  5527   0003C4  EFE6  F001         	goto	u3050
  5528   0003C8                     u3051:
  5529   0003C8  EFCA  F001         	goto	l3437
  5530   0003CC                     u3050:
  5531   0003CC  EFF8  F001         	goto	l3445
  5532   0003D0                     l3443:
  5533                           
  5534                           ;car_black_box.c: 476:                 clcd_print("    Password    ", (0x80 + (0)));
  5535   0003D0  0E84               	movlw	low STR_45
  5536   0003D2  6E03               	movwf	clcd_print@data^0,c
  5537   0003D4  0E2E               	movlw	high STR_45
  5538   0003D6  6E04               	movwf	(clcd_print@data+1)^0,c
  5539   0003D8  0E80               	movlw	128
  5540   0003DA  6E05               	movwf	clcd_print@addr^0,c
  5541   0003DC  ECBF  F00E         	call	_clcd_print	;wreg free
  5542                           
  5543                           ;car_black_box.c: 477:                 clcd_print("   Not Matched   ", (0xC0 + (0)));
  5544   0003E0  0E2D               	movlw	low STR_46
  5545   0003E2  6E03               	movwf	clcd_print@data^0,c
  5546   0003E4  0E2E               	movlw	high STR_46
  5547   0003E6  6E04               	movwf	(clcd_print@data+1)^0,c
  5548   0003E8  0EC0               	movlw	192
  5549   0003EA  6E05               	movwf	clcd_print@addr^0,c
  5550   0003EC  ECBF  F00E         	call	_clcd_print	;wreg free
  5551   0003F0                     l3445:
  5552                           
  5553                           ;car_black_box.c: 479:             pass_flag = 0;
  5554   0003F0  0E00               	movlw	0
  5555   0003F2  6E55               	movwf	_pass_flag^0,c
  5556   0003F4                     
  5557                           ;car_black_box.c: 480:             enter_flag = 2;
  5558   0003F4  0E02               	movlw	2
  5559   0003F6  6E58               	movwf	_enter_flag^0,c
  5560   0003F8                     
  5561                           ;car_black_box.c: 481:             index = 0;
  5562   0003F8  0E00               	movlw	0
  5563   0003FA  6E50               	movwf	(_index+1)^0,c
  5564   0003FC  0E00               	movlw	0
  5565   0003FE  6E4F               	movwf	_index^0,c
  5566   000400                     
  5567                           ;car_black_box.c: 482:             _delay((unsigned long)((1000)*(20000000/4000.0)));
  5568   000400  0E1A               	movlw	26
  5569   000402  6E0B               	movwf	(??_change_password+1)^0,c
  5570   000404  0E5E               	movlw	94
  5571   000406  6E0A               	movwf	??_change_password^0,c
  5572   000408  0E6E               	movlw	110
  5573   00040A                     u3807:
  5574   00040A  2EE8               	decfsz	wreg,f,c
  5575   00040C  D7FE               	bra	u3807
  5576   00040E  2E0A               	decfsz	??_change_password^0,f,c
  5577   000410  D7FC               	bra	u3807
  5578   000412  2E0B               	decfsz	(??_change_password+1)^0,f,c
  5579   000414  D7FA               	bra	u3807
  5580   000416  D000               	nop2	
  5581   000418                     l3453:
  5582                           
  5583                           ;car_black_box.c: 485:     if (sec == 5) {
  5584   000418  0E05               	movlw	5
  5585   00041A  1853               	xorwf	_sec^0,w,c
  5586   00041C  1054               	iorwf	(_sec+1)^0,w,c
  5587   00041E  A4D8               	btfss	status,2,c
  5588   000420  EF14  F002         	goto	u3061
  5589   000424  EF16  F002         	goto	u3060
  5590   000428                     u3061:
  5591   000428  EF20  F002         	goto	l3459
  5592   00042C                     u3060:
  5593   00042C                     
  5594                           ;car_black_box.c: 486:         pass_flag = 0;
  5595   00042C  0E00               	movlw	0
  5596   00042E  6E55               	movwf	_pass_flag^0,c
  5597                           
  5598                           ;car_black_box.c: 487:         enter_flag = 2;
  5599   000430  0E02               	movlw	2
  5600   000432  6E58               	movwf	_enter_flag^0,c
  5601                           
  5602                           ;car_black_box.c: 488:         index = 0;
  5603   000434  0E00               	movlw	0
  5604   000436  6E50               	movwf	(_index+1)^0,c
  5605   000438  0E00               	movlw	0
  5606   00043A  6E4F               	movwf	_index^0,c
  5607   00043C  EF5A  F002         	goto	l299
  5608   000440                     l3459:
  5609                           
  5610                           ;car_black_box.c: 491:     if (wait++ < 800) {
  5611   000440  504D               	movf	_wait^0,w,c
  5612   000442  6E0A               	movwf	??_change_password^0,c
  5613   000444  504E               	movf	(_wait+1)^0,w,c
  5614   000446  6E0B               	movwf	(??_change_password+1)^0,c
  5615   000448  4A4D               	infsnz	_wait^0,f,c
  5616   00044A  2A4E               	incf	(_wait+1)^0,f,c
  5617   00044C  0E20               	movlw	32
  5618   00044E  5C0A               	subwf	??_change_password^0,w,c
  5619   000450  0E03               	movlw	3
  5620   000452  580B               	subwfb	(??_change_password+1)^0,w,c
  5621   000454  B0D8               	btfsc	status,0,c
  5622   000456  EF2F  F002         	goto	u3071
  5623   00045A  EF31  F002         	goto	u3070
  5624   00045E                     u3071:
  5625   00045E  EF39  F002         	goto	l3463
  5626   000462                     u3070:
  5627   000462                     
  5628                           ;car_black_box.c: 492:         clcd_putch('_', (0xC0 + (index + 3)));
  5629   000462  504F               	movf	_index^0,w,c
  5630   000464  0FC3               	addlw	195
  5631   000466  6E08               	movwf	clcd_putch@addr^0,c
  5632   000468  0E5F               	movlw	95
  5633   00046A  ECFD  F010         	call	_clcd_putch
  5634                           
  5635                           ;car_black_box.c: 493:     } else if (wait > 800) {
  5636   00046E  EF5A  F002         	goto	l299
  5637   000472                     l3463:
  5638   000472  0E21               	movlw	33
  5639   000474  5C4D               	subwf	_wait^0,w,c
  5640   000476  0E03               	movlw	3
  5641   000478  584E               	subwfb	(_wait+1)^0,w,c
  5642   00047A  A0D8               	btfss	status,0,c
  5643   00047C  EF42  F002         	goto	u3081
  5644   000480  EF44  F002         	goto	u3080
  5645   000484                     u3081:
  5646   000484  EF5A  F002         	goto	l299
  5647   000488                     u3080:
  5648   000488                     
  5649                           ;car_black_box.c: 494:         clcd_putch(' ', (0xC0 + (index + 3)));
  5650   000488  504F               	movf	_index^0,w,c
  5651   00048A  0FC3               	addlw	195
  5652   00048C  6E08               	movwf	clcd_putch@addr^0,c
  5653   00048E  0E20               	movlw	32
  5654   000490  ECFD  F010         	call	_clcd_putch
  5655   000494                     
  5656                           ;car_black_box.c: 495:         if (wait == 1600)
  5657   000494  0E40               	movlw	64
  5658   000496  184D               	xorwf	_wait^0,w,c
  5659   000498  E107               	bnz	u3091
  5660   00049A  0E06               	movlw	6
  5661   00049C  184E               	xorwf	(_wait+1)^0,w,c
  5662   00049E  A4D8               	btfss	status,2,c
  5663   0004A0  EF54  F002         	goto	u3091
  5664   0004A4  EF56  F002         	goto	u3090
  5665   0004A8                     u3091:
  5666   0004A8  EF5A  F002         	goto	l299
  5667   0004AC                     u3090:
  5668   0004AC                     
  5669                           ;car_black_box.c: 496:             wait = 0;
  5670   0004AC  0E00               	movlw	0
  5671   0004AE  6E4E               	movwf	(_wait+1)^0,c
  5672   0004B0  0E00               	movlw	0
  5673   0004B2  6E4D               	movwf	_wait^0,c
  5674   0004B4                     l299:
  5675   0004B4  0012               	return		;funcret
  5676   0004B6                     __end_of_change_password:
  5677                           	callstack 0
  5678                           
  5679 ;; *************** function _validate_password *****************
  5680 ;; Defined at:
  5681 ;;		line 178 in file "car_black_box.c"
  5682 ;; Parameters:    Size  Location     Type
  5683 ;;  original_pas    2    0[COMRAM] PTR unsigned char 
  5684 ;;		 -> enter_password(5), original_password(5), 
  5685 ;;  enter_passwo    2    2[COMRAM] PTR unsigned char 
  5686 ;;		 -> confirm_password(5), enter_password(5), 
  5687 ;; Auto vars:     Size  Location     Type
  5688 ;;  ind_compare     2    7[COMRAM] unsigned short 
  5689 ;; Return value:  Size  Location     Type
  5690 ;;                  2    0[COMRAM] int 
  5691 ;; Registers used:
  5692 ;;		wreg, fsr2l, fsr2h, status,2, status,0
  5693 ;; Tracked objects:
  5694 ;;		On entry : 0/0
  5695 ;;		On exit  : 0/0
  5696 ;;		Unchanged: 0/0
  5697 ;; Data sizes:     COMRAM   BANK0   BANK1   BANK2   BANK3   BANK4   BANK5
  5698 ;;      Params:         4       0       0       0       0       0       0
  5699 ;;      Locals:         2       0       0       0       0       0       0
  5700 ;;      Temps:          3       0       0       0       0       0       0
  5701 ;;      Totals:         9       0       0       0       0       0       0
  5702 ;;Total ram usage:        9 bytes
  5703 ;; Hardware stack levels used: 1
  5704 ;; Hardware stack levels required when called: 1
  5705 ;; This function calls:
  5706 ;;		Nothing
  5707 ;; This function is called by:
  5708 ;;		_read_password
  5709 ;;		_change_password
  5710 ;; This function uses a non-reentrant model
  5711 ;;
  5712                           
  5713                           	psect	text29
  5714   001B78                     __ptext29:
  5715                           	callstack 0
  5716   001B78                     _validate_password:
  5717                           	callstack 28
  5718   001B78                     
  5719                           ;car_black_box.c: 179:     unsigned short ind_compare = 0;
  5720   001B78  0E00               	movlw	0
  5721   001B7A  6E09               	movwf	(validate_password@ind_compare+1)^0,c
  5722   001B7C  0E00               	movlw	0
  5723   001B7E  6E08               	movwf	validate_password@ind_compare^0,c
  5724                           
  5725                           ;car_black_box.c: 180:     while (original_password[ind_compare]) {
  5726   001B80  EFFA  F00D         	goto	l2829
  5727   001B84                     l2821:
  5728                           
  5729                           ;car_black_box.c: 181:         if (original_password[ind_compare] - enter_password[ind_c
      +                          ompare] != 0) {
  5730   001B84  5008               	movf	validate_password@ind_compare^0,w,c
  5731   001B86  2401               	addwf	validate_password@original_password^0,w,c
  5732   001B88  6ED9               	movwf	fsr2l,c
  5733   001B8A  5009               	movf	(validate_password@ind_compare+1)^0,w,c
  5734   001B8C  2002               	addwfc	(validate_password@original_password+1)^0,w,c
  5735   001B8E  6EDA               	movwf	fsr2h,c
  5736   001B90  50DF               	movf	indf2,w,c
  5737   001B92  6E05               	movwf	??_validate_password^0,c
  5738   001B94  6A06               	clrf	(??_validate_password+1)^0,c
  5739   001B96  5008               	movf	validate_password@ind_compare^0,w,c
  5740   001B98  2403               	addwf	validate_password@enter_password^0,w,c
  5741   001B9A  6ED9               	movwf	fsr2l,c
  5742   001B9C  5009               	movf	(validate_password@ind_compare+1)^0,w,c
  5743   001B9E  2004               	addwfc	(validate_password@enter_password+1)^0,w,c
  5744   001BA0  6EDA               	movwf	fsr2h,c
  5745   001BA2  50DF               	movf	indf2,w,c
  5746   001BA4  6E07               	movwf	(??_validate_password+2)^0,c
  5747   001BA6  5007               	movf	(??_validate_password+2)^0,w,c
  5748   001BA8  5E05               	subwf	??_validate_password^0,f,c
  5749   001BAA  0E00               	movlw	0
  5750   001BAC  5A06               	subwfb	(??_validate_password+1)^0,f,c
  5751   001BAE  5005               	movf	??_validate_password^0,w,c
  5752   001BB0  1006               	iorwf	(??_validate_password+1)^0,w,c
  5753   001BB2  B4D8               	btfsc	status,2,c
  5754   001BB4  EFDE  F00D         	goto	u2081
  5755   001BB8  EFE0  F00D         	goto	u2080
  5756   001BBC                     u2081:
  5757   001BBC  EFF8  F00D         	goto	l2827
  5758   001BC0                     u2080:
  5759   001BC0                     l2823:
  5760                           
  5761                           ;car_black_box.c: 182:             return original_password[ind_compare] - enter_passwor
      +                          d[ind_compare];
  5762   001BC0  5008               	movf	validate_password@ind_compare^0,w,c
  5763   001BC2  2401               	addwf	validate_password@original_password^0,w,c
  5764   001BC4  6ED9               	movwf	fsr2l,c
  5765   001BC6  5009               	movf	(validate_password@ind_compare+1)^0,w,c
  5766   001BC8  2002               	addwfc	(validate_password@original_password+1)^0,w,c
  5767   001BCA  6EDA               	movwf	fsr2h,c
  5768   001BCC  50DF               	movf	indf2,w,c
  5769   001BCE  6E05               	movwf	??_validate_password^0,c
  5770   001BD0  5008               	movf	validate_password@ind_compare^0,w,c
  5771   001BD2  2403               	addwf	validate_password@enter_password^0,w,c
  5772   001BD4  6ED9               	movwf	fsr2l,c
  5773   001BD6  5009               	movf	(validate_password@ind_compare+1)^0,w,c
  5774   001BD8  2004               	addwfc	(validate_password@enter_password+1)^0,w,c
  5775   001BDA  6EDA               	movwf	fsr2h,c
  5776   001BDC  50DF               	movf	indf2,w,c
  5777   001BDE  6E06               	movwf	(??_validate_password+1)^0,c
  5778   001BE0  5006               	movf	(??_validate_password+1)^0,w,c
  5779   001BE2  5C05               	subwf	??_validate_password^0,w,c
  5780   001BE4  6E01               	movwf	?_validate_password^0,c
  5781   001BE6  6A02               	clrf	(?_validate_password+1)^0,c
  5782   001BE8  A0D8               	btfss	status,0,c
  5783   001BEA  0602               	decf	(?_validate_password+1)^0,f,c
  5784   001BEC  EF0A  F00E         	goto	l228
  5785   001BF0                     l2827:
  5786                           
  5787                           ;car_black_box.c: 184:         ind_compare++;
  5788   001BF0  4A08               	infsnz	validate_password@ind_compare^0,f,c
  5789   001BF2  2A09               	incf	(validate_password@ind_compare+1)^0,f,c
  5790   001BF4                     l2829:
  5791                           
  5792                           ;car_black_box.c: 180:     while (original_password[ind_compare]) {
  5793   001BF4  5008               	movf	validate_password@ind_compare^0,w,c
  5794   001BF6  2401               	addwf	validate_password@original_password^0,w,c
  5795   001BF8  6ED9               	movwf	fsr2l,c
  5796   001BFA  5009               	movf	(validate_password@ind_compare+1)^0,w,c
  5797   001BFC  2002               	addwfc	(validate_password@original_password+1)^0,w,c
  5798   001BFE  6EDA               	movwf	fsr2h,c
  5799   001C00  50DF               	movf	indf2,w,c
  5800   001C02  A4D8               	btfss	status,2,c
  5801   001C04  EF06  F00E         	goto	u2091
  5802   001C08  EF08  F00E         	goto	u2090
  5803   001C0C                     u2091:
  5804   001C0C  EFC2  F00D         	goto	l2821
  5805   001C10                     u2090:
  5806   001C10  EFE0  F00D         	goto	l2823
  5807   001C14                     l228:
  5808   001C14  0012               	return		;funcret
  5809   001C16                     __end_of_validate_password:
  5810                           	callstack 0
  5811                           
  5812 ;; *************** function _car_menu *****************
  5813 ;; Defined at:
  5814 ;;		line 191 in file "car_black_box.c"
  5815 ;; Parameters:    Size  Location     Type
  5816 ;;  key             1    wreg     unsigned char 
  5817 ;; Auto vars:     Size  Location     Type
  5818 ;;  key             1   15[COMRAM] unsigned char 
  5819 ;; Return value:  Size  Location     Type
  5820 ;;                  1    wreg      void 
  5821 ;; Registers used:
  5822 ;;		wreg, fsr1l, fsr1h, fsr2l, fsr2h, status,2, status,0, tblptrl, tblptrh, tblptru, cstack
  5823 ;; Tracked objects:
  5824 ;;		On entry : 0/0
  5825 ;;		On exit  : 0/0
  5826 ;;		Unchanged: 0/0
  5827 ;; Data sizes:     COMRAM   BANK0   BANK1   BANK2   BANK3   BANK4   BANK5
  5828 ;;      Params:         0       0       0       0       0       0       0
  5829 ;;      Locals:         1       0       0       0       0       0       0
  5830 ;;      Temps:          2       0       0       0       0       0       0
  5831 ;;      Totals:         3       0       0       0       0       0       0
  5832 ;;Total ram usage:        3 bytes
  5833 ;; Hardware stack levels used: 1
  5834 ;; Hardware stack levels required when called: 5
  5835 ;; This function calls:
  5836 ;;		_clcd_print
  5837 ;;		_clcd_putch
  5838 ;;		_store_event
  5839 ;; This function is called by:
  5840 ;;		_main
  5841 ;; This function uses a non-reentrant model
  5842 ;;
  5843                           
  5844                           	psect	text30
  5845   000BE4                     __ptext30:
  5846                           	callstack 0
  5847   000BE4                     _car_menu:
  5848                           	callstack 25
  5849                           
  5850                           ;incstack = 0
  5851                           ;car_menu@key stored from wreg
  5852   000BE4  6E10               	movwf	car_menu@key^0,c
  5853   000BE6                     
  5854                           ;car_black_box.c: 192:     if (key == 11) {
  5855   000BE6  0E0B               	movlw	11
  5856   000BE8  1810               	xorwf	car_menu@key^0,w,c
  5857   000BEA  A4D8               	btfss	status,2,c
  5858   000BEC  EFFA  F005         	goto	u2481
  5859   000BF0  EFFC  F005         	goto	u2480
  5860   000BF4                     u2481:
  5861   000BF4  EF68  F006         	goto	l3139
  5862   000BF8                     u2480:
  5863   000BF8                     
  5864                           ;car_black_box.c: 193:         sec = 0;
  5865   000BF8  0E00               	movlw	0
  5866   000BFA  6E54               	movwf	(_sec+1)^0,c
  5867   000BFC  0E00               	movlw	0
  5868   000BFE  6E53               	movwf	_sec^0,c
  5869   000C00                     
  5870                           ;car_black_box.c: 194:         previous_key = key;
  5871   000C00  C010  F04B         	movff	car_menu@key,_previous_key
  5872   000C04  6A4C               	clrf	(_previous_key+1)^0,c
  5873   000C06                     
  5874                           ;car_black_box.c: 195:         if (wait1++ > 400) {
  5875   000C06  5045               	movf	_wait1^0,w,c
  5876   000C08  6E0E               	movwf	??_car_menu^0,c
  5877   000C0A  5046               	movf	(_wait1+1)^0,w,c
  5878   000C0C  6E0F               	movwf	(??_car_menu+1)^0,c
  5879   000C0E  4A45               	infsnz	_wait1^0,f,c
  5880   000C10  2A46               	incf	(_wait1+1)^0,f,c
  5881   000C12  0E91               	movlw	145
  5882   000C14  5C0E               	subwf	??_car_menu^0,w,c
  5883   000C16  0E01               	movlw	1
  5884   000C18  580F               	subwfb	(??_car_menu+1)^0,w,c
  5885   000C1A  A0D8               	btfss	status,0,c
  5886   000C1C  EF12  F006         	goto	u2491
  5887   000C20  EF14  F006         	goto	u2490
  5888   000C24                     u2491:
  5889   000C24  EFC8  F006         	goto	l3163
  5890   000C28                     u2490:
  5891   000C28                     
  5892                           ;car_black_box.c: 196:             if (menu_index == 4 || menu_index == 3)
  5893   000C28  0E04               	movlw	4
  5894   000C2A  1847               	xorwf	_menu_index^0,w,c
  5895   000C2C  1048               	iorwf	(_menu_index+1)^0,w,c
  5896   000C2E  B4D8               	btfsc	status,2,c
  5897   000C30  EF1C  F006         	goto	u2501
  5898   000C34  EF1E  F006         	goto	u2500
  5899   000C38                     u2501:
  5900   000C38  EF28  F006         	goto	l3127
  5901   000C3C                     u2500:
  5902   000C3C  0E03               	movlw	3
  5903   000C3E  1847               	xorwf	_menu_index^0,w,c
  5904   000C40  1048               	iorwf	(_menu_index+1)^0,w,c
  5905   000C42  A4D8               	btfss	status,2,c
  5906   000C44  EF26  F006         	goto	u2511
  5907   000C48  EF28  F006         	goto	u2510
  5908   000C4C                     u2511:
  5909   000C4C  EF2C  F006         	goto	l3129
  5910   000C50                     u2510:
  5911   000C50                     l3127:
  5912                           
  5913                           ;car_black_box.c: 197:                 wait1 = 0;
  5914   000C50  0E00               	movlw	0
  5915   000C52  6E46               	movwf	(_wait1+1)^0,c
  5916   000C54  0E00               	movlw	0
  5917   000C56  6E45               	movwf	_wait1^0,c
  5918   000C58                     l3129:
  5919                           
  5920                           ;car_black_box.c: 199:             enter_flag = menu_index + 3;
  5921   000C58  5047               	movf	_menu_index^0,w,c
  5922   000C5A  0F03               	addlw	3
  5923   000C5C  6E58               	movwf	_enter_flag^0,c
  5924   000C5E                     
  5925                           ;car_black_box.c: 200:             if (menu_index > 0) {
  5926   000C5E  5047               	movf	_menu_index^0,w,c
  5927   000C60  1048               	iorwf	(_menu_index+1)^0,w,c
  5928   000C62  B4D8               	btfsc	status,2,c
  5929   000C64  EF36  F006         	goto	u2521
  5930   000C68  EF38  F006         	goto	u2520
  5931   000C6C                     u2521:
  5932   000C6C  EFB1  F007         	goto	l240
  5933   000C70                     u2520:
  5934   000C70                     
  5935                           ;car_black_box.c: 201:                 event[10] = menu_event[menu_index - 1][0];
  5936   000C70  90D8               	bcf	status,0,c
  5937   000C72  3447               	rlcf	_menu_index^0,w,c
  5938   000C74  6ED9               	movwf	fsr2l,c
  5939   000C76  3448               	rlcf	(_menu_index+1)^0,w,c
  5940   000C78  6EDA               	movwf	fsr2h,c
  5941   000C7A  0E78               	movlw	low (_menu_event+65534)
  5942   000C7C  26D9               	addwf	fsr2l,f,c
  5943   000C7E  0E00               	movlw	high (_menu_event+65534)
  5944   000C80  22DA               	addwfc	fsr2h,f,c
  5945   000C82  CFDE FFF6          	movff	postinc2,tblptrl
  5946   000C86  CFDD FFF7          	movff	postdec2,tblptrh
  5947   000C8A                     	if	0	;tblptru may be non-zero
  5948   000C8A                     	endif
  5949   000C8A                     	if	0	;tblptru may be non-zero
  5950   000C8A                     	endif
  5951   000C8A  0008               	tblrd		*
  5952   000C8C  CFF5 F08E          	movff	tablat,_event+10
  5953                           
  5954                           ;car_black_box.c: 202:                 event[11] = menu_event[menu_index - 1][1];
  5955   000C90  90D8               	bcf	status,0,c
  5956   000C92  3447               	rlcf	_menu_index^0,w,c
  5957   000C94  6ED9               	movwf	fsr2l,c
  5958   000C96  3448               	rlcf	(_menu_index+1)^0,w,c
  5959   000C98  6EDA               	movwf	fsr2h,c
  5960   000C9A  0E78               	movlw	low (_menu_event+65534)
  5961   000C9C  26D9               	addwf	fsr2l,f,c
  5962   000C9E  0E00               	movlw	high (_menu_event+65534)
  5963   000CA0  22DA               	addwfc	fsr2h,f,c
  5964   000CA2  CFDE F00E          	movff	postinc2,??_car_menu
  5965   000CA6  CFDD F00F          	movff	postdec2,??_car_menu+1
  5966   000CAA  0E01               	movlw	1
  5967   000CAC  260E               	addwf	??_car_menu^0,f,c
  5968   000CAE  0E00               	movlw	0
  5969   000CB0  220F               	addwfc	(??_car_menu+1)^0,f,c
  5970   000CB2  C00E  FFF6         	movff	??_car_menu,tblptrl
  5971   000CB6  C00F  FFF7         	movff	??_car_menu+1,tblptrh
  5972   000CBA                     	if	0	;tblptru may be non-zero
  5973   000CBA                     	endif
  5974   000CBA                     	if	0	;tblptru may be non-zero
  5975   000CBA                     	endif
  5976   000CBA  0008               	tblrd		*
  5977   000CBC  CFF5 F08F          	movff	tablat,_event+11
  5978   000CC0                     
  5979                           ;car_black_box.c: 203:                 store_event(event);
  5980   000CC0  0E84               	movlw	low _event
  5981   000CC2  6E06               	movwf	store_event@event^0,c
  5982   000CC4  0E00               	movlw	high _event
  5983   000CC6  6E07               	movwf	(store_event@event+1)^0,c
  5984   000CC8  EC03  F00D         	call	_store_event	;wreg free
  5985   000CCC  EFB1  F007         	goto	l240
  5986   000CD0                     l3139:
  5987   000CD0  5045               	movf	_wait1^0,w,c
  5988   000CD2  1046               	iorwf	(_wait1+1)^0,w,c
  5989   000CD4  B4D8               	btfsc	status,2,c
  5990   000CD6  EF6F  F006         	goto	u2531
  5991   000CDA  EF71  F006         	goto	u2530
  5992   000CDE                     u2531:
  5993   000CDE  EFC8  F006         	goto	l3163
  5994   000CE2                     u2530:
  5995   000CE2  0E90               	movlw	144
  5996   000CE4  5C45               	subwf	_wait1^0,w,c
  5997   000CE6  0E01               	movlw	1
  5998   000CE8  5846               	subwfb	(_wait1+1)^0,w,c
  5999   000CEA  B0D8               	btfsc	status,0,c
  6000   000CEC  EF7A  F006         	goto	u2541
  6001   000CF0  EF7C  F006         	goto	u2540
  6002   000CF4                     u2541:
  6003   000CF4  EFC8  F006         	goto	l3163
  6004   000CF8                     u2540:
  6005   000CF8  0E0B               	movlw	11
  6006   000CFA  184B               	xorwf	_previous_key^0,w,c
  6007   000CFC  104C               	iorwf	(_previous_key+1)^0,w,c
  6008   000CFE  A4D8               	btfss	status,2,c
  6009   000D00  EF84  F006         	goto	u2551
  6010   000D04  EF86  F006         	goto	u2550
  6011   000D08                     u2551:
  6012   000D08  EFC8  F006         	goto	l3163
  6013   000D0C                     u2550:
  6014   000D0C  2810               	incf	car_menu@key^0,w,c
  6015   000D0E  A4D8               	btfss	status,2,c
  6016   000D10  EF8C  F006         	goto	u2561
  6017   000D14  EF8E  F006         	goto	u2560
  6018   000D18                     u2561:
  6019   000D18  EFC8  F006         	goto	l3163
  6020   000D1C                     u2560:
  6021   000D1C  5059               	movf	_index_2^0,w,c
  6022   000D1E  105A               	iorwf	(_index_2+1)^0,w,c
  6023   000D20  B4D8               	btfsc	status,2,c
  6024   000D22  EF95  F006         	goto	u2571
  6025   000D26  EF97  F006         	goto	u2570
  6026   000D2A                     u2571:
  6027   000D2A  EFC8  F006         	goto	l3163
  6028   000D2E                     u2570:
  6029   000D2E                     
  6030                           ;car_black_box.c: 208:         if (star_flag == 0) {
  6031   000D2E  0100               	movlb	0	; () banked
  6032   000D30  5182               	movf	_star_flag& (0+255),w,b
  6033   000D32  1183               	iorwf	(_star_flag+1)& (0+255),w,b
  6034   000D34  A4D8               	btfss	status,2,c
  6035   000D36  EF9F  F006         	goto	u2581
  6036   000D3A  EFA1  F006         	goto	u2580
  6037   000D3E                     u2581:
  6038   000D3E  EFA7  F006         	goto	l3153
  6039   000D42                     u2580:
  6040   000D42                     
  6041                           ; BSR set to: 0
  6042                           ;car_black_box.c: 209:             star_flag = 1;
  6043   000D42  0E00               	movlw	0
  6044   000D44  6F83               	movwf	(_star_flag+1)& (0+255),b
  6045   000D46  0E01               	movlw	1
  6046   000D48  6F82               	movwf	_star_flag& (0+255),b
  6047                           
  6048                           ;car_black_box.c: 210:         } else if (index_2 > 1) {
  6049   000D4A  EFB8  F006         	goto	l3157
  6050   000D4E                     l3153:
  6051                           
  6052                           ; BSR set to: 0
  6053   000D4E  505A               	movf	(_index_2+1)^0,w,c
  6054   000D50  E109               	bnz	u2590
  6055   000D52  0E02               	movlw	2
  6056   000D54  5C59               	subwf	_index_2^0,w,c
  6057   000D56  A0D8               	btfss	status,0,c
  6058   000D58  EFB0  F006         	goto	u2591
  6059   000D5C  EFB2  F006         	goto	u2590
  6060   000D60                     u2591:
  6061   000D60  EFB8  F006         	goto	l3157
  6062   000D64                     u2590:
  6063   000D64                     
  6064                           ; BSR set to: 0
  6065                           ;car_black_box.c: 211:             index_1--;
  6066   000D64  0649               	decf	_index_1^0,f,c
  6067   000D66  A0D8               	btfss	status,0,c
  6068   000D68  064A               	decf	(_index_1+1)^0,f,c
  6069                           
  6070                           ;car_black_box.c: 212:             index_2--;
  6071   000D6A  0659               	decf	_index_2^0,f,c
  6072   000D6C  A0D8               	btfss	status,0,c
  6073   000D6E  065A               	decf	(_index_2+1)^0,f,c
  6074   000D70                     l3157:
  6075                           
  6076                           ; BSR set to: 0
  6077                           ;car_black_box.c: 214:         if (menu_index > 0) {
  6078   000D70  5047               	movf	_menu_index^0,w,c
  6079   000D72  1048               	iorwf	(_menu_index+1)^0,w,c
  6080   000D74  B4D8               	btfsc	status,2,c
  6081   000D76  EFBF  F006         	goto	u2601
  6082   000D7A  EFC1  F006         	goto	u2600
  6083   000D7E                     u2601:
  6084   000D7E  EFC4  F006         	goto	l3161
  6085   000D82                     u2600:
  6086   000D82                     
  6087                           ; BSR set to: 0
  6088                           ;car_black_box.c: 215:             menu_index--;
  6089   000D82  0647               	decf	_menu_index^0,f,c
  6090   000D84  A0D8               	btfss	status,0,c
  6091   000D86  0648               	decf	(_menu_index+1)^0,f,c
  6092   000D88                     l3161:
  6093                           
  6094                           ; BSR set to: 0
  6095                           ;car_black_box.c: 217:         wait1 = 0;
  6096   000D88  0E00               	movlw	0
  6097   000D8A  6E46               	movwf	(_wait1+1)^0,c
  6098   000D8C  0E00               	movlw	0
  6099   000D8E  6E45               	movwf	_wait1^0,c
  6100   000D90                     l3163:
  6101                           
  6102                           ;car_black_box.c: 219:     if (key == 12) {
  6103   000D90  0E0C               	movlw	12
  6104   000D92  1810               	xorwf	car_menu@key^0,w,c
  6105   000D94  A4D8               	btfss	status,2,c
  6106   000D96  EFCF  F006         	goto	u2611
  6107   000D9A  EFD1  F006         	goto	u2610
  6108   000D9E                     u2611:
  6109   000D9E  EF02  F007         	goto	l3175
  6110   000DA2                     u2610:
  6111   000DA2                     
  6112                           ;car_black_box.c: 220:         sec = 0;
  6113   000DA2  0E00               	movlw	0
  6114   000DA4  6E54               	movwf	(_sec+1)^0,c
  6115   000DA6  0E00               	movlw	0
  6116   000DA8  6E53               	movwf	_sec^0,c
  6117   000DAA                     
  6118                           ;car_black_box.c: 221:         previous_key = key;
  6119   000DAA  C010  F04B         	movff	car_menu@key,_previous_key
  6120   000DAE  6A4C               	clrf	(_previous_key+1)^0,c
  6121   000DB0                     
  6122                           ;car_black_box.c: 222:         if (wait1++ > 400) {
  6123   000DB0  5045               	movf	_wait1^0,w,c
  6124   000DB2  6E0E               	movwf	??_car_menu^0,c
  6125   000DB4  5046               	movf	(_wait1+1)^0,w,c
  6126   000DB6  6E0F               	movwf	(??_car_menu+1)^0,c
  6127   000DB8  4A45               	infsnz	_wait1^0,f,c
  6128   000DBA  2A46               	incf	(_wait1+1)^0,f,c
  6129   000DBC  0E91               	movlw	145
  6130   000DBE  5C0E               	subwf	??_car_menu^0,w,c
  6131   000DC0  0E01               	movlw	1
  6132   000DC2  580F               	subwfb	(??_car_menu+1)^0,w,c
  6133   000DC4  A0D8               	btfss	status,0,c
  6134   000DC6  EFE7  F006         	goto	u2621
  6135   000DCA  EFE9  F006         	goto	u2620
  6136   000DCE                     u2621:
  6137   000DCE  EF63  F007         	goto	l3199
  6138   000DD2                     u2620:
  6139   000DD2                     l3171:
  6140                           
  6141                           ;car_black_box.c: 223:             index_1 = 0;
  6142   000DD2  0E00               	movlw	0
  6143   000DD4  6E4A               	movwf	(_index_1+1)^0,c
  6144   000DD6  0E00               	movlw	0
  6145   000DD8  6E49               	movwf	_index_1^0,c
  6146                           
  6147                           ;car_black_box.c: 224:             index_2 = 1;
  6148   000DDA  0E00               	movlw	0
  6149   000DDC  6E5A               	movwf	(_index_2+1)^0,c
  6150   000DDE  0E01               	movlw	1
  6151   000DE0  6E59               	movwf	_index_2^0,c
  6152                           
  6153                           ;car_black_box.c: 225:             star_flag = 1;
  6154   000DE2  0E00               	movlw	0
  6155   000DE4  0100               	movlb	0	; () banked
  6156   000DE6  6F83               	movwf	(_star_flag+1)& (0+255),b
  6157   000DE8  0E01               	movlw	1
  6158   000DEA  6F82               	movwf	_star_flag& (0+255),b
  6159                           
  6160                           ;car_black_box.c: 226:             menu_index = 0;
  6161   000DEC  0E00               	movlw	0
  6162   000DEE  6E48               	movwf	(_menu_index+1)^0,c
  6163   000DF0  0E00               	movlw	0
  6164   000DF2  6E47               	movwf	_menu_index^0,c
  6165                           
  6166                           ;car_black_box.c: 227:             enter_flag = 0;
  6167   000DF4  0E00               	movlw	0
  6168   000DF6  6E58               	movwf	_enter_flag^0,c
  6169                           
  6170                           ;car_black_box.c: 228:             wait1 = 0;
  6171   000DF8  0E00               	movlw	0
  6172   000DFA  6E46               	movwf	(_wait1+1)^0,c
  6173   000DFC  0E00               	movlw	0
  6174   000DFE  6E45               	movwf	_wait1^0,c
  6175   000E00  EFB1  F007         	goto	l240
  6176   000E04                     l3175:
  6177   000E04  5045               	movf	_wait1^0,w,c
  6178   000E06  1046               	iorwf	(_wait1+1)^0,w,c
  6179   000E08  B4D8               	btfsc	status,2,c
  6180   000E0A  EF09  F007         	goto	u2631
  6181   000E0E  EF0B  F007         	goto	u2630
  6182   000E12                     u2631:
  6183   000E12  EF63  F007         	goto	l3199
  6184   000E16                     u2630:
  6185   000E16  0E90               	movlw	144
  6186   000E18  5C45               	subwf	_wait1^0,w,c
  6187   000E1A  0E01               	movlw	1
  6188   000E1C  5846               	subwfb	(_wait1+1)^0,w,c
  6189   000E1E  B0D8               	btfsc	status,0,c
  6190   000E20  EF14  F007         	goto	u2641
  6191   000E24  EF16  F007         	goto	u2640
  6192   000E28                     u2641:
  6193   000E28  EF63  F007         	goto	l3199
  6194   000E2C                     u2640:
  6195   000E2C  0E0C               	movlw	12
  6196   000E2E  184B               	xorwf	_previous_key^0,w,c
  6197   000E30  104C               	iorwf	(_previous_key+1)^0,w,c
  6198   000E32  A4D8               	btfss	status,2,c
  6199   000E34  EF1E  F007         	goto	u2651
  6200   000E38  EF20  F007         	goto	u2650
  6201   000E3C                     u2651:
  6202   000E3C  EF63  F007         	goto	l3199
  6203   000E40                     u2650:
  6204   000E40  2810               	incf	car_menu@key^0,w,c
  6205   000E42  A4D8               	btfss	status,2,c
  6206   000E44  EF26  F007         	goto	u2661
  6207   000E48  EF28  F007         	goto	u2660
  6208   000E4C                     u2661:
  6209   000E4C  EF63  F007         	goto	l3199
  6210   000E50                     u2660:
  6211   000E50  504A               	movf	(_index_1+1)^0,w,c
  6212   000E52  E107               	bnz	u2671
  6213   000E54  0E04               	movlw	4
  6214   000E56  5C49               	subwf	_index_1^0,w,c
  6215   000E58  B0D8               	btfsc	status,0,c
  6216   000E5A  EF31  F007         	goto	u2671
  6217   000E5E  EF33  F007         	goto	u2670
  6218   000E62                     u2671:
  6219   000E62  EF63  F007         	goto	l3199
  6220   000E66                     u2670:
  6221   000E66                     
  6222                           ;car_black_box.c: 232:         if (star_flag == 1) {
  6223   000E66  0100               	movlb	0	; () banked
  6224   000E68  0582               	decf	_star_flag& (0+255),w,b
  6225   000E6A  1183               	iorwf	(_star_flag+1)& (0+255),w,b
  6226   000E6C  A4D8               	btfss	status,2,c
  6227   000E6E  EF3B  F007         	goto	u2681
  6228   000E72  EF3D  F007         	goto	u2680
  6229   000E76                     u2681:
  6230   000E76  EF43  F007         	goto	l3189
  6231   000E7A                     u2680:
  6232   000E7A                     
  6233                           ; BSR set to: 0
  6234                           ;car_black_box.c: 233:             star_flag = 0;
  6235   000E7A  0E00               	movlw	0
  6236   000E7C  6F83               	movwf	(_star_flag+1)& (0+255),b
  6237   000E7E  0E00               	movlw	0
  6238   000E80  6F82               	movwf	_star_flag& (0+255),b
  6239                           
  6240                           ;car_black_box.c: 234:         } else if (index_1 < 3) {
  6241   000E82  EF52  F007         	goto	l3193
  6242   000E86                     l3189:
  6243                           
  6244                           ; BSR set to: 0
  6245   000E86  504A               	movf	(_index_1+1)^0,w,c
  6246   000E88  E107               	bnz	u2691
  6247   000E8A  0E03               	movlw	3
  6248   000E8C  5C49               	subwf	_index_1^0,w,c
  6249   000E8E  B0D8               	btfsc	status,0,c
  6250   000E90  EF4C  F007         	goto	u2691
  6251   000E94  EF4E  F007         	goto	u2690
  6252   000E98                     u2691:
  6253   000E98  EF52  F007         	goto	l3193
  6254   000E9C                     u2690:
  6255   000E9C                     
  6256                           ; BSR set to: 0
  6257                           ;car_black_box.c: 235:             index_1++;
  6258   000E9C  4A49               	infsnz	_index_1^0,f,c
  6259   000E9E  2A4A               	incf	(_index_1+1)^0,f,c
  6260                           
  6261                           ;car_black_box.c: 236:             index_2++;
  6262   000EA0  4A59               	infsnz	_index_2^0,f,c
  6263   000EA2  2A5A               	incf	(_index_2+1)^0,f,c
  6264   000EA4                     l3193:
  6265                           
  6266                           ; BSR set to: 0
  6267                           ;car_black_box.c: 238:         if (menu_index < 4) {
  6268   000EA4  5048               	movf	(_menu_index+1)^0,w,c
  6269   000EA6  E107               	bnz	u2701
  6270   000EA8  0E04               	movlw	4
  6271   000EAA  5C47               	subwf	_menu_index^0,w,c
  6272   000EAC  B0D8               	btfsc	status,0,c
  6273   000EAE  EF5B  F007         	goto	u2701
  6274   000EB2  EF5D  F007         	goto	u2700
  6275   000EB6                     u2701:
  6276   000EB6  EF5F  F007         	goto	l3197
  6277   000EBA                     u2700:
  6278   000EBA                     
  6279                           ; BSR set to: 0
  6280                           ;car_black_box.c: 239:             menu_index++;
  6281   000EBA  4A47               	infsnz	_menu_index^0,f,c
  6282   000EBC  2A48               	incf	(_menu_index+1)^0,f,c
  6283   000EBE                     l3197:
  6284                           
  6285                           ; BSR set to: 0
  6286                           ;car_black_box.c: 241:         wait1 = 0;
  6287   000EBE  0E00               	movlw	0
  6288   000EC0  6E46               	movwf	(_wait1+1)^0,c
  6289   000EC2  0E00               	movlw	0
  6290   000EC4  6E45               	movwf	_wait1^0,c
  6291   000EC6                     l3199:
  6292                           
  6293                           ;car_black_box.c: 243:     if (sec == 5) {
  6294   000EC6  0E05               	movlw	5
  6295   000EC8  1853               	xorwf	_sec^0,w,c
  6296   000ECA  1054               	iorwf	(_sec+1)^0,w,c
  6297   000ECC  A4D8               	btfss	status,2,c
  6298   000ECE  EF6B  F007         	goto	u2711
  6299   000ED2  EF6D  F007         	goto	u2710
  6300   000ED6                     u2711:
  6301   000ED6  EF6F  F007         	goto	l3205
  6302   000EDA                     u2710:
  6303   000EDA  EFE9  F006         	goto	l3171
  6304   000EDE                     l3205:
  6305                           
  6306                           ;car_black_box.c: 252:     if (star_flag == 1) {
  6307   000EDE  0100               	movlb	0	; () banked
  6308   000EE0  0582               	decf	_star_flag& (0+255),w,b
  6309   000EE2  1183               	iorwf	(_star_flag+1)& (0+255),w,b
  6310   000EE4  A4D8               	btfss	status,2,c
  6311   000EE6  EF77  F007         	goto	u2721
  6312   000EEA  EF79  F007         	goto	u2720
  6313   000EEE                     u2721:
  6314   000EEE  EF85  F007         	goto	l3209
  6315   000EF2                     u2720:
  6316   000EF2                     
  6317                           ; BSR set to: 0
  6318                           ;car_black_box.c: 253:         clcd_putch('*', (0x80 + (0)));
  6319   000EF2  0E80               	movlw	128
  6320   000EF4  6E08               	movwf	clcd_putch@addr^0,c
  6321   000EF6  0E2A               	movlw	42
  6322   000EF8  ECFD  F010         	call	_clcd_putch
  6323                           
  6324                           ;car_black_box.c: 254:         clcd_putch(' ', (0xC0 + (0)));
  6325   000EFC  0EC0               	movlw	192
  6326   000EFE  6E08               	movwf	clcd_putch@addr^0,c
  6327   000F00  0E20               	movlw	32
  6328   000F02  ECFD  F010         	call	_clcd_putch
  6329                           
  6330                           ;car_black_box.c: 255:     } else {
  6331   000F06  EF8F  F007         	goto	l3211
  6332   000F0A                     l3209:
  6333                           
  6334                           ; BSR set to: 0
  6335                           ;car_black_box.c: 256:         clcd_putch(' ', (0x80 + (0)));
  6336   000F0A  0E80               	movlw	128
  6337   000F0C  6E08               	movwf	clcd_putch@addr^0,c
  6338   000F0E  0E20               	movlw	32
  6339   000F10  ECFD  F010         	call	_clcd_putch
  6340                           
  6341                           ;car_black_box.c: 257:         clcd_putch('*', (0xC0 + (0)));
  6342   000F14  0EC0               	movlw	192
  6343   000F16  6E08               	movwf	clcd_putch@addr^0,c
  6344   000F18  0E2A               	movlw	42
  6345   000F1A  ECFD  F010         	call	_clcd_putch
  6346   000F1E                     l3211:
  6347                           
  6348                           ;car_black_box.c: 259:     clcd_print(menu[index_1], (0x80 + (1)));
  6349   000F1E  90D8               	bcf	status,0,c
  6350   000F20  3449               	rlcf	_index_1^0,w,c
  6351   000F22  6ED9               	movwf	fsr2l,c
  6352   000F24  344A               	rlcf	(_index_1+1)^0,w,c
  6353   000F26  6EDA               	movwf	fsr2h,c
  6354   000F28  0E70               	movlw	low _menu
  6355   000F2A  26D9               	addwf	fsr2l,f,c
  6356   000F2C  0E00               	movlw	high _menu
  6357   000F2E  22DA               	addwfc	fsr2h,f,c
  6358   000F30  CFDE F003          	movff	postinc2,clcd_print@data
  6359   000F34  CFDD F004          	movff	postdec2,clcd_print@data+1
  6360   000F38  0E81               	movlw	129
  6361   000F3A  6E05               	movwf	clcd_print@addr^0,c
  6362   000F3C  ECBF  F00E         	call	_clcd_print	;wreg free
  6363   000F40                     
  6364                           ;car_black_box.c: 260:     clcd_print(menu[index_2], (0xC0 + (1)));
  6365   000F40  90D8               	bcf	status,0,c
  6366   000F42  3459               	rlcf	_index_2^0,w,c
  6367   000F44  6ED9               	movwf	fsr2l,c
  6368   000F46  345A               	rlcf	(_index_2+1)^0,w,c
  6369   000F48  6EDA               	movwf	fsr2h,c
  6370   000F4A  0E70               	movlw	low _menu
  6371   000F4C  26D9               	addwf	fsr2l,f,c
  6372   000F4E  0E00               	movlw	high _menu
  6373   000F50  22DA               	addwfc	fsr2h,f,c
  6374   000F52  CFDE F003          	movff	postinc2,clcd_print@data
  6375   000F56  CFDD F004          	movff	postdec2,clcd_print@data+1
  6376   000F5A  0EC1               	movlw	193
  6377   000F5C  6E05               	movwf	clcd_print@addr^0,c
  6378   000F5E  ECBF  F00E         	call	_clcd_print	;wreg free
  6379   000F62                     l240:
  6380   000F62  0012               	return		;funcret
  6381   000F64                     __end_of_car_menu:
  6382                           	callstack 0
  6383                           
  6384 ;; *************** function _store_event *****************
  6385 ;; Defined at:
  6386 ;;		line 98 in file "car_black_box.c"
  6387 ;; Parameters:    Size  Location     Type
  6388 ;;  event           2    5[COMRAM] PTR unsigned char 
  6389 ;;		 -> event(17), 
  6390 ;; Auto vars:     Size  Location     Type
  6391 ;;  ind             2   11[COMRAM] int 
  6392 ;;  address         2    9[COMRAM] int 
  6393 ;; Return value:  Size  Location     Type
  6394 ;;                  1    wreg      void 
  6395 ;; Registers used:
  6396 ;;		wreg, fsr2l, fsr2h, status,2, status,0, cstack
  6397 ;; Tracked objects:
  6398 ;;		On entry : 0/0
  6399 ;;		On exit  : 0/0
  6400 ;;		Unchanged: 0/0
  6401 ;; Data sizes:     COMRAM   BANK0   BANK1   BANK2   BANK3   BANK4   BANK5
  6402 ;;      Params:         2       0       0       0       0       0       0
  6403 ;;      Locals:         4       0       0       0       0       0       0
  6404 ;;      Temps:          2       0       0       0       0       0       0
  6405 ;;      Totals:         8       0       0       0       0       0       0
  6406 ;;Total ram usage:        8 bytes
  6407 ;; Hardware stack levels used: 1
  6408 ;; Hardware stack levels required when called: 4
  6409 ;; This function calls:
  6410 ;;		_write_external_eeprom
  6411 ;; This function is called by:
  6412 ;;		_main
  6413 ;;		_gear_monitor
  6414 ;;		_car_menu
  6415 ;;		_clear_log
  6416 ;; This function uses a non-reentrant model
  6417 ;;
  6418                           
  6419                           	psect	text31
  6420   001A06                     __ptext31:
  6421                           	callstack 0
  6422   001A06                     _store_event:
  6423                           	callstack 26
  6424   001A06                     
  6425                           ;car_black_box.c: 99:     int address;;car_black_box.c: 100:     address = 0x00 + (16 * 
      +                          index_eeprom);
  6426   001A06  C0AD  F008         	movff	_index_eeprom,??_store_event
  6427   001A0A  C0AE  F009         	movff	_index_eeprom+1,??_store_event+1
  6428   001A0E  3A08               	swapf	??_store_event^0,f,c
  6429   001A10  3A09               	swapf	(??_store_event+1)^0,f,c
  6430   001A12  0EF0               	movlw	240
  6431   001A14  1609               	andwf	(??_store_event+1)^0,f,c
  6432   001A16  5008               	movf	??_store_event^0,w,c
  6433   001A18  0B0F               	andlw	15
  6434   001A1A  1209               	iorwf	(??_store_event+1)^0,f,c
  6435   001A1C  0EF0               	movlw	240
  6436   001A1E  1608               	andwf	??_store_event^0,f,c
  6437   001A20  C008  F00A         	movff	??_store_event,store_event@address
  6438   001A24  C009  F00B         	movff	??_store_event+1,store_event@address+1
  6439   001A28                     
  6440                           ;car_black_box.c: 101:     for (int ind = 0; ind < 16; ind++) {
  6441   001A28  0E00               	movlw	0
  6442   001A2A  6E0D               	movwf	(store_event@ind+1)^0,c
  6443   001A2C  0E00               	movlw	0
  6444   001A2E  6E0C               	movwf	store_event@ind^0,c
  6445   001A30                     l2605:
  6446                           
  6447                           ;car_black_box.c: 102:         write_external_eeprom((address + ind), event[ind]);
  6448   001A30  500C               	movf	store_event@ind^0,w,c
  6449   001A32  2406               	addwf	store_event@event^0,w,c
  6450   001A34  6ED9               	movwf	fsr2l,c
  6451   001A36  500D               	movf	(store_event@ind+1)^0,w,c
  6452   001A38  2007               	addwfc	(store_event@event+1)^0,w,c
  6453   001A3A  6EDA               	movwf	fsr2h,c
  6454   001A3C  50DF               	movf	indf2,w,c
  6455   001A3E  6E02               	movwf	write_external_eeprom@data^0,c
  6456   001A40  500A               	movf	store_event@address^0,w,c
  6457   001A42  240C               	addwf	store_event@ind^0,w,c
  6458   001A44  EC22  F010         	call	_write_external_eeprom
  6459   001A48                     
  6460                           ;car_black_box.c: 103:     }
  6461   001A48  4A0C               	infsnz	store_event@ind^0,f,c
  6462   001A4A  2A0D               	incf	(store_event@ind+1)^0,f,c
  6463   001A4C  BE0D               	btfsc	(store_event@ind+1)^0,7,c
  6464   001A4E  EF32  F00D         	goto	u1851
  6465   001A52  500D               	movf	(store_event@ind+1)^0,w,c
  6466   001A54  E109               	bnz	u1850
  6467   001A56  0E10               	movlw	16
  6468   001A58  5C0C               	subwf	store_event@ind^0,w,c
  6469   001A5A  A0D8               	btfss	status,0,c
  6470   001A5C  EF32  F00D         	goto	u1851
  6471   001A60  EF34  F00D         	goto	u1850
  6472   001A64                     u1851:
  6473   001A64  EF18  F00D         	goto	l2605
  6474   001A68                     u1850:
  6475   001A68                     
  6476                           ;car_black_box.c: 104:     index_eeprom++;
  6477   001A68  0100               	movlb	0	; () banked
  6478   001A6A  4BAD               	infsnz	_index_eeprom& (0+255),f,b
  6479   001A6C  2BAE               	incf	(_index_eeprom+1)& (0+255),f,b
  6480   001A6E                     
  6481                           ; BSR set to: 0
  6482                           ;car_black_box.c: 106:     if (total_index < 10)
  6483   001A6E  0E0A               	movlw	10
  6484   001A70  6057               	cpfslt	_total_index^0,c
  6485   001A72  EF3D  F00D         	goto	u1861
  6486   001A76  EF3F  F00D         	goto	u1860
  6487   001A7A                     u1861:
  6488   001A7A  EF42  F00D         	goto	l2617
  6489   001A7E                     u1860:
  6490   001A7E                     
  6491                           ; BSR set to: 0
  6492                           ;car_black_box.c: 107:         total_index++;
  6493   001A7E  2A57               	incf	_total_index^0,f,c
  6494   001A80  EF55  F00D         	goto	l2623
  6495   001A84                     l2617:
  6496                           
  6497                           ; BSR set to: 0
  6498   001A84  5044               	movf	(_count_event+1)^0,w,c
  6499   001A86  E107               	bnz	u1871
  6500   001A88  0E09               	movlw	9
  6501   001A8A  5C43               	subwf	_count_event^0,w,c
  6502   001A8C  B0D8               	btfsc	status,0,c
  6503   001A8E  EF4B  F00D         	goto	u1871
  6504   001A92  EF4D  F00D         	goto	u1870
  6505   001A96                     u1871:
  6506   001A96  EF51  F00D         	goto	l2621
  6507   001A9A                     u1870:
  6508   001A9A                     
  6509                           ; BSR set to: 0
  6510                           ;car_black_box.c: 109:         count_event++;
  6511   001A9A  4A43               	infsnz	_count_event^0,f,c
  6512   001A9C  2A44               	incf	(_count_event+1)^0,f,c
  6513   001A9E  EF55  F00D         	goto	l2623
  6514   001AA2                     l2621:
  6515                           
  6516                           ; BSR set to: 0
  6517                           ;car_black_box.c: 111:         count_event = 0;
  6518   001AA2  0E00               	movlw	0
  6519   001AA4  6E44               	movwf	(_count_event+1)^0,c
  6520   001AA6  0E00               	movlw	0
  6521   001AA8  6E43               	movwf	_count_event^0,c
  6522   001AAA                     l2623:
  6523                           
  6524                           ; BSR set to: 0
  6525                           ;car_black_box.c: 113:     if (index_eeprom == 10)
  6526   001AAA  0E0A               	movlw	10
  6527   001AAC  19AD               	xorwf	_index_eeprom& (0+255),w,b
  6528   001AAE  11AE               	iorwf	(_index_eeprom+1)& (0+255),w,b
  6529   001AB0  A4D8               	btfss	status,2,c
  6530   001AB2  EF5D  F00D         	goto	u1881
  6531   001AB6  EF5F  F00D         	goto	u1880
  6532   001ABA                     u1881:
  6533   001ABA  EF63  F00D         	goto	l204
  6534   001ABE                     u1880:
  6535   001ABE                     
  6536                           ; BSR set to: 0
  6537                           ;car_black_box.c: 114:         index_eeprom = 0;
  6538   001ABE  0E00               	movlw	0
  6539   001AC0  6FAE               	movwf	(_index_eeprom+1)& (0+255),b
  6540   001AC2  0E00               	movlw	0
  6541   001AC4  6FAD               	movwf	_index_eeprom& (0+255),b
  6542   001AC6                     l204:
  6543                           
  6544                           ; BSR set to: 0
  6545   001AC6  0012               	return		;funcret
  6546   001AC8                     __end_of_store_event:
  6547                           	callstack 0
  6548                           
  6549 ;; *************** function _write_external_eeprom *****************
  6550 ;; Defined at:
  6551 ;;		line 13 in file "ext_eeprom.c"
  6552 ;; Parameters:    Size  Location     Type
  6553 ;;  address         1    wreg     unsigned char 
  6554 ;;  data            1    1[COMRAM] unsigned char 
  6555 ;; Auto vars:     Size  Location     Type
  6556 ;;  address         1    4[COMRAM] unsigned char 
  6557 ;;  i               2    2[COMRAM] unsigned int 
  6558 ;; Return value:  Size  Location     Type
  6559 ;;                  1    wreg      void 
  6560 ;; Registers used:
  6561 ;;		wreg, status,2, status,0, cstack
  6562 ;; Tracked objects:
  6563 ;;		On entry : 0/0
  6564 ;;		On exit  : 0/0
  6565 ;;		Unchanged: 0/0
  6566 ;; Data sizes:     COMRAM   BANK0   BANK1   BANK2   BANK3   BANK4   BANK5
  6567 ;;      Params:         1       0       0       0       0       0       0
  6568 ;;      Locals:         3       0       0       0       0       0       0
  6569 ;;      Temps:          0       0       0       0       0       0       0
  6570 ;;      Totals:         4       0       0       0       0       0       0
  6571 ;;Total ram usage:        4 bytes
  6572 ;; Hardware stack levels used: 1
  6573 ;; Hardware stack levels required when called: 3
  6574 ;; This function calls:
  6575 ;;		_i2c_start
  6576 ;;		_i2c_stop
  6577 ;;		_i2c_write
  6578 ;; This function is called by:
  6579 ;;		_main
  6580 ;;		_store_event
  6581 ;;		_change_password
  6582 ;; This function uses a non-reentrant model
  6583 ;;
  6584                           
  6585                           	psect	text32
  6586   002044                     __ptext32:
  6587                           	callstack 0
  6588   002044                     _write_external_eeprom:
  6589                           	callstack 27
  6590                           
  6591                           ; BSR set to: 0
  6592                           ;incstack = 0
  6593                           ;write_external_eeprom@address stored from wreg
  6594   002044  6E05               	movwf	write_external_eeprom@address^0,c
  6595   002046                     
  6596                           ;ext_eeprom.c: 13: void write_external_eeprom(unsigned char address, unsigned char data)
      +                          ;ext_eeprom.c: 14: {;ext_eeprom.c: 15:  i2c_start();
  6597   002046  EC39  F011         	call	_i2c_start	;wreg free
  6598   00204A                     
  6599                           ;ext_eeprom.c: 16:  i2c_write(0xA0);
  6600   00204A  0EA0               	movlw	160
  6601   00204C  EC23  F011         	call	_i2c_write
  6602   002050                     
  6603                           ;ext_eeprom.c: 17:  i2c_write(address);
  6604   002050  5005               	movf	write_external_eeprom@address^0,w,c
  6605   002052  EC23  F011         	call	_i2c_write
  6606   002056                     
  6607                           ;ext_eeprom.c: 18:  i2c_write(data);
  6608   002056  5002               	movf	write_external_eeprom@data^0,w,c
  6609   002058  EC23  F011         	call	_i2c_write
  6610   00205C                     
  6611                           ;ext_eeprom.c: 19:  i2c_stop();
  6612   00205C  EC35  F011         	call	_i2c_stop	;wreg free
  6613   002060                     
  6614                           ;ext_eeprom.c: 20:  for(unsigned int i = 3000;i--;);
  6615   002060  0E0B               	movlw	11
  6616   002062  6E04               	movwf	(write_external_eeprom@i+1)^0,c
  6617   002064  0EB8               	movlw	184
  6618   002066  6E03               	movwf	write_external_eeprom@i^0,c
  6619   002068                     l2585:
  6620   002068  0603               	decf	write_external_eeprom@i^0,f,c
  6621   00206A  A0D8               	btfss	status,0,c
  6622   00206C  0604               	decf	(write_external_eeprom@i+1)^0,f,c
  6623   00206E  2803               	incf	write_external_eeprom@i^0,w,c
  6624   002070  E106               	bnz	u1841
  6625   002072  2804               	incf	(write_external_eeprom@i+1)^0,w,c
  6626   002074  A4D8               	btfss	status,2,c
  6627   002076  EF3F  F010         	goto	u1841
  6628   00207A  EF41  F010         	goto	u1840
  6629   00207E                     u1841:
  6630   00207E  EF34  F010         	goto	l2585
  6631   002082                     u1840:
  6632   002082  0012               	return		;funcret
  6633   002084                     __end_of_write_external_eeprom:
  6634                           	callstack 0
  6635                           
  6636 ;; *************** function _i2c_write *****************
  6637 ;; Defined at:
  6638 ;;		line 64 in file "i2c.c"
  6639 ;; Parameters:    Size  Location     Type
  6640 ;;  data            1    wreg     unsigned char 
  6641 ;; Auto vars:     Size  Location     Type
  6642 ;;  data            1    0[COMRAM] unsigned char 
  6643 ;; Return value:  Size  Location     Type
  6644 ;;                  1    wreg      void 
  6645 ;; Registers used:
  6646 ;;		wreg, cstack
  6647 ;; Tracked objects:
  6648 ;;		On entry : 0/0
  6649 ;;		On exit  : 0/0
  6650 ;;		Unchanged: 0/0
  6651 ;; Data sizes:     COMRAM   BANK0   BANK1   BANK2   BANK3   BANK4   BANK5
  6652 ;;      Params:         0       0       0       0       0       0       0
  6653 ;;      Locals:         1       0       0       0       0       0       0
  6654 ;;      Temps:          0       0       0       0       0       0       0
  6655 ;;      Totals:         1       0       0       0       0       0       0
  6656 ;;Total ram usage:        1 bytes
  6657 ;; Hardware stack levels used: 1
  6658 ;; Hardware stack levels required when called: 2
  6659 ;; This function calls:
  6660 ;;		_i2c_idle
  6661 ;; This function is called by:
  6662 ;;		_write_external_eeprom
  6663 ;;		_read_external_eeprom
  6664 ;;		_write_ds1307
  6665 ;;		_read_ds1307
  6666 ;; This function uses a non-reentrant model
  6667 ;;
  6668                           
  6669                           	psect	text33
  6670   002246                     __ptext33:
  6671                           	callstack 0
  6672   002246                     _i2c_write:
  6673                           	callstack 27
  6674                           
  6675                           ;incstack = 0
  6676                           ;i2c_write@data stored from wreg
  6677   002246  6E01               	movwf	i2c_write@data^0,c
  6678   002248                     
  6679                           ;i2c.c: 64: void i2c_write(unsigned char data);i2c.c: 65: {;i2c.c: 66:  SSPBUF = data;
  6680   002248  C001  FFC9         	movff	i2c_write@data,4041	;volatile
  6681   00224C                     
  6682                           ;i2c.c: 67:  i2c_idle();
  6683   00224C  EC14  F011         	call	_i2c_idle	;wreg free
  6684   002250  0012               	return		;funcret
  6685   002252                     __end_of_i2c_write:
  6686                           	callstack 0
  6687                           
  6688 ;; *************** function _i2c_stop *****************
  6689 ;; Defined at:
  6690 ;;		line 52 in file "i2c.c"
  6691 ;; Parameters:    Size  Location     Type
  6692 ;;		None
  6693 ;; Auto vars:     Size  Location     Type
  6694 ;;		None
  6695 ;; Return value:  Size  Location     Type
  6696 ;;                  1    wreg      void 
  6697 ;; Registers used:
  6698 ;;		cstack
  6699 ;; Tracked objects:
  6700 ;;		On entry : 0/0
  6701 ;;		On exit  : 0/0
  6702 ;;		Unchanged: 0/0
  6703 ;; Data sizes:     COMRAM   BANK0   BANK1   BANK2   BANK3   BANK4   BANK5
  6704 ;;      Params:         0       0       0       0       0       0       0
  6705 ;;      Locals:         0       0       0       0       0       0       0
  6706 ;;      Temps:          0       0       0       0       0       0       0
  6707 ;;      Totals:         0       0       0       0       0       0       0
  6708 ;;Total ram usage:        0 bytes
  6709 ;; Hardware stack levels used: 1
  6710 ;; Hardware stack levels required when called: 2
  6711 ;; This function calls:
  6712 ;;		_i2c_idle
  6713 ;; This function is called by:
  6714 ;;		_write_external_eeprom
  6715 ;;		_read_external_eeprom
  6716 ;;		_write_ds1307
  6717 ;;		_read_ds1307
  6718 ;; This function uses a non-reentrant model
  6719 ;;
  6720                           
  6721                           	psect	text34
  6722   00226A                     __ptext34:
  6723                           	callstack 0
  6724   00226A                     _i2c_stop:
  6725                           	callstack 27
  6726   00226A                     
  6727                           ;i2c.c: 54:  PEN = 1;
  6728   00226A  84C5               	bsf	4037,2,c	;volatile
  6729   00226C                     
  6730                           ;i2c.c: 55:  i2c_idle();
  6731   00226C  EC14  F011         	call	_i2c_idle	;wreg free
  6732   002270  0012               	return		;funcret
  6733   002272                     __end_of_i2c_stop:
  6734                           	callstack 0
  6735                           
  6736 ;; *************** function _i2c_start *****************
  6737 ;; Defined at:
  6738 ;;		line 46 in file "i2c.c"
  6739 ;; Parameters:    Size  Location     Type
  6740 ;;		None
  6741 ;; Auto vars:     Size  Location     Type
  6742 ;;		None
  6743 ;; Return value:  Size  Location     Type
  6744 ;;                  1    wreg      void 
  6745 ;; Registers used:
  6746 ;;		cstack
  6747 ;; Tracked objects:
  6748 ;;		On entry : 0/0
  6749 ;;		On exit  : 0/0
  6750 ;;		Unchanged: 0/0
  6751 ;; Data sizes:     COMRAM   BANK0   BANK1   BANK2   BANK3   BANK4   BANK5
  6752 ;;      Params:         0       0       0       0       0       0       0
  6753 ;;      Locals:         0       0       0       0       0       0       0
  6754 ;;      Temps:          0       0       0       0       0       0       0
  6755 ;;      Totals:         0       0       0       0       0       0       0
  6756 ;;Total ram usage:        0 bytes
  6757 ;; Hardware stack levels used: 1
  6758 ;; Hardware stack levels required when called: 2
  6759 ;; This function calls:
  6760 ;;		_i2c_idle
  6761 ;; This function is called by:
  6762 ;;		_write_external_eeprom
  6763 ;;		_read_external_eeprom
  6764 ;;		_write_ds1307
  6765 ;;		_read_ds1307
  6766 ;; This function uses a non-reentrant model
  6767 ;;
  6768                           
  6769                           	psect	text35
  6770   002272                     __ptext35:
  6771                           	callstack 0
  6772   002272                     _i2c_start:
  6773                           	callstack 27
  6774   002272                     
  6775                           ;i2c.c: 48:  SEN = 1;
  6776   002272  80C5               	bsf	4037,0,c	;volatile
  6777   002274                     
  6778                           ;i2c.c: 49:  i2c_idle();
  6779   002274  EC14  F011         	call	_i2c_idle	;wreg free
  6780   002278  0012               	return		;funcret
  6781   00227A                     __end_of_i2c_start:
  6782                           	callstack 0
  6783                           
  6784 ;; *************** function _i2c_idle *****************
  6785 ;; Defined at:
  6786 ;;		line 32 in file "i2c.c"
  6787 ;; Parameters:    Size  Location     Type
  6788 ;;		None
  6789 ;; Auto vars:     Size  Location     Type
  6790 ;;		None
  6791 ;; Return value:  Size  Location     Type
  6792 ;;                  1    wreg      void 
  6793 ;; Registers used:
  6794 ;;		None
  6795 ;; Tracked objects:
  6796 ;;		On entry : 0/0
  6797 ;;		On exit  : 0/0
  6798 ;;		Unchanged: 0/0
  6799 ;; Data sizes:     COMRAM   BANK0   BANK1   BANK2   BANK3   BANK4   BANK5
  6800 ;;      Params:         0       0       0       0       0       0       0
  6801 ;;      Locals:         0       0       0       0       0       0       0
  6802 ;;      Temps:          0       0       0       0       0       0       0
  6803 ;;      Totals:         0       0       0       0       0       0       0
  6804 ;;Total ram usage:        0 bytes
  6805 ;; Hardware stack levels used: 1
  6806 ;; Hardware stack levels required when called: 1
  6807 ;; This function calls:
  6808 ;;		Nothing
  6809 ;; This function is called by:
  6810 ;;		_i2c_start
  6811 ;;		_i2c_stop
  6812 ;;		_i2c_rep_start
  6813 ;;		_i2c_write
  6814 ;;		_i2c_rx_mode
  6815 ;; This function uses a non-reentrant model
  6816 ;;
  6817                           
  6818                           	psect	text36
  6819   002228                     __ptext36:
  6820                           	callstack 0
  6821   002228                     _i2c_idle:
  6822                           	callstack 27
  6823   002228                     l535:
  6824   002228  A69E               	btfss	3998,3,c	;volatile
  6825   00222A  EF19  F011         	goto	u1831
  6826   00222E  EF1B  F011         	goto	u1830
  6827   002232                     u1831:
  6828   002232  EF14  F011         	goto	l535
  6829   002236                     u1830:
  6830   002236                     
  6831                           ;i2c.c: 35:  SSPIF = 0;
  6832   002236  969E               	bcf	3998,3,c	;volatile
  6833   002238  0012               	return		;funcret
  6834   00223A                     __end_of_i2c_idle:
  6835                           	callstack 0
  6836                           
  6837 ;; *************** function _clcd_putch *****************
  6838 ;; Defined at:
  6839 ;;		line 75 in file "clcd.c"
  6840 ;; Parameters:    Size  Location     Type
  6841 ;;  data            1    wreg     const unsigned char 
  6842 ;;  addr            1    7[COMRAM] unsigned char 
  6843 ;; Auto vars:     Size  Location     Type
  6844 ;;  data            1    8[COMRAM] const unsigned char 
  6845 ;; Return value:  Size  Location     Type
  6846 ;;                  1    wreg      void 
  6847 ;; Registers used:
  6848 ;;		wreg, status,2, cstack
  6849 ;; Tracked objects:
  6850 ;;		On entry : 0/0
  6851 ;;		On exit  : 0/0
  6852 ;;		Unchanged: 0/0
  6853 ;; Data sizes:     COMRAM   BANK0   BANK1   BANK2   BANK3   BANK4   BANK5
  6854 ;;      Params:         1       0       0       0       0       0       0
  6855 ;;      Locals:         1       0       0       0       0       0       0
  6856 ;;      Temps:          0       0       0       0       0       0       0
  6857 ;;      Totals:         2       0       0       0       0       0       0
  6858 ;;Total ram usage:        2 bytes
  6859 ;; Hardware stack levels used: 1
  6860 ;; Hardware stack levels required when called: 2
  6861 ;; This function calls:
  6862 ;;		_clcd_write
  6863 ;; This function is called by:
  6864 ;;		_read_password
  6865 ;;		_car_menu
  6866 ;;		_view_log
  6867 ;;		_change_password
  6868 ;; This function uses a non-reentrant model
  6869 ;;
  6870                           
  6871                           	psect	text37
  6872   0021FA                     __ptext37:
  6873                           	callstack 0
  6874   0021FA                     _clcd_putch:
  6875                           	callstack 27
  6876                           
  6877                           ;incstack = 0
  6878                           ;clcd_putch@data stored from wreg
  6879   0021FA  6E09               	movwf	clcd_putch@data^0,c
  6880   0021FC                     
  6881                           ;clcd.c: 75: void clcd_putch(const unsigned char data, unsigned char addr);clcd.c: 76: {
      +                          ;clcd.c: 77:  clcd_write(addr, 0);
  6882   0021FC  0E00               	movlw	0
  6883   0021FE  6E01               	movwf	clcd_write@control_bit^0,c
  6884   002200  5008               	movf	clcd_putch@addr^0,w,c
  6885   002202  EC7E  F010         	call	_clcd_write
  6886                           
  6887                           ;clcd.c: 78:  clcd_write(data, 1);
  6888   002206  0E01               	movlw	1
  6889   002208  6E01               	movwf	clcd_write@control_bit^0,c
  6890   00220A  5009               	movf	clcd_putch@data^0,w,c
  6891   00220C  EC7E  F010         	call	_clcd_write
  6892   002210  0012               	return		;funcret
  6893   002212                     __end_of_clcd_putch:
  6894                           	callstack 0
  6895                           
  6896 ;; *************** function _clcd_print *****************
  6897 ;; Defined at:
  6898 ;;		line 66 in file "clcd.c"
  6899 ;; Parameters:    Size  Location     Type
  6900 ;;  data            2    2[COMRAM] PTR const unsigned char 
  6901 ;;		 -> STR_46(18), STR_45(17), STR_44(17), STR_43(17), 
  6902 ;;		 -> STR_42(17), STR_41(17), STR_40(17), STR_39(17), 
  6903 ;;		 -> STR_38(17), STR_37(16), STR_36(17), STR_35(17), 
  6904 ;;		 -> STR_34(17), STR_33(18), view_event(17), STR_32(12), 
  6905 ;;		 -> STR_31(10), STR_26(17), STR_25(17), STR_24(17), 
  6906 ;;		 -> STR_23(17), STR_22(17), STR_21(16), STR_20(16), 
  6907 ;;		 -> STR_19(17), STR_18(17), STR_17(16), STR_16(17), 
  6908 ;;		 -> STR_15(17), STR_14(17), STR_13(17), STR_4(17), 
  6909 ;;		 -> STR_3(17), STR_2(17), STR_1(17), event(17), 
  6910 ;;  addr            1    4[COMRAM] unsigned char 
  6911 ;; Auto vars:     Size  Location     Type
  6912 ;;		None
  6913 ;; Return value:  Size  Location     Type
  6914 ;;                  1    wreg      void 
  6915 ;; Registers used:
  6916 ;;		wreg, fsr1l, fsr1h, status,2, status,0, tblptrl, tblptrh, tblptru, cstack
  6917 ;; Tracked objects:
  6918 ;;		On entry : 0/0
  6919 ;;		On exit  : 0/0
  6920 ;;		Unchanged: 0/0
  6921 ;; Data sizes:     COMRAM   BANK0   BANK1   BANK2   BANK3   BANK4   BANK5
  6922 ;;      Params:         3       0       0       0       0       0       0
  6923 ;;      Locals:         0       0       0       0       0       0       0
  6924 ;;      Temps:          0       0       0       0       0       0       0
  6925 ;;      Totals:         3       0       0       0       0       0       0
  6926 ;;Total ram usage:        3 bytes
  6927 ;; Hardware stack levels used: 1
  6928 ;; Hardware stack levels required when called: 2
  6929 ;; This function calls:
  6930 ;;		_clcd_write
  6931 ;; This function is called by:
  6932 ;;		_main
  6933 ;;		_display_dashboard
  6934 ;;		_read_password
  6935 ;;		_car_menu
  6936 ;;		_view_log
  6937 ;;		_clear_log
  6938 ;;		_change_password
  6939 ;; This function uses a non-reentrant model
  6940 ;;
  6941                           
  6942                           	psect	text38
  6943   001D7E                     __ptext38:
  6944                           	callstack 0
  6945   001D7E                     _clcd_print:
  6946                           	callstack 27
  6947   001D7E                     
  6948                           ;clcd.c: 66: void clcd_print(const unsigned char *data, unsigned char addr);clcd.c: 67: 
      +                          {;clcd.c: 68:  clcd_write(addr, 0);
  6949   001D7E  0E00               	movlw	0
  6950   001D80  6E01               	movwf	clcd_write@control_bit^0,c
  6951   001D82  5005               	movf	clcd_print@addr^0,w,c
  6952   001D84  EC7E  F010         	call	_clcd_write
  6953                           
  6954                           ;clcd.c: 69:  while (*data != '\0')
  6955   001D88  EFDC  F00E         	goto	l2767
  6956   001D8C                     l2763:
  6957                           
  6958                           ;clcd.c: 70:  {;clcd.c: 71:   clcd_write(*data++, 1);
  6959   001D8C  0E01               	movlw	1
  6960   001D8E  6E01               	movwf	clcd_write@control_bit^0,c
  6961   001D90  C003  FFF6         	movff	clcd_print@data,tblptrl
  6962   001D94  C004  FFF7         	movff	clcd_print@data+1,tblptrh
  6963   001D98  6AF8               	clrf	tblptru,c
  6964   001D9A  0E05               	movlw	(high __ramtop+-1)
  6965   001D9C  64F7               	cpfsgt	tblptrh,c
  6966   001D9E  D003               	bra	u1927
  6967   001DA0  0008               	tblrd		*
  6968   001DA2  50F5               	movf	tablat,w,c
  6969   001DA4  D005               	bra	u1920
  6970   001DA6                     u1927:
  6971   001DA6  CFF6 FFE1          	movff	tblptrl,fsr1l
  6972   001DAA  CFF7 FFE2          	movff	tblptrh,fsr1h
  6973   001DAE  50E7               	movf	indf1,w,c
  6974   001DB0                     u1920:
  6975   001DB0  EC7E  F010         	call	_clcd_write
  6976   001DB4  4A03               	infsnz	clcd_print@data^0,f,c
  6977   001DB6  2A04               	incf	(clcd_print@data+1)^0,f,c
  6978   001DB8                     l2767:
  6979                           
  6980                           ;clcd.c: 69:  while (*data != '\0')
  6981   001DB8  C003  FFF6         	movff	clcd_print@data,tblptrl
  6982   001DBC  C004  FFF7         	movff	clcd_print@data+1,tblptrh
  6983   001DC0  6AF8               	clrf	tblptru,c
  6984   001DC2  0E05               	movlw	(high __ramtop+-1)
  6985   001DC4  64F7               	cpfsgt	tblptrh,c
  6986   001DC6  D003               	bra	u1937
  6987   001DC8  0008               	tblrd		*
  6988   001DCA  50F5               	movf	tablat,w,c
  6989   001DCC  D005               	bra	u1930
  6990   001DCE                     u1937:
  6991   001DCE  CFF6 FFE1          	movff	tblptrl,fsr1l
  6992   001DD2  CFF7 FFE2          	movff	tblptrh,fsr1h
  6993   001DD6  50E7               	movf	indf1,w,c
  6994   001DD8                     u1930:
  6995   001DD8  0900               	iorlw	0
  6996   001DDA  A4D8               	btfss	status,2,c
  6997   001DDC  EFF2  F00E         	goto	u1941
  6998   001DE0  EFF4  F00E         	goto	u1940
  6999   001DE4                     u1941:
  7000   001DE4  EFC6  F00E         	goto	l2763
  7001   001DE8                     u1940:
  7002   001DE8  0012               	return		;funcret
  7003   001DEA                     __end_of_clcd_print:
  7004                           	callstack 0
  7005                           
  7006 ;; *************** function _clcd_write *****************
  7007 ;; Defined at:
  7008 ;;		line 12 in file "clcd.c"
  7009 ;; Parameters:    Size  Location     Type
  7010 ;;  byte            1    wreg     unsigned char 
  7011 ;;  control_bit     1    0[COMRAM] unsigned char 
  7012 ;; Auto vars:     Size  Location     Type
  7013 ;;  byte            1    1[COMRAM] unsigned char 
  7014 ;; Return value:  Size  Location     Type
  7015 ;;                  1    wreg      void 
  7016 ;; Registers used:
  7017 ;;		wreg
  7018 ;; Tracked objects:
  7019 ;;		On entry : 0/0
  7020 ;;		On exit  : 0/0
  7021 ;;		Unchanged: 0/0
  7022 ;; Data sizes:     COMRAM   BANK0   BANK1   BANK2   BANK3   BANK4   BANK5
  7023 ;;      Params:         1       0       0       0       0       0       0
  7024 ;;      Locals:         1       0       0       0       0       0       0
  7025 ;;      Temps:          0       0       0       0       0       0       0
  7026 ;;      Totals:         2       0       0       0       0       0       0
  7027 ;;Total ram usage:        2 bytes
  7028 ;; Hardware stack levels used: 1
  7029 ;; Hardware stack levels required when called: 1
  7030 ;; This function calls:
  7031 ;;		Nothing
  7032 ;; This function is called by:
  7033 ;;		_init_clcd
  7034 ;;		_clcd_print
  7035 ;;		_clcd_putch
  7036 ;; This function uses a non-reentrant model
  7037 ;;
  7038                           
  7039                           	psect	text39
  7040   0020FC                     __ptext39:
  7041                           	callstack 0
  7042   0020FC                     _clcd_write:
  7043                           	callstack 27
  7044                           
  7045                           ;incstack = 0
  7046                           ;clcd_write@byte stored from wreg
  7047   0020FC  6E02               	movwf	clcd_write@byte^0,c
  7048   0020FE                     
  7049                           ;clcd.c: 12: void clcd_write(unsigned char byte, unsigned char control_bit);clcd.c: 13: 
      +                          {;clcd.c: 14:  RC1 = control_bit;
  7050   0020FE  B001               	btfsc	clcd_write@control_bit^0,0,c
  7051   002100  EF84  F010         	goto	u1891
  7052   002104  EF87  F010         	goto	u1890
  7053   002108                     u1891:
  7054   002108  8282               	bsf	3970,1,c	;volatile
  7055   00210A  EF88  F010         	goto	u1905
  7056   00210E                     u1890:
  7057   00210E  9282               	bcf	3970,1,c	;volatile
  7058   002110                     u1905:
  7059   002110                     
  7060                           ;clcd.c: 15:  PORTD = byte;
  7061   002110  C002  FF83         	movff	clcd_write@byte,3971	;volatile
  7062   002114                     
  7063                           ;clcd.c: 18:  RC2 = 1;
  7064   002114  8482               	bsf	3970,2,c	;volatile
  7065   002116                     
  7066                           ;clcd.c: 19:  RC2 = 0;
  7067   002116  9482               	bcf	3970,2,c	;volatile
  7068   002118                     
  7069                           ;clcd.c: 21:  TRISD7 = 0xFF;
  7070   002118  8E95               	bsf	3989,7,c	;volatile
  7071   00211A                     
  7072                           ;clcd.c: 22:  RC0 = 1;
  7073   00211A  8082               	bsf	3970,0,c	;volatile
  7074   00211C                     
  7075                           ;clcd.c: 23:  RC1 = 0;
  7076   00211C  9282               	bcf	3970,1,c	;volatile
  7077   00211E                     l2655:
  7078                           
  7079                           ;clcd.c: 26:  {;clcd.c: 27:   RC2 = 1;
  7080   00211E  8482               	bsf	3970,2,c	;volatile
  7081   002120                     
  7082                           ;clcd.c: 28:   RC2 = 0;
  7083   002120  9482               	bcf	3970,2,c	;volatile
  7084   002122                     
  7085                           ;clcd.c: 29:  } while (RD7);
  7086   002122  BE83               	btfsc	3971,7,c	;volatile
  7087   002124  EF96  F010         	goto	u1911
  7088   002128  EF98  F010         	goto	u1910
  7089   00212C                     u1911:
  7090   00212C  EF8F  F010         	goto	l2655
  7091   002130                     u1910:
  7092   002130                     
  7093                           ;clcd.c: 31:  RC0 = 0;
  7094   002130  9082               	bcf	3970,0,c	;volatile
  7095                           
  7096                           ;clcd.c: 32:  TRISD7 = 0x00;
  7097   002132  9E95               	bcf	3989,7,c	;volatile
  7098   002134  0012               	return		;funcret
  7099   002136                     __end_of_clcd_write:
  7100                           	callstack 0
  7101                           
  7102 ;; *************** function ___xxtofl *****************
  7103 ;; Defined at:
  7104 ;;		line 10 in file "C:\Program Files\Microchip\xc8\v2.41\pic\sources\c99\common\xxtofl.c"
  7105 ;; Parameters:    Size  Location     Type
  7106 ;;  sign            1    wreg     unsigned char 
  7107 ;;  val             4    8[COMRAM] long 
  7108 ;; Auto vars:     Size  Location     Type
  7109 ;;  sign            1   16[COMRAM] unsigned char 
  7110 ;;  arg             4   18[COMRAM] unsigned long 
  7111 ;;  exp             1   17[COMRAM] unsigned char 
  7112 ;; Return value:  Size  Location     Type
  7113 ;;                  4    8[COMRAM] unsigned char 
  7114 ;; Registers used:
  7115 ;;		wreg, status,2, status,0
  7116 ;; Tracked objects:
  7117 ;;		On entry : 0/0
  7118 ;;		On exit  : 0/0
  7119 ;;		Unchanged: 0/0
  7120 ;; Data sizes:     COMRAM   BANK0   BANK1   BANK2   BANK3   BANK4   BANK5
  7121 ;;      Params:         4       0       0       0       0       0       0
  7122 ;;      Locals:         6       0       0       0       0       0       0
  7123 ;;      Temps:          4       0       0       0       0       0       0
  7124 ;;      Totals:        14       0       0       0       0       0       0
  7125 ;;Total ram usage:       14 bytes
  7126 ;; Hardware stack levels used: 1
  7127 ;; Hardware stack levels required when called: 1
  7128 ;; This function calls:
  7129 ;;		Nothing
  7130 ;; This function is called by:
  7131 ;;		_main
  7132 ;; This function uses a non-reentrant model
  7133 ;;
  7134                           
  7135                           	psect	text40
  7136   0014B2                     __ptext40:
  7137                           	callstack 0
  7138   0014B2                     ___xxtofl:
  7139                           	callstack 29
  7140                           
  7141                           ;incstack = 0
  7142                           ;___xxtofl@sign stored from wreg
  7143   0014B2  6E11               	movwf	___xxtofl@sign^0,c
  7144   0014B4  5011               	movf	___xxtofl@sign^0,w,c
  7145   0014B6  B4D8               	btfsc	status,2,c
  7146   0014B8  EF60  F00A         	goto	u3401
  7147   0014BC  EF62  F00A         	goto	u3400
  7148   0014C0                     u3401:
  7149   0014C0  EF84  F00A         	goto	l1263
  7150   0014C4                     u3400:
  7151   0014C4  BE0C               	btfsc	(___xxtofl@val+3)^0,7,c
  7152   0014C6  EF69  F00A         	goto	u3410
  7153   0014CA  EF67  F00A         	goto	u3411
  7154   0014CE                     u3411:
  7155   0014CE  EF84  F00A         	goto	l1263
  7156   0014D2                     u3410:
  7157   0014D2  C009  F00D         	movff	___xxtofl@val,??___xxtofl
  7158   0014D6  C00A  F00E         	movff	___xxtofl@val+1,??___xxtofl+1
  7159   0014DA  C00B  F00F         	movff	___xxtofl@val+2,??___xxtofl+2
  7160   0014DE  C00C  F010         	movff	___xxtofl@val+3,??___xxtofl+3
  7161   0014E2  1E0D               	comf	??___xxtofl^0,f,c
  7162   0014E4  1E0E               	comf	(??___xxtofl+1)^0,f,c
  7163   0014E6  1E0F               	comf	(??___xxtofl+2)^0,f,c
  7164   0014E8  1E10               	comf	(??___xxtofl+3)^0,f,c
  7165   0014EA  2A0D               	incf	??___xxtofl^0,f,c
  7166   0014EC  0E00               	movlw	0
  7167   0014EE  220E               	addwfc	(??___xxtofl+1)^0,f,c
  7168   0014F0  220F               	addwfc	(??___xxtofl+2)^0,f,c
  7169   0014F2  2210               	addwfc	(??___xxtofl+3)^0,f,c
  7170   0014F4  C00D  F013         	movff	??___xxtofl,___xxtofl@arg
  7171   0014F8  C00E  F014         	movff	??___xxtofl+1,___xxtofl@arg+1
  7172   0014FC  C00F  F015         	movff	??___xxtofl+2,___xxtofl@arg+2
  7173   001500  C010  F016         	movff	??___xxtofl+3,___xxtofl@arg+3
  7174   001504  EF8C  F00A         	goto	l3659
  7175   001508                     l1263:
  7176   001508  C009  F013         	movff	___xxtofl@val,___xxtofl@arg
  7177   00150C  C00A  F014         	movff	___xxtofl@val+1,___xxtofl@arg+1
  7178   001510  C00B  F015         	movff	___xxtofl@val+2,___xxtofl@arg+2
  7179   001514  C00C  F016         	movff	___xxtofl@val+3,___xxtofl@arg+3
  7180   001518                     l3659:
  7181   001518  5009               	movf	___xxtofl@val^0,w,c
  7182   00151A  100A               	iorwf	(___xxtofl@val+1)^0,w,c
  7183   00151C  100B               	iorwf	(___xxtofl@val+2)^0,w,c
  7184   00151E  100C               	iorwf	(___xxtofl@val+3)^0,w,c
  7185   001520  A4D8               	btfss	status,2,c
  7186   001522  EF95  F00A         	goto	u3421
  7187   001526  EF97  F00A         	goto	u3420
  7188   00152A                     u3421:
  7189   00152A  EFA1  F00A         	goto	l3665
  7190   00152E                     u3420:
  7191   00152E  0E00               	movlw	0
  7192   001530  6E09               	movwf	?___xxtofl^0,c
  7193   001532  0E00               	movlw	0
  7194   001534  6E0A               	movwf	(?___xxtofl+1)^0,c
  7195   001536  0E00               	movlw	0
  7196   001538  6E0B               	movwf	(?___xxtofl+2)^0,c
  7197   00153A  0E00               	movlw	0
  7198   00153C  6E0C               	movwf	(?___xxtofl+3)^0,c
  7199   00153E  EF32  F00B         	goto	l1266
  7200   001542                     l3665:
  7201   001542  0E96               	movlw	150
  7202   001544  6E12               	movwf	___xxtofl@exp^0,c
  7203   001546  EFAB  F00A         	goto	l3669
  7204   00154A                     l3667:
  7205   00154A  2A12               	incf	___xxtofl@exp^0,f,c
  7206   00154C  90D8               	bcf	status,0,c
  7207   00154E  3216               	rrcf	(___xxtofl@arg+3)^0,f,c
  7208   001550  3215               	rrcf	(___xxtofl@arg+2)^0,f,c
  7209   001552  3214               	rrcf	(___xxtofl@arg+1)^0,f,c
  7210   001554  3213               	rrcf	___xxtofl@arg^0,f,c
  7211   001556                     l3669:
  7212   001556  0E00               	movlw	0
  7213   001558  1413               	andwf	___xxtofl@arg^0,w,c
  7214   00155A  6E0D               	movwf	??___xxtofl^0,c
  7215   00155C  0E00               	movlw	0
  7216   00155E  1414               	andwf	(___xxtofl@arg+1)^0,w,c
  7217   001560  6E0E               	movwf	(??___xxtofl+1)^0,c
  7218   001562  0E00               	movlw	0
  7219   001564  1415               	andwf	(___xxtofl@arg+2)^0,w,c
  7220   001566  6E0F               	movwf	(??___xxtofl+2)^0,c
  7221   001568  0EFE               	movlw	254
  7222   00156A  1416               	andwf	(___xxtofl@arg+3)^0,w,c
  7223   00156C  6E10               	movwf	(??___xxtofl+3)^0,c
  7224   00156E  500D               	movf	??___xxtofl^0,w,c
  7225   001570  100E               	iorwf	(??___xxtofl+1)^0,w,c
  7226   001572  100F               	iorwf	(??___xxtofl+2)^0,w,c
  7227   001574  1010               	iorwf	(??___xxtofl+3)^0,w,c
  7228   001576  A4D8               	btfss	status,2,c
  7229   001578  EFC0  F00A         	goto	u3431
  7230   00157C  EFC2  F00A         	goto	u3430
  7231   001580                     u3431:
  7232   001580  EFA5  F00A         	goto	l3667
  7233   001584                     u3430:
  7234   001584  EFD0  F00A         	goto	l1270
  7235   001588                     l3671:
  7236   001588  2A12               	incf	___xxtofl@exp^0,f,c
  7237   00158A  0E01               	movlw	1
  7238   00158C  2613               	addwf	___xxtofl@arg^0,f,c
  7239   00158E  0E00               	movlw	0
  7240   001590  2214               	addwfc	(___xxtofl@arg+1)^0,f,c
  7241   001592  2215               	addwfc	(___xxtofl@arg+2)^0,f,c
  7242   001594  2216               	addwfc	(___xxtofl@arg+3)^0,f,c
  7243   001596  90D8               	bcf	status,0,c
  7244   001598  3216               	rrcf	(___xxtofl@arg+3)^0,f,c
  7245   00159A  3215               	rrcf	(___xxtofl@arg+2)^0,f,c
  7246   00159C  3214               	rrcf	(___xxtofl@arg+1)^0,f,c
  7247   00159E  3213               	rrcf	___xxtofl@arg^0,f,c
  7248   0015A0                     l1270:
  7249   0015A0  0E00               	movlw	0
  7250   0015A2  1413               	andwf	___xxtofl@arg^0,w,c
  7251   0015A4  6E0D               	movwf	??___xxtofl^0,c
  7252   0015A6  0E00               	movlw	0
  7253   0015A8  1414               	andwf	(___xxtofl@arg+1)^0,w,c
  7254   0015AA  6E0E               	movwf	(??___xxtofl+1)^0,c
  7255   0015AC  0E00               	movlw	0
  7256   0015AE  1415               	andwf	(___xxtofl@arg+2)^0,w,c
  7257   0015B0  6E0F               	movwf	(??___xxtofl+2)^0,c
  7258   0015B2  0EFF               	movlw	255
  7259   0015B4  1416               	andwf	(___xxtofl@arg+3)^0,w,c
  7260   0015B6  6E10               	movwf	(??___xxtofl+3)^0,c
  7261   0015B8  500D               	movf	??___xxtofl^0,w,c
  7262   0015BA  100E               	iorwf	(??___xxtofl+1)^0,w,c
  7263   0015BC  100F               	iorwf	(??___xxtofl+2)^0,w,c
  7264   0015BE  1010               	iorwf	(??___xxtofl+3)^0,w,c
  7265   0015C0  A4D8               	btfss	status,2,c
  7266   0015C2  EFE5  F00A         	goto	u3441
  7267   0015C6  EFE7  F00A         	goto	u3440
  7268   0015CA                     u3441:
  7269   0015CA  EFC4  F00A         	goto	l3671
  7270   0015CE                     u3440:
  7271   0015CE  EFEF  F00A         	goto	l3679
  7272   0015D2                     l3677:
  7273   0015D2  0612               	decf	___xxtofl@exp^0,f,c
  7274   0015D4  90D8               	bcf	status,0,c
  7275   0015D6  3613               	rlcf	___xxtofl@arg^0,f,c
  7276   0015D8  3614               	rlcf	(___xxtofl@arg+1)^0,f,c
  7277   0015DA  3615               	rlcf	(___xxtofl@arg+2)^0,f,c
  7278   0015DC  3616               	rlcf	(___xxtofl@arg+3)^0,f,c
  7279   0015DE                     l3679:
  7280   0015DE  BE15               	btfsc	(___xxtofl@arg+2)^0,7,c
  7281   0015E0  EFF4  F00A         	goto	u3451
  7282   0015E4  EFF6  F00A         	goto	u3450
  7283   0015E8                     u3451:
  7284   0015E8  EFFE  F00A         	goto	l1277
  7285   0015EC                     u3450:
  7286   0015EC  0E02               	movlw	2
  7287   0015EE  6012               	cpfslt	___xxtofl@exp^0,c
  7288   0015F0  EFFC  F00A         	goto	u3461
  7289   0015F4  EFFE  F00A         	goto	u3460
  7290   0015F8                     u3461:
  7291   0015F8  EFE9  F00A         	goto	l3677
  7292   0015FC                     u3460:
  7293   0015FC                     l1277:
  7294   0015FC  B012               	btfsc	___xxtofl@exp^0,0,c
  7295   0015FE  EF03  F00B         	goto	u3471
  7296   001602  EF05  F00B         	goto	u3470
  7297   001606                     u3471:
  7298   001606  EF06  F00B         	goto	l3685
  7299   00160A                     u3470:
  7300   00160A  9E15               	bcf	(___xxtofl@arg+2)^0,7,c
  7301   00160C                     l3685:
  7302   00160C  90D8               	bcf	status,0,c
  7303   00160E  3212               	rrcf	___xxtofl@exp^0,f,c
  7304   001610  C012  F00D         	movff	___xxtofl@exp,??___xxtofl
  7305   001614  6A0E               	clrf	(??___xxtofl+1)^0,c
  7306   001616  6A0F               	clrf	(??___xxtofl+2)^0,c
  7307   001618  6A10               	clrf	(??___xxtofl+3)^0,c
  7308   00161A  C00D  F010         	movff	??___xxtofl,??___xxtofl+3
  7309   00161E  6A0F               	clrf	(??___xxtofl+2)^0,c
  7310   001620  6A0E               	clrf	(??___xxtofl+1)^0,c
  7311   001622  6A0D               	clrf	??___xxtofl^0,c
  7312   001624  500D               	movf	??___xxtofl^0,w,c
  7313   001626  1213               	iorwf	___xxtofl@arg^0,f,c
  7314   001628  500E               	movf	(??___xxtofl+1)^0,w,c
  7315   00162A  1214               	iorwf	(___xxtofl@arg+1)^0,f,c
  7316   00162C  500F               	movf	(??___xxtofl+2)^0,w,c
  7317   00162E  1215               	iorwf	(___xxtofl@arg+2)^0,f,c
  7318   001630  5010               	movf	(??___xxtofl+3)^0,w,c
  7319   001632  1216               	iorwf	(___xxtofl@arg+3)^0,f,c
  7320   001634  5011               	movf	___xxtofl@sign^0,w,c
  7321   001636  B4D8               	btfsc	status,2,c
  7322   001638  EF20  F00B         	goto	u3481
  7323   00163C  EF22  F00B         	goto	u3480
  7324   001640                     u3481:
  7325   001640  EF2A  F00B         	goto	l3695
  7326   001644                     u3480:
  7327   001644  BE0C               	btfsc	(___xxtofl@val+3)^0,7,c
  7328   001646  EF29  F00B         	goto	u3490
  7329   00164A  EF27  F00B         	goto	u3491
  7330   00164E                     u3491:
  7331   00164E  EF2A  F00B         	goto	l3695
  7332   001652                     u3490:
  7333   001652  8E16               	bsf	(___xxtofl@arg+3)^0,7,c
  7334   001654                     l3695:
  7335   001654  C013  F009         	movff	___xxtofl@arg,?___xxtofl
  7336   001658  C014  F00A         	movff	___xxtofl@arg+1,?___xxtofl+1
  7337   00165C  C015  F00B         	movff	___xxtofl@arg+2,?___xxtofl+2
  7338   001660  C016  F00C         	movff	___xxtofl@arg+3,?___xxtofl+3
  7339   001664                     l1266:
  7340   001664  0012               	return		;funcret
  7341   001666                     __end_of___xxtofl:
  7342                           	callstack 0
  7343                           
  7344 ;; *************** function ___fltol *****************
  7345 ;; Defined at:
  7346 ;;		line 43 in file "C:\Program Files\Microchip\xc8\v2.41\pic\sources\c99\common\fltol.c"
  7347 ;; Parameters:    Size  Location     Type
  7348 ;;  f1              4   47[COMRAM] unsigned char 
  7349 ;; Auto vars:     Size  Location     Type
  7350 ;;  exp1            1   56[COMRAM] unsigned char 
  7351 ;;  sign1           1   55[COMRAM] unsigned char 
  7352 ;; Return value:  Size  Location     Type
  7353 ;;                  4   47[COMRAM] long 
  7354 ;; Registers used:
  7355 ;;		wreg, status,2, status,0
  7356 ;; Tracked objects:
  7357 ;;		On entry : 0/0
  7358 ;;		On exit  : 0/0
  7359 ;;		Unchanged: 0/0
  7360 ;; Data sizes:     COMRAM   BANK0   BANK1   BANK2   BANK3   BANK4   BANK5
  7361 ;;      Params:         4       0       0       0       0       0       0
  7362 ;;      Locals:         2       0       0       0       0       0       0
  7363 ;;      Temps:          4       0       0       0       0       0       0
  7364 ;;      Totals:        10       0       0       0       0       0       0
  7365 ;;Total ram usage:       10 bytes
  7366 ;; Hardware stack levels used: 1
  7367 ;; Hardware stack levels required when called: 1
  7368 ;; This function calls:
  7369 ;;		Nothing
  7370 ;; This function is called by:
  7371 ;;		_main
  7372 ;; This function uses a non-reentrant model
  7373 ;;
  7374                           
  7375                           	psect	text41
  7376   001900                     __ptext41:
  7377                           	callstack 0
  7378   001900                     ___fltol:
  7379                           	callstack 29
  7380   001900  3432               	rlcf	(___fltol@f1+2)^0,w,c
  7381   001902  3433               	rlcf	(___fltol@f1+3)^0,w,c
  7382   001904  6E39               	movwf	___fltol@exp1^0,c
  7383   001906  5039               	movf	___fltol@exp1^0,w,c
  7384   001908  A4D8               	btfss	status,2,c
  7385   00190A  EF89  F00C         	goto	u3331
  7386   00190E  EF8B  F00C         	goto	u3330
  7387   001912                     u3331:
  7388   001912  EF95  F00C         	goto	l3615
  7389   001916                     u3330:
  7390   001916                     l3611:
  7391   001916  0E00               	movlw	0
  7392   001918  6E30               	movwf	?___fltol^0,c
  7393   00191A  0E00               	movlw	0
  7394   00191C  6E31               	movwf	(?___fltol+1)^0,c
  7395   00191E  0E00               	movlw	0
  7396   001920  6E32               	movwf	(?___fltol+2)^0,c
  7397   001922  0E00               	movlw	0
  7398   001924  6E33               	movwf	(?___fltol+3)^0,c
  7399   001926  EF02  F00D         	goto	l905
  7400   00192A                     l3615:
  7401   00192A  C030  F034         	movff	___fltol@f1,??___fltol
  7402   00192E  C031  F035         	movff	___fltol@f1+1,??___fltol+1
  7403   001932  C032  F036         	movff	___fltol@f1+2,??___fltol+2
  7404   001936  C033  F037         	movff	___fltol@f1+3,??___fltol+3
  7405   00193A  0E20               	movlw	32
  7406   00193C  EFA5  F00C         	goto	u3340
  7407   001940                     u3345:
  7408   001940  90D8               	bcf	status,0,c
  7409   001942  3237               	rrcf	(??___fltol+3)^0,f,c
  7410   001944  3236               	rrcf	(??___fltol+2)^0,f,c
  7411   001946  3235               	rrcf	(??___fltol+1)^0,f,c
  7412   001948  3234               	rrcf	??___fltol^0,f,c
  7413   00194A                     u3340:
  7414   00194A  2EE8               	decfsz	wreg,f,c
  7415   00194C  EFA0  F00C         	goto	u3345
  7416   001950  5034               	movf	??___fltol^0,w,c
  7417   001952  6E38               	movwf	___fltol@sign1^0,c
  7418   001954  8E32               	bsf	(___fltol@f1+2)^0,7,c
  7419   001956  0EFF               	movlw	255
  7420   001958  1630               	andwf	___fltol@f1^0,f,c
  7421   00195A  0EFF               	movlw	255
  7422   00195C  1631               	andwf	(___fltol@f1+1)^0,f,c
  7423   00195E  0EFF               	movlw	255
  7424   001960  1632               	andwf	(___fltol@f1+2)^0,f,c
  7425   001962  0E00               	movlw	0
  7426   001964  1633               	andwf	(___fltol@f1+3)^0,f,c
  7427   001966  0E96               	movlw	150
  7428   001968  5E39               	subwf	___fltol@exp1^0,f,c
  7429   00196A  BE39               	btfsc	___fltol@exp1^0,7,c
  7430   00196C  EFBC  F00C         	goto	u3350
  7431   001970  EFBA  F00C         	goto	u3351
  7432   001974                     u3351:
  7433   001974  EFD2  F00C         	goto	l3635
  7434   001978                     u3350:
  7435   001978  5039               	movf	___fltol@exp1^0,w,c
  7436   00197A  0A80               	xorlw	128
  7437   00197C  0F97               	addlw	151
  7438   00197E  B0D8               	btfsc	status,0,c
  7439   001980  EFC4  F00C         	goto	u3361
  7440   001984  EFC6  F00C         	goto	u3360
  7441   001988                     u3361:
  7442   001988  EFC8  F00C         	goto	l3631
  7443   00198C                     u3360:
  7444   00198C  EF8B  F00C         	goto	l3611
  7445   001990                     l3631:
  7446   001990  90D8               	bcf	status,0,c
  7447   001992  3233               	rrcf	(___fltol@f1+3)^0,f,c
  7448   001994  3232               	rrcf	(___fltol@f1+2)^0,f,c
  7449   001996  3231               	rrcf	(___fltol@f1+1)^0,f,c
  7450   001998  3230               	rrcf	___fltol@f1^0,f,c
  7451   00199A  3E39               	incfsz	___fltol@exp1^0,f,c
  7452   00199C  EFC8  F00C         	goto	l3631
  7453   0019A0  EFEA  F00C         	goto	l3645
  7454   0019A4                     l3635:
  7455   0019A4  0E1F               	movlw	31
  7456   0019A6  6439               	cpfsgt	___fltol@exp1^0,c
  7457   0019A8  EFD8  F00C         	goto	u3371
  7458   0019AC  EFDA  F00C         	goto	u3370
  7459   0019B0                     u3371:
  7460   0019B0  EFE2  F00C         	goto	l3643
  7461   0019B4                     u3370:
  7462   0019B4  EF8B  F00C         	goto	l3611
  7463   0019B8                     l3641:
  7464   0019B8  90D8               	bcf	status,0,c
  7465   0019BA  3630               	rlcf	___fltol@f1^0,f,c
  7466   0019BC  3631               	rlcf	(___fltol@f1+1)^0,f,c
  7467   0019BE  3632               	rlcf	(___fltol@f1+2)^0,f,c
  7468   0019C0  3633               	rlcf	(___fltol@f1+3)^0,f,c
  7469   0019C2  0639               	decf	___fltol@exp1^0,f,c
  7470   0019C4                     l3643:
  7471   0019C4  5039               	movf	___fltol@exp1^0,w,c
  7472   0019C6  A4D8               	btfss	status,2,c
  7473   0019C8  EFE8  F00C         	goto	u3381
  7474   0019CC  EFEA  F00C         	goto	u3380
  7475   0019D0                     u3381:
  7476   0019D0  EFDC  F00C         	goto	l3641
  7477   0019D4                     u3380:
  7478   0019D4                     l3645:
  7479   0019D4  5038               	movf	___fltol@sign1^0,w,c
  7480   0019D6  B4D8               	btfsc	status,2,c
  7481   0019D8  EFF0  F00C         	goto	u3391
  7482   0019DC  EFF2  F00C         	goto	u3390
  7483   0019E0                     u3391:
  7484   0019E0  EFFA  F00C         	goto	l3649
  7485   0019E4                     u3390:
  7486   0019E4  1E33               	comf	(___fltol@f1+3)^0,f,c
  7487   0019E6  1E32               	comf	(___fltol@f1+2)^0,f,c
  7488   0019E8  1E31               	comf	(___fltol@f1+1)^0,f,c
  7489   0019EA  6C30               	negf	___fltol@f1^0,c
  7490   0019EC  0E00               	movlw	0
  7491   0019EE  2231               	addwfc	(___fltol@f1+1)^0,f,c
  7492   0019F0  2232               	addwfc	(___fltol@f1+2)^0,f,c
  7493   0019F2  2233               	addwfc	(___fltol@f1+3)^0,f,c
  7494   0019F4                     l3649:
  7495   0019F4  C030  F030         	movff	___fltol@f1,?___fltol
  7496   0019F8  C031  F031         	movff	___fltol@f1+1,?___fltol+1
  7497   0019FC  C032  F032         	movff	___fltol@f1+2,?___fltol+2
  7498   001A00  C033  F033         	movff	___fltol@f1+3,?___fltol+3
  7499   001A04                     l905:
  7500   001A04  0012               	return		;funcret
  7501   001A06                     __end_of___fltol:
  7502                           	callstack 0
  7503                           
  7504 ;; *************** function ___fldiv *****************
  7505 ;; Defined at:
  7506 ;;		line 11 in file "C:\Program Files\Microchip\xc8\v2.41\pic\sources\c99\common\sprcdiv.c"
  7507 ;; Parameters:    Size  Location     Type
  7508 ;;  b               4   22[COMRAM] long 
  7509 ;;  a               4   26[COMRAM] long 
  7510 ;; Auto vars:     Size  Location     Type
  7511 ;;  grs             4   41[COMRAM] unsigned long 
  7512 ;;  rem             4   34[COMRAM] unsigned long 
  7513 ;;  new_exp         2   39[COMRAM] short 
  7514 ;;  aexp            1   46[COMRAM] unsigned char 
  7515 ;;  bexp            1   45[COMRAM] unsigned char 
  7516 ;;  sign            1   38[COMRAM] unsigned char 
  7517 ;; Return value:  Size  Location     Type
  7518 ;;                  4   22[COMRAM] unsigned char 
  7519 ;; Registers used:
  7520 ;;		wreg, status,2, status,0
  7521 ;; Tracked objects:
  7522 ;;		On entry : 0/0
  7523 ;;		On exit  : 0/0
  7524 ;;		Unchanged: 0/0
  7525 ;; Data sizes:     COMRAM   BANK0   BANK1   BANK2   BANK3   BANK4   BANK5
  7526 ;;      Params:         8       0       0       0       0       0       0
  7527 ;;      Locals:        13       0       0       0       0       0       0
  7528 ;;      Temps:          4       0       0       0       0       0       0
  7529 ;;      Totals:        25       0       0       0       0       0       0
  7530 ;;Total ram usage:       25 bytes
  7531 ;; Hardware stack levels used: 1
  7532 ;; Hardware stack levels required when called: 1
  7533 ;; This function calls:
  7534 ;;		Nothing
  7535 ;; This function is called by:
  7536 ;;		_main
  7537 ;; This function uses a non-reentrant model
  7538 ;;
  7539                           
  7540                           	psect	text42
  7541   0004B6                     __ptext42:
  7542                           	callstack 0
  7543   0004B6                     ___fldiv:
  7544                           	callstack 29
  7545   0004B6  501A               	movf	(___fldiv@b+3)^0,w,c
  7546   0004B8  0B80               	andlw	128
  7547   0004BA  6E27               	movwf	___fldiv@sign^0,c
  7548   0004BC  501A               	movf	(___fldiv@b+3)^0,w,c
  7549   0004BE  241A               	addwf	(___fldiv@b+3)^0,w,c
  7550   0004C0  6E2E               	movwf	___fldiv@bexp^0,c
  7551   0004C2  AE19               	btfss	(___fldiv@b+2)^0,7,c
  7552   0004C4  EF66  F002         	goto	u3101
  7553   0004C8  EF68  F002         	goto	u3100
  7554   0004CC                     u3101:
  7555   0004CC  EF69  F002         	goto	l3477
  7556   0004D0                     u3100:
  7557   0004D0  802E               	bsf	___fldiv@bexp^0,0,c
  7558   0004D2                     l3477:
  7559   0004D2  502E               	movf	___fldiv@bexp^0,w,c
  7560   0004D4  B4D8               	btfsc	status,2,c
  7561   0004D6  EF6F  F002         	goto	u3111
  7562   0004DA  EF71  F002         	goto	u3110
  7563   0004DE                     u3111:
  7564   0004DE  EF86  F002         	goto	l3487
  7565   0004E2                     u3110:
  7566   0004E2  282E               	incf	___fldiv@bexp^0,w,c
  7567   0004E4  A4D8               	btfss	status,2,c
  7568   0004E6  EF77  F002         	goto	u3121
  7569   0004EA  EF79  F002         	goto	u3120
  7570   0004EE                     u3121:
  7571   0004EE  EF81  F002         	goto	l3483
  7572   0004F2                     u3120:
  7573   0004F2  0E00               	movlw	0
  7574   0004F4  6E17               	movwf	___fldiv@b^0,c
  7575   0004F6  0E00               	movlw	0
  7576   0004F8  6E18               	movwf	(___fldiv@b+1)^0,c
  7577   0004FA  0E00               	movlw	0
  7578   0004FC  6E19               	movwf	(___fldiv@b+2)^0,c
  7579   0004FE  0E00               	movlw	0
  7580   000500  6E1A               	movwf	(___fldiv@b+3)^0,c
  7581   000502                     l3483:
  7582   000502  8E19               	bsf	(___fldiv@b+2)^0,7,c
  7583   000504  0E00               	movlw	0
  7584   000506  6E1A               	movwf	(___fldiv@b+3)^0,c
  7585   000508  EF8E  F002         	goto	l3489
  7586   00050C                     l3487:
  7587   00050C  0E00               	movlw	0
  7588   00050E  6E17               	movwf	___fldiv@b^0,c
  7589   000510  0E00               	movlw	0
  7590   000512  6E18               	movwf	(___fldiv@b+1)^0,c
  7591   000514  0E00               	movlw	0
  7592   000516  6E19               	movwf	(___fldiv@b+2)^0,c
  7593   000518  0E00               	movlw	0
  7594   00051A  6E1A               	movwf	(___fldiv@b+3)^0,c
  7595   00051C                     l3489:
  7596   00051C  501E               	movf	(___fldiv@a+3)^0,w,c
  7597   00051E  0B80               	andlw	128
  7598   000520  1A27               	xorwf	___fldiv@sign^0,f,c
  7599   000522  501E               	movf	(___fldiv@a+3)^0,w,c
  7600   000524  241E               	addwf	(___fldiv@a+3)^0,w,c
  7601   000526  6E2F               	movwf	___fldiv@aexp^0,c
  7602   000528  AE1D               	btfss	(___fldiv@a+2)^0,7,c
  7603   00052A  EF99  F002         	goto	u3131
  7604   00052E  EF9B  F002         	goto	u3130
  7605   000532                     u3131:
  7606   000532  EF9C  F002         	goto	l3497
  7607   000536                     u3130:
  7608   000536  802F               	bsf	___fldiv@aexp^0,0,c
  7609   000538                     l3497:
  7610   000538  502F               	movf	___fldiv@aexp^0,w,c
  7611   00053A  B4D8               	btfsc	status,2,c
  7612   00053C  EFA2  F002         	goto	u3141
  7613   000540  EFA4  F002         	goto	u3140
  7614   000544                     u3141:
  7615   000544  EFB9  F002         	goto	l3507
  7616   000548                     u3140:
  7617   000548  282F               	incf	___fldiv@aexp^0,w,c
  7618   00054A  A4D8               	btfss	status,2,c
  7619   00054C  EFAA  F002         	goto	u3151
  7620   000550  EFAC  F002         	goto	u3150
  7621   000554                     u3151:
  7622   000554  EFB4  F002         	goto	l3503
  7623   000558                     u3150:
  7624   000558  0E00               	movlw	0
  7625   00055A  6E1B               	movwf	___fldiv@a^0,c
  7626   00055C  0E00               	movlw	0
  7627   00055E  6E1C               	movwf	(___fldiv@a+1)^0,c
  7628   000560  0E00               	movlw	0
  7629   000562  6E1D               	movwf	(___fldiv@a+2)^0,c
  7630   000564  0E00               	movlw	0
  7631   000566  6E1E               	movwf	(___fldiv@a+3)^0,c
  7632   000568                     l3503:
  7633   000568  8E1D               	bsf	(___fldiv@a+2)^0,7,c
  7634   00056A  0E00               	movlw	0
  7635   00056C  6E1E               	movwf	(___fldiv@a+3)^0,c
  7636   00056E  EFC1  F002         	goto	l3509
  7637   000572                     l3507:
  7638   000572  0E00               	movlw	0
  7639   000574  6E1B               	movwf	___fldiv@a^0,c
  7640   000576  0E00               	movlw	0
  7641   000578  6E1C               	movwf	(___fldiv@a+1)^0,c
  7642   00057A  0E00               	movlw	0
  7643   00057C  6E1D               	movwf	(___fldiv@a+2)^0,c
  7644   00057E  0E00               	movlw	0
  7645   000580  6E1E               	movwf	(___fldiv@a+3)^0,c
  7646   000582                     l3509:
  7647   000582  501B               	movf	___fldiv@a^0,w,c
  7648   000584  101C               	iorwf	(___fldiv@a+1)^0,w,c
  7649   000586  101D               	iorwf	(___fldiv@a+2)^0,w,c
  7650   000588  101E               	iorwf	(___fldiv@a+3)^0,w,c
  7651   00058A  A4D8               	btfss	status,2,c
  7652   00058C  EFCA  F002         	goto	u3161
  7653   000590  EFCC  F002         	goto	u3160
  7654   000594                     u3161:
  7655   000594  EFE4  F002         	goto	l3521
  7656   000598                     u3160:
  7657   000598  0E00               	movlw	0
  7658   00059A  6E17               	movwf	___fldiv@b^0,c
  7659   00059C  0E00               	movlw	0
  7660   00059E  6E18               	movwf	(___fldiv@b+1)^0,c
  7661   0005A0  0E00               	movlw	0
  7662   0005A2  6E19               	movwf	(___fldiv@b+2)^0,c
  7663   0005A4  0E00               	movlw	0
  7664   0005A6  6E1A               	movwf	(___fldiv@b+3)^0,c
  7665   0005A8  0E80               	movlw	128
  7666   0005AA  1219               	iorwf	(___fldiv@b+2)^0,f,c
  7667   0005AC  0E7F               	movlw	127
  7668   0005AE  121A               	iorwf	(___fldiv@b+3)^0,f,c
  7669   0005B0                     l3515:
  7670   0005B0  5027               	movf	___fldiv@sign^0,w,c
  7671   0005B2  121A               	iorwf	(___fldiv@b+3)^0,f,c
  7672   0005B4  C017  F017         	movff	___fldiv@b,?___fldiv
  7673   0005B8  C018  F018         	movff	___fldiv@b+1,?___fldiv+1
  7674   0005BC  C019  F019         	movff	___fldiv@b+2,?___fldiv+2
  7675   0005C0  C01A  F01A         	movff	___fldiv@b+3,?___fldiv+3
  7676   0005C4  EF27  F004         	goto	l1190
  7677   0005C8                     l3521:
  7678   0005C8  502E               	movf	___fldiv@bexp^0,w,c
  7679   0005CA  A4D8               	btfss	status,2,c
  7680   0005CC  EFEA  F002         	goto	u3171
  7681   0005D0  EFEC  F002         	goto	u3170
  7682   0005D4                     u3171:
  7683   0005D4  EFF6  F002         	goto	l3529
  7684   0005D8                     u3170:
  7685   0005D8  0E00               	movlw	0
  7686   0005DA  6E17               	movwf	?___fldiv^0,c
  7687   0005DC  0E00               	movlw	0
  7688   0005DE  6E18               	movwf	(?___fldiv+1)^0,c
  7689   0005E0  0E00               	movlw	0
  7690   0005E2  6E19               	movwf	(?___fldiv+2)^0,c
  7691   0005E4  0E00               	movlw	0
  7692   0005E6  6E1A               	movwf	(?___fldiv+3)^0,c
  7693   0005E8  EF27  F004         	goto	l1190
  7694   0005EC                     l3529:
  7695   0005EC  502F               	movf	___fldiv@aexp^0,w,c
  7696   0005EE  C02E  F01F         	movff	___fldiv@bexp,??___fldiv
  7697   0005F2  6A20               	clrf	(??___fldiv+1)^0,c
  7698   0005F4  5E1F               	subwf	??___fldiv^0,f,c
  7699   0005F6  0E00               	movlw	0
  7700   0005F8  5A20               	subwfb	(??___fldiv+1)^0,f,c
  7701   0005FA  0E7F               	movlw	127
  7702   0005FC  241F               	addwf	??___fldiv^0,w,c
  7703   0005FE  6E28               	movwf	___fldiv@new_exp^0,c
  7704   000600  0E00               	movlw	0
  7705   000602  2020               	addwfc	(??___fldiv+1)^0,w,c
  7706   000604  6E29               	movwf	(___fldiv@new_exp+1)^0,c
  7707   000606  C017  F023         	movff	___fldiv@b,___fldiv@rem
  7708   00060A  C018  F024         	movff	___fldiv@b+1,___fldiv@rem+1
  7709   00060E  C019  F025         	movff	___fldiv@b+2,___fldiv@rem+2
  7710   000612  C01A  F026         	movff	___fldiv@b+3,___fldiv@rem+3
  7711   000616  0E00               	movlw	0
  7712   000618  6E17               	movwf	___fldiv@b^0,c
  7713   00061A  0E00               	movlw	0
  7714   00061C  6E18               	movwf	(___fldiv@b+1)^0,c
  7715   00061E  0E00               	movlw	0
  7716   000620  6E19               	movwf	(___fldiv@b+2)^0,c
  7717   000622  0E00               	movlw	0
  7718   000624  6E1A               	movwf	(___fldiv@b+3)^0,c
  7719   000626  0E00               	movlw	0
  7720   000628  6E2A               	movwf	___fldiv@grs^0,c
  7721   00062A  0E00               	movlw	0
  7722   00062C  6E2B               	movwf	(___fldiv@grs+1)^0,c
  7723   00062E  0E00               	movlw	0
  7724   000630  6E2C               	movwf	(___fldiv@grs+2)^0,c
  7725   000632  0E00               	movlw	0
  7726   000634  6E2D               	movwf	(___fldiv@grs+3)^0,c
  7727   000636  0E00               	movlw	0
  7728   000638  6E2F               	movwf	___fldiv@aexp^0,c
  7729   00063A  EF57  F003         	goto	l1192
  7730   00063E                     l3539:
  7731   00063E  502F               	movf	___fldiv@aexp^0,w,c
  7732   000640  B4D8               	btfsc	status,2,c
  7733   000642  EF25  F003         	goto	u3181
  7734   000646  EF27  F003         	goto	u3180
  7735   00064A                     u3181:
  7736   00064A  EF3E  F003         	goto	l3547
  7737   00064E                     u3180:
  7738   00064E  90D8               	bcf	status,0,c
  7739   000650  3623               	rlcf	___fldiv@rem^0,f,c
  7740   000652  3624               	rlcf	(___fldiv@rem+1)^0,f,c
  7741   000654  3625               	rlcf	(___fldiv@rem+2)^0,f,c
  7742   000656  3626               	rlcf	(___fldiv@rem+3)^0,f,c
  7743   000658  90D8               	bcf	status,0,c
  7744   00065A  3617               	rlcf	___fldiv@b^0,f,c
  7745   00065C  3618               	rlcf	(___fldiv@b+1)^0,f,c
  7746   00065E  3619               	rlcf	(___fldiv@b+2)^0,f,c
  7747   000660  361A               	rlcf	(___fldiv@b+3)^0,f,c
  7748   000662  AE2D               	btfss	(___fldiv@grs+3)^0,7,c
  7749   000664  EF36  F003         	goto	u3191
  7750   000668  EF38  F003         	goto	u3190
  7751   00066C                     u3191:
  7752   00066C  EF39  F003         	goto	l1195
  7753   000670                     u3190:
  7754   000670  8017               	bsf	___fldiv@b^0,0,c
  7755   000672                     l1195:
  7756   000672  90D8               	bcf	status,0,c
  7757   000674  362A               	rlcf	___fldiv@grs^0,f,c
  7758   000676  362B               	rlcf	(___fldiv@grs+1)^0,f,c
  7759   000678  362C               	rlcf	(___fldiv@grs+2)^0,f,c
  7760   00067A  362D               	rlcf	(___fldiv@grs+3)^0,f,c
  7761   00067C                     l3547:
  7762   00067C  501B               	movf	___fldiv@a^0,w,c
  7763   00067E  5C23               	subwf	___fldiv@rem^0,w,c
  7764   000680  501C               	movf	(___fldiv@a+1)^0,w,c
  7765   000682  5824               	subwfb	(___fldiv@rem+1)^0,w,c
  7766   000684  501D               	movf	(___fldiv@a+2)^0,w,c
  7767   000686  5825               	subwfb	(___fldiv@rem+2)^0,w,c
  7768   000688  501E               	movf	(___fldiv@a+3)^0,w,c
  7769   00068A  5826               	subwfb	(___fldiv@rem+3)^0,w,c
  7770   00068C  A0D8               	btfss	status,0,c
  7771   00068E  EF4B  F003         	goto	u3201
  7772   000692  EF4D  F003         	goto	u3200
  7773   000696                     u3201:
  7774   000696  EF56  F003         	goto	l3553
  7775   00069A                     u3200:
  7776   00069A  8C2D               	bsf	(___fldiv@grs+3)^0,6,c
  7777   00069C  501B               	movf	___fldiv@a^0,w,c
  7778   00069E  5E23               	subwf	___fldiv@rem^0,f,c
  7779   0006A0  501C               	movf	(___fldiv@a+1)^0,w,c
  7780   0006A2  5A24               	subwfb	(___fldiv@rem+1)^0,f,c
  7781   0006A4  501D               	movf	(___fldiv@a+2)^0,w,c
  7782   0006A6  5A25               	subwfb	(___fldiv@rem+2)^0,f,c
  7783   0006A8  501E               	movf	(___fldiv@a+3)^0,w,c
  7784   0006AA  5A26               	subwfb	(___fldiv@rem+3)^0,f,c
  7785   0006AC                     l3553:
  7786   0006AC  2A2F               	incf	___fldiv@aexp^0,f,c
  7787   0006AE                     l1192:
  7788   0006AE  0E19               	movlw	25
  7789   0006B0  642F               	cpfsgt	___fldiv@aexp^0,c
  7790   0006B2  EF5D  F003         	goto	u3211
  7791   0006B6  EF5F  F003         	goto	u3210
  7792   0006BA                     u3211:
  7793   0006BA  EF1F  F003         	goto	l3539
  7794   0006BE                     u3210:
  7795   0006BE  5023               	movf	___fldiv@rem^0,w,c
  7796   0006C0  1024               	iorwf	(___fldiv@rem+1)^0,w,c
  7797   0006C2  1025               	iorwf	(___fldiv@rem+2)^0,w,c
  7798   0006C4  1026               	iorwf	(___fldiv@rem+3)^0,w,c
  7799   0006C6  B4D8               	btfsc	status,2,c
  7800   0006C8  EF68  F003         	goto	u3221
  7801   0006CC  EF6A  F003         	goto	u3220
  7802   0006D0                     u3221:
  7803   0006D0  EF82  F003         	goto	l3565
  7804   0006D4                     u3220:
  7805   0006D4  802A               	bsf	___fldiv@grs^0,0,c
  7806   0006D6  EF82  F003         	goto	l3565
  7807   0006DA                     l3559:
  7808   0006DA  90D8               	bcf	status,0,c
  7809   0006DC  3617               	rlcf	___fldiv@b^0,f,c
  7810   0006DE  3618               	rlcf	(___fldiv@b+1)^0,f,c
  7811   0006E0  3619               	rlcf	(___fldiv@b+2)^0,f,c
  7812   0006E2  361A               	rlcf	(___fldiv@b+3)^0,f,c
  7813   0006E4  AE2D               	btfss	(___fldiv@grs+3)^0,7,c
  7814   0006E6  EF77  F003         	goto	u3231
  7815   0006EA  EF79  F003         	goto	u3230
  7816   0006EE                     u3231:
  7817   0006EE  EF7A  F003         	goto	l1201
  7818   0006F2                     u3230:
  7819   0006F2  8017               	bsf	___fldiv@b^0,0,c
  7820   0006F4                     l1201:
  7821   0006F4  90D8               	bcf	status,0,c
  7822   0006F6  362A               	rlcf	___fldiv@grs^0,f,c
  7823   0006F8  362B               	rlcf	(___fldiv@grs+1)^0,f,c
  7824   0006FA  362C               	rlcf	(___fldiv@grs+2)^0,f,c
  7825   0006FC  362D               	rlcf	(___fldiv@grs+3)^0,f,c
  7826   0006FE  0628               	decf	___fldiv@new_exp^0,f,c
  7827   000700  A0D8               	btfss	status,0,c
  7828   000702  0629               	decf	(___fldiv@new_exp+1)^0,f,c
  7829   000704                     l3565:
  7830   000704  AE19               	btfss	(___fldiv@b+2)^0,7,c
  7831   000706  EF87  F003         	goto	u3241
  7832   00070A  EF89  F003         	goto	u3240
  7833   00070E                     u3241:
  7834   00070E  EF6D  F003         	goto	l3559
  7835   000712                     u3240:
  7836   000712  0E00               	movlw	0
  7837   000714  6E2F               	movwf	___fldiv@aexp^0,c
  7838   000716  AE2D               	btfss	(___fldiv@grs+3)^0,7,c
  7839   000718  EF90  F003         	goto	u3251
  7840   00071C  EF92  F003         	goto	u3250
  7841   000720                     u3251:
  7842   000720  EFB6  F003         	goto	l1203
  7843   000724                     u3250:
  7844   000724  0EFF               	movlw	255
  7845   000726  142A               	andwf	___fldiv@grs^0,w,c
  7846   000728  6E1F               	movwf	??___fldiv^0,c
  7847   00072A  0EFF               	movlw	255
  7848   00072C  142B               	andwf	(___fldiv@grs+1)^0,w,c
  7849   00072E  6E20               	movwf	(??___fldiv+1)^0,c
  7850   000730  0EFF               	movlw	255
  7851   000732  142C               	andwf	(___fldiv@grs+2)^0,w,c
  7852   000734  6E21               	movwf	(??___fldiv+2)^0,c
  7853   000736  0E7F               	movlw	127
  7854   000738  142D               	andwf	(___fldiv@grs+3)^0,w,c
  7855   00073A  6E22               	movwf	(??___fldiv+3)^0,c
  7856   00073C  501F               	movf	??___fldiv^0,w,c
  7857   00073E  1020               	iorwf	(??___fldiv+1)^0,w,c
  7858   000740  1021               	iorwf	(??___fldiv+2)^0,w,c
  7859   000742  1022               	iorwf	(??___fldiv+3)^0,w,c
  7860   000744  B4D8               	btfsc	status,2,c
  7861   000746  EFA7  F003         	goto	u3261
  7862   00074A  EFA9  F003         	goto	u3260
  7863   00074E                     u3261:
  7864   00074E  EFAD  F003         	goto	l1204
  7865   000752                     u3260:
  7866   000752                     l3573:
  7867   000752  0E01               	movlw	1
  7868   000754  6E2F               	movwf	___fldiv@aexp^0,c
  7869   000756  EFB6  F003         	goto	l1203
  7870   00075A                     l1204:
  7871   00075A  A017               	btfss	___fldiv@b^0,0,c
  7872   00075C  EFB2  F003         	goto	u3271
  7873   000760  EFB4  F003         	goto	u3270
  7874   000764                     u3271:
  7875   000764  EFB6  F003         	goto	l1203
  7876   000768                     u3270:
  7877   000768  EFA9  F003         	goto	l3573
  7878   00076C                     l1203:
  7879   00076C  502F               	movf	___fldiv@aexp^0,w,c
  7880   00076E  B4D8               	btfsc	status,2,c
  7881   000770  EFBC  F003         	goto	u3281
  7882   000774  EFBE  F003         	goto	u3280
  7883   000778                     u3281:
  7884   000778  EFE2  F003         	goto	l3585
  7885   00077C                     u3280:
  7886   00077C  0E01               	movlw	1
  7887   00077E  2617               	addwf	___fldiv@b^0,f,c
  7888   000780  0E00               	movlw	0
  7889   000782  2218               	addwfc	(___fldiv@b+1)^0,f,c
  7890   000784  2219               	addwfc	(___fldiv@b+2)^0,f,c
  7891   000786  221A               	addwfc	(___fldiv@b+3)^0,f,c
  7892   000788  A01A               	btfss	(___fldiv@b+3)^0,0,c
  7893   00078A  EFC9  F003         	goto	u3291
  7894   00078E  EFCB  F003         	goto	u3290
  7895   000792                     u3291:
  7896   000792  EFE2  F003         	goto	l3585
  7897   000796                     u3290:
  7898   000796  C017  F01F         	movff	___fldiv@b,??___fldiv
  7899   00079A  C018  F020         	movff	___fldiv@b+1,??___fldiv+1
  7900   00079E  C019  F021         	movff	___fldiv@b+2,??___fldiv+2
  7901   0007A2  C01A  F022         	movff	___fldiv@b+3,??___fldiv+3
  7902   0007A6  3422               	rlcf	(??___fldiv+3)^0,w,c
  7903   0007A8  3222               	rrcf	(??___fldiv+3)^0,f,c
  7904   0007AA  3221               	rrcf	(??___fldiv+2)^0,f,c
  7905   0007AC  3220               	rrcf	(??___fldiv+1)^0,f,c
  7906   0007AE  321F               	rrcf	??___fldiv^0,f,c
  7907   0007B0  C01F  F017         	movff	??___fldiv,___fldiv@b
  7908   0007B4  C020  F018         	movff	??___fldiv+1,___fldiv@b+1
  7909   0007B8  C021  F019         	movff	??___fldiv+2,___fldiv@b+2
  7910   0007BC  C022  F01A         	movff	??___fldiv+3,___fldiv@b+3
  7911   0007C0  4A28               	infsnz	___fldiv@new_exp^0,f,c
  7912   0007C2  2A29               	incf	(___fldiv@new_exp+1)^0,f,c
  7913   0007C4                     l3585:
  7914   0007C4  BE29               	btfsc	(___fldiv@new_exp+1)^0,7,c
  7915   0007C6  EFED  F003         	goto	u3301
  7916   0007CA  5029               	movf	(___fldiv@new_exp+1)^0,w,c
  7917   0007CC  E108               	bnz	u3300
  7918   0007CE  2828               	incf	___fldiv@new_exp^0,w,c
  7919   0007D0  A0D8               	btfss	status,0,c
  7920   0007D2  EFED  F003         	goto	u3301
  7921   0007D6  EFEF  F003         	goto	u3300
  7922   0007DA                     u3301:
  7923   0007DA  EFFA  F003         	goto	l3589
  7924   0007DE                     u3300:
  7925   0007DE  0E00               	movlw	0
  7926   0007E0  6E29               	movwf	(___fldiv@new_exp+1)^0,c
  7927   0007E2  6828               	setf	___fldiv@new_exp^0,c
  7928   0007E4  0E00               	movlw	0
  7929   0007E6  6E17               	movwf	___fldiv@b^0,c
  7930   0007E8  0E00               	movlw	0
  7931   0007EA  6E18               	movwf	(___fldiv@b+1)^0,c
  7932   0007EC  0E00               	movlw	0
  7933   0007EE  6E19               	movwf	(___fldiv@b+2)^0,c
  7934   0007F0  0E00               	movlw	0
  7935   0007F2  6E1A               	movwf	(___fldiv@b+3)^0,c
  7936   0007F4                     l3589:
  7937   0007F4  BE29               	btfsc	(___fldiv@new_exp+1)^0,7,c
  7938   0007F6  EF07  F004         	goto	u3310
  7939   0007FA  5029               	movf	(___fldiv@new_exp+1)^0,w,c
  7940   0007FC  E106               	bnz	u3311
  7941   0007FE  0428               	decf	___fldiv@new_exp^0,w,c
  7942   000800  B0D8               	btfsc	status,0,c
  7943   000802  EF05  F004         	goto	u3311
  7944   000806  EF07  F004         	goto	u3310
  7945   00080A                     u3311:
  7946   00080A  EF15  F004         	goto	l3593
  7947   00080E                     u3310:
  7948   00080E  0E00               	movlw	0
  7949   000810  6E29               	movwf	(___fldiv@new_exp+1)^0,c
  7950   000812  0E00               	movlw	0
  7951   000814  6E28               	movwf	___fldiv@new_exp^0,c
  7952   000816  0E00               	movlw	0
  7953   000818  6E17               	movwf	___fldiv@b^0,c
  7954   00081A  0E00               	movlw	0
  7955   00081C  6E18               	movwf	(___fldiv@b+1)^0,c
  7956   00081E  0E00               	movlw	0
  7957   000820  6E19               	movwf	(___fldiv@b+2)^0,c
  7958   000822  0E00               	movlw	0
  7959   000824  6E1A               	movwf	(___fldiv@b+3)^0,c
  7960   000826  0E00               	movlw	0
  7961   000828  6E27               	movwf	___fldiv@sign^0,c
  7962   00082A                     l3593:
  7963   00082A  C028  F02E         	movff	___fldiv@new_exp,___fldiv@bexp
  7964   00082E  A02E               	btfss	___fldiv@bexp^0,0,c
  7965   000830  EF1C  F004         	goto	u3321
  7966   000834  EF1E  F004         	goto	u3320
  7967   000838                     u3321:
  7968   000838  EF21  F004         	goto	l3599
  7969   00083C                     u3320:
  7970   00083C  8E19               	bsf	(___fldiv@b+2)^0,7,c
  7971   00083E  EF22  F004         	goto	l3601
  7972   000842                     l3599:
  7973   000842  9E19               	bcf	(___fldiv@b+2)^0,7,c
  7974   000844                     l3601:
  7975   000844  90D8               	bcf	status,0,c
  7976   000846  302E               	rrcf	___fldiv@bexp^0,w,c
  7977   000848  6E1A               	movwf	(___fldiv@b+3)^0,c
  7978   00084A  EFD8  F002         	goto	l3515
  7979   00084E                     l1190:
  7980   00084E  0012               	return		;funcret
  7981   000850                     __end_of___fldiv:
  7982                           	callstack 0
  7983                           
  7984 ;; *************** function _isr *****************
  7985 ;; Defined at:
  7986 ;;		line 13 in file "isr.c"
  7987 ;; Parameters:    Size  Location     Type
  7988 ;;		None
  7989 ;; Auto vars:     Size  Location     Type
  7990 ;;		None
  7991 ;; Return value:  Size  Location     Type
  7992 ;;                  1    wreg      void 
  7993 ;; Registers used:
  7994 ;;		wreg, status,2, status,0
  7995 ;; Tracked objects:
  7996 ;;		On entry : 0/0
  7997 ;;		On exit  : 0/0
  7998 ;;		Unchanged: 0/0
  7999 ;; Data sizes:     COMRAM   BANK0   BANK1   BANK2   BANK3   BANK4   BANK5
  8000 ;;      Params:         0       0       0       0       0       0       0
  8001 ;;      Locals:         0       0       0       0       0       0       0
  8002 ;;      Temps:          0       0       0       0       0       0       0
  8003 ;;      Totals:         0       0       0       0       0       0       0
  8004 ;;Total ram usage:        0 bytes
  8005 ;; Hardware stack levels used: 1
  8006 ;; This function calls:
  8007 ;;		Nothing
  8008 ;; This function is called by:
  8009 ;;		Interrupt level 2
  8010 ;; This function uses a non-reentrant model
  8011 ;;
  8012                           
  8013                           	psect	intcode
  8014   000008                     __pintcode:
  8015                           	callstack 0
  8016   000008                     _isr:
  8017                           	callstack 24
  8018                           
  8019                           ;incstack = 0
  8020   000008  825D               	bsf	int$flags,1,c	;set compiler interrupt flag (level 2)
  8021   00000A  EDFE  F00F         	call	int_func,f	;refresh shadow registers
  8022                           
  8023                           	psect	intcode_body
  8024   001FFC                     __pintcode_body:
  8025                           	callstack 24
  8026   001FFC                     int_func:
  8027                           	callstack 24
  8028   001FFC  0006               	pop		; remove dummy address from shadow register refresh
  8029   001FFE                     
  8030                           ;isr.c: 16:     TMR0 = TMR0 + 3038;
  8031   001FFE  0EDE               	movlw	222
  8032   002000  24D6               	addwf	214,w,c	;volatile
  8033   002002  6ED6               	movwf	214,c	;volatile
  8034   002004  0E0B               	movlw	11
  8035   002006  20D7               	addwfc	215,w,c	;volatile
  8036   002008  6ED7               	movwf	215,c	;volatile
  8037   00200A                     
  8038                           ;isr.c: 17:     if(TMR0IF)
  8039   00200A  A4F2               	btfss	4082,2,c	;volatile
  8040   00200C  EF0A  F010         	goto	i2u363_41
  8041   002010  EF0C  F010         	goto	i2u363_40
  8042   002014                     i2u363_41:
  8043   002014  EF20  F010         	goto	i2l497
  8044   002018                     i2u363_40:
  8045   002018                     
  8046                           ;isr.c: 18:     {;isr.c: 19:         if(count++ == 80)
  8047   002018  0100               	movlb	0	; () banked
  8048   00201A  4BA5               	infsnz	_count& (0+255),f,b
  8049   00201C  2BA6               	incf	(_count+1)& (0+255),f,b
  8050   00201E  0E51               	movlw	81
  8051   002020  19A5               	xorwf	_count& (0+255),w,b
  8052   002022  11A6               	iorwf	(_count+1)& (0+255),w,b
  8053   002024  A4D8               	btfss	status,2,c
  8054   002026  EF17  F010         	goto	i2u364_41
  8055   00202A  EF19  F010         	goto	i2u364_40
  8056   00202E                     i2u364_41:
  8057   00202E  EF1F  F010         	goto	i2l3831
  8058   002032                     i2u364_40:
  8059   002032                     
  8060                           ; BSR set to: 0
  8061                           ;isr.c: 20:         {;isr.c: 21:             count = 0;
  8062   002032  0E00               	movlw	0
  8063   002034  6FA6               	movwf	(_count+1)& (0+255),b
  8064   002036  0E00               	movlw	0
  8065   002038  6FA5               	movwf	_count& (0+255),b
  8066   00203A                     
  8067                           ; BSR set to: 0
  8068                           ;isr.c: 22:             sec++;
  8069   00203A  4A53               	infsnz	_sec^0,f,c
  8070   00203C  2A54               	incf	(_sec+1)^0,f,c
  8071   00203E                     i2l3831:
  8072                           
  8073                           ; BSR set to: 0
  8074                           ;isr.c: 24:         TMR0IF = 0;
  8075   00203E  94F2               	bcf	4082,2,c	;volatile
  8076   002040                     i2l497:
  8077   002040  925D               	bcf	int$flags,1,c	;clear compiler interrupt flag (level 2)
  8078   002042  0011               	retfie		f
  8079   002044                     __end_of_isr:
  8080                           	callstack 0
  8081                           
  8082                           	psect	rparam
  8083   000000                     
  8084                           	psect	temp
  8085   00005D                     btemp:
  8086                           	callstack 0
  8087   00005D                     	ds	1
  8088   000000                     int$flags	set	btemp
  8089   000000                     wtemp8	set	btemp+1
  8090   000000                     ttemp5	set	btemp+1
  8091   000000                     ttemp6	set	btemp+4
  8092   000000                     ttemp7	set	btemp+8
  8093                           
  8094                           	psect	idloc
  8095                           
  8096                           ;Config register IDLOC0 @ 0x200000
  8097                           ;	unspecified, using default values
  8098   200000                     	org	2097152
  8099   200000  FF                 	db	255
  8100                           
  8101                           ;Config register IDLOC1 @ 0x200001
  8102                           ;	unspecified, using default values
  8103   200001                     	org	2097153
  8104   200001  FF                 	db	255
  8105                           
  8106                           ;Config register IDLOC2 @ 0x200002
  8107                           ;	unspecified, using default values
  8108   200002                     	org	2097154
  8109   200002  FF                 	db	255
  8110                           
  8111                           ;Config register IDLOC3 @ 0x200003
  8112                           ;	unspecified, using default values
  8113   200003                     	org	2097155
  8114   200003  FF                 	db	255
  8115                           
  8116                           ;Config register IDLOC4 @ 0x200004
  8117                           ;	unspecified, using default values
  8118   200004                     	org	2097156
  8119   200004  FF                 	db	255
  8120                           
  8121                           ;Config register IDLOC5 @ 0x200005
  8122                           ;	unspecified, using default values
  8123   200005                     	org	2097157
  8124   200005  FF                 	db	255
  8125                           
  8126                           ;Config register IDLOC6 @ 0x200006
  8127                           ;	unspecified, using default values
  8128   200006                     	org	2097158
  8129   200006  FF                 	db	255
  8130                           
  8131                           ;Config register IDLOC7 @ 0x200007
  8132                           ;	unspecified, using default values
  8133   200007                     	org	2097159
  8134   200007  FF                 	db	255
  8135                           
  8136                           	psect	config
  8137                           
  8138                           ; Padding undefined space
  8139   300000                     	org	3145728
  8140   300000  FF                 	db	255
  8141                           
  8142                           ;Config register CONFIG1H @ 0x300001
  8143                           ;	unspecified, using default values
  8144                           ;	Oscillator Selection bits
  8145                           ;	OSC = 0x7, unprogrammed default
  8146                           ;	Fail-Safe Clock Monitor Enable bit
  8147                           ;	FCMEN = 0x0, unprogrammed default
  8148                           ;	Internal/External Oscillator Switchover bit
  8149                           ;	IESO = 0x0, unprogrammed default
  8150   300001                     	org	3145729
  8151   300001  07                 	db	7
  8152                           
  8153                           ;Config register CONFIG2L @ 0x300002
  8154                           ;	unspecified, using default values
  8155                           ;	Power-up Timer Enable bit
  8156                           ;	PWRT = 0x1, unprogrammed default
  8157                           ;	Brown-out Reset Enable bits
  8158                           ;	BOREN = 0x3, unprogrammed default
  8159                           ;	Brown-out Reset Voltage bits
  8160                           ;	BORV = 0x3, unprogrammed default
  8161   300002                     	org	3145730
  8162   300002  1F                 	db	31
  8163                           
  8164                           ;Config register CONFIG2H @ 0x300003
  8165                           ;	unspecified, using default values
  8166                           ;	Watchdog Timer Enable bit
  8167                           ;	WDT = 0x1, unprogrammed default
  8168                           ;	Watchdog Timer Postscale Select bits
  8169                           ;	WDTPS = 0xF, unprogrammed default
  8170   300003                     	org	3145731
  8171   300003  1F                 	db	31
  8172                           
  8173                           ; Padding undefined space
  8174   300004                     	org	3145732
  8175   300004  FF                 	db	255
  8176                           
  8177                           ;Config register CONFIG3H @ 0x300005
  8178                           ;	unspecified, using default values
  8179                           ;	PORTB A/D Enable bit
  8180                           ;	PBADEN = 0x1, unprogrammed default
  8181                           ;	Low-Power Timer 1 Oscillator Enable bit
  8182                           ;	LPT1OSC = 0x0, unprogrammed default
  8183                           ;	MCLR Pin Enable bit
  8184                           ;	MCLRE = 0x1, unprogrammed default
  8185   300005                     	org	3145733
  8186   300005  82                 	db	130
  8187                           
  8188                           ;Config register CONFIG4L @ 0x300006
  8189                           ;	unspecified, using default values
  8190                           ;	Stack Full/Underflow Reset Enable bit
  8191                           ;	STVREN = 0x1, unprogrammed default
  8192                           ;	Single-Supply ICSP Enable bit
  8193                           ;	LVP = 0x1, unprogrammed default
  8194                           ;	Boot Block Size Select bit
  8195                           ;	BBSIZ = 0x0, unprogrammed default
  8196                           ;	Extended Instruction Set Enable bit
  8197                           ;	XINST = 0x0, unprogrammed default
  8198                           ;	Background Debugger Enable bit
  8199                           ;	DEBUG = 0x1, unprogrammed default
  8200   300006                     	org	3145734
  8201   300006  85                 	db	133
  8202                           
  8203                           ; Padding undefined space
  8204   300007                     	org	3145735
  8205   300007  FF                 	db	255
  8206                           
  8207                           ;Config register CONFIG5L @ 0x300008
  8208                           ;	unspecified, using default values
  8209                           ;	Code Protection bit
  8210                           ;	CP0 = 0x1, unprogrammed default
  8211                           ;	Code Protection bit
  8212                           ;	CP1 = 0x1, unprogrammed default
  8213                           ;	Code Protection bit
  8214                           ;	CP2 = 0x1, unprogrammed default
  8215                           ;	Code Protection bit
  8216                           ;	CP3 = 0x1, unprogrammed default
  8217   300008                     	org	3145736
  8218   300008  0F                 	db	15
  8219                           
  8220                           ;Config register CONFIG5H @ 0x300009
  8221                           ;	unspecified, using default values
  8222                           ;	Boot Block Code Protection bit
  8223                           ;	CPB = 0x1, unprogrammed default
  8224                           ;	Data EEPROM Code Protection bit
  8225                           ;	CPD = 0x1, unprogrammed default
  8226   300009                     	org	3145737
  8227   300009  C0                 	db	192
  8228                           
  8229                           ;Config register CONFIG6L @ 0x30000A
  8230                           ;	unspecified, using default values
  8231                           ;	Write Protection bit
  8232                           ;	WRT0 = 0x1, unprogrammed default
  8233                           ;	Write Protection bit
  8234                           ;	WRT1 = 0x1, unprogrammed default
  8235                           ;	Write Protection bit
  8236                           ;	WRT2 = 0x1, unprogrammed default
  8237                           ;	Write Protection bit
  8238                           ;	WRT3 = 0x1, unprogrammed default
  8239   30000A                     	org	3145738
  8240   30000A  0F                 	db	15
  8241                           
  8242                           ;Config register CONFIG6H @ 0x30000B
  8243                           ;	unspecified, using default values
  8244                           ;	Configuration Register Write Protection bit
  8245                           ;	WRTC = 0x1, unprogrammed default
  8246                           ;	Boot Block Write Protection bit
  8247                           ;	WRTB = 0x1, unprogrammed default
  8248                           ;	Data EEPROM Write Protection bit
  8249                           ;	WRTD = 0x1, unprogrammed default
  8250   30000B                     	org	3145739
  8251   30000B  E0                 	db	224
  8252                           
  8253                           ;Config register CONFIG7L @ 0x30000C
  8254                           ;	unspecified, using default values
  8255                           ;	Table Read Protection bit
  8256                           ;	EBTR0 = 0x1, unprogrammed default
  8257                           ;	Table Read Protection bit
  8258                           ;	EBTR1 = 0x1, unprogrammed default
  8259                           ;	Table Read Protection bit
  8260                           ;	EBTR2 = 0x1, unprogrammed default
  8261                           ;	Table Read Protection bit
  8262                           ;	EBTR3 = 0x1, unprogrammed default
  8263   30000C                     	org	3145740
  8264   30000C  0F                 	db	15
  8265                           
  8266                           ;Config register CONFIG7H @ 0x30000D
  8267                           ;	unspecified, using default values
  8268                           ;	Boot Block Table Read Protection bit
  8269                           ;	EBTRB = 0x1, unprogrammed default
  8270   30000D                     	org	3145741
  8271   30000D  40                 	db	64
  8272                           tosu	equ	0xFFF
  8273                           tosh	equ	0xFFE
  8274                           tosl	equ	0xFFD
  8275                           stkptr	equ	0xFFC
  8276                           pclatu	equ	0xFFB
  8277                           pclath	equ	0xFFA
  8278                           pcl	equ	0xFF9
  8279                           tblptru	equ	0xFF8
  8280                           tblptrh	equ	0xFF7
  8281                           tblptrl	equ	0xFF6
  8282                           tablat	equ	0xFF5
  8283                           prodh	equ	0xFF4
  8284                           prodl	equ	0xFF3
  8285                           indf0	equ	0xFEF
  8286                           postinc0	equ	0xFEE
  8287                           postdec0	equ	0xFED
  8288                           preinc0	equ	0xFEC
  8289                           plusw0	equ	0xFEB
  8290                           fsr0h	equ	0xFEA
  8291                           fsr0l	equ	0xFE9
  8292                           wreg	equ	0xFE8
  8293                           indf1	equ	0xFE7
  8294                           postinc1	equ	0xFE6
  8295                           postdec1	equ	0xFE5
  8296                           preinc1	equ	0xFE4
  8297                           plusw1	equ	0xFE3
  8298                           fsr1h	equ	0xFE2
  8299                           fsr1l	equ	0xFE1
  8300                           bsr	equ	0xFE0
  8301                           indf2	equ	0xFDF
  8302                           postinc2	equ	0xFDE
  8303                           postdec2	equ	0xFDD
  8304                           preinc2	equ	0xFDC
  8305                           plusw2	equ	0xFDB
  8306                           fsr2h	equ	0xFDA
  8307                           fsr2l	equ	0xFD9
  8308                           status	equ	0xFD8

Data Sizes:
    Strings     465
    Constant    0
    Data        62
    BSS         73
    Persistent  0
    Stack       0

Auto Spaces:
    Space          Size  Autos    Used
    COMRAM           94     66      92
    BANK0           160      0     109
    BANK1           256      0       0
    BANK2           256      0       0
    BANK3           256      0       0
    BANK4           256      0       0
    BANK5           256      0       0

Pointer List with Targets:

    clcd_print@data	PTR const unsigned char  size(2) Largest target is 18
		 -> STR_46(CODE[18]), STR_45(CODE[17]), STR_44(CODE[17]), STR_43(CODE[17]), 
		 -> STR_42(CODE[17]), STR_41(CODE[17]), STR_40(CODE[17]), STR_39(CODE[17]), 
		 -> STR_38(CODE[17]), STR_37(CODE[16]), STR_36(CODE[17]), STR_35(CODE[17]), 
		 -> STR_34(CODE[17]), STR_33(CODE[18]), view_event(BANK0[17]), STR_32(CODE[12]), 
		 -> STR_31(CODE[10]), STR_26(CODE[17]), STR_25(CODE[17]), STR_24(CODE[17]), 
		 -> STR_23(CODE[17]), STR_22(CODE[17]), STR_21(CODE[16]), STR_20(CODE[16]), 
		 -> STR_19(CODE[17]), STR_18(CODE[17]), STR_17(CODE[16]), STR_16(CODE[17]), 
		 -> STR_15(CODE[17]), STR_14(CODE[17]), STR_13(CODE[17]), STR_4(CODE[17]), 
		 -> STR_3(CODE[17]), STR_2(CODE[17]), STR_1(CODE[17]), event(BANK0[17]), 

    menu_event	PTR unsigned char [4] size(2) Largest target is 3
		 -> STR_30(CODE[3]), STR_29(CODE[3]), STR_28(CODE[3]), STR_27(CODE[3]), 

    validate_password@enter_password	PTR unsigned char  size(2) Largest target is 5
		 -> confirm_password(BANK0[5]), enter_password(BANK0[5]), 

    validate_password@original_password	PTR unsigned char  size(2) Largest target is 5
		 -> enter_password(BANK0[5]), original_password(BANK0[5]), 

    store_event@event	PTR unsigned char  size(2) Largest target is 17
		 -> event(BANK0[17]), 

    menu	PTR unsigned char [5] size(2) Largest target is 17
		 -> STR_17(CODE[16]), STR_16(CODE[17]), STR_15(CODE[17]), STR_14(CODE[17]), 
		 -> STR_13(CODE[17]), 

    gear_data	PTR unsigned char [8] size(2) Largest target is 3
		 -> STR_12(CODE[3]), STR_11(CODE[3]), STR_10(CODE[3]), STR_9(CODE[3]), 
		 -> STR_8(CODE[3]), STR_7(CODE[3]), STR_6(CODE[3]), STR_5(CODE[3]), 


Critical Paths under _main in COMRAM

    _main->___fltol
    _view_log->_clcd_putch
    _read_external_eeprom->_i2c_write
    _read_password->_clcd_putch
    _read_password->_validate_password
    _init_config->_init_clcd
    _init_config->_init_ds1307
    _init_ds1307->_read_ds1307
    _init_ds1307->_write_ds1307
    _write_ds1307->_i2c_write
    _init_clcd->_clcd_write
    _get_time->_read_ds1307
    _read_ds1307->_i2c_write
    _display_speed->___lwdiv
    _display_dashboard->_gear_monitor
    _gear_monitor->_store_event
    _clear_log->_store_event
    _change_password->_clcd_putch
    _change_password->_validate_password
    _car_menu->_store_event
    _store_event->_write_external_eeprom
    _write_external_eeprom->_i2c_write
    _clcd_putch->___lwdiv
    _clcd_print->_clcd_write
    ___xxtofl->_read_adc
    ___fltol->___fldiv
    ___fldiv->___xxtofl

Critical Paths under _isr in COMRAM

    None.

Critical Paths under _main in BANK0

    None.

Critical Paths under _isr in BANK0

    None.

Critical Paths under _main in BANK1

    None.

Critical Paths under _isr in BANK1

    None.

Critical Paths under _main in BANK2

    None.

Critical Paths under _isr in BANK2

    None.

Critical Paths under _main in BANK3

    None.

Critical Paths under _isr in BANK3

    None.

Critical Paths under _main in BANK4

    None.

Critical Paths under _isr in BANK4

    None.

Critical Paths under _main in BANK5

    None.

Critical Paths under _isr in BANK5

    None.

Call Graph Tables:

 ---------------------------------------------------------------------------------
 (Depth) Function   	        Calls       Base Space   Used Autos Params    Refs
 ---------------------------------------------------------------------------------
 (0) _main                                                 9     9      0   65855
                                             57 COMRAM     9     9      0
                            ___fldiv
                            ___fltol
                           ___xxtofl
                           _car_menu
                    _change_password
                         _clcd_print
                          _clear_log
                  _display_dashboard
                      _display_speed
                           _get_time
                        _init_config
                           _read_adc
               _read_external_eeprom
                      _read_password
                      _read_switches
                           _set_time
                        _store_event
                           _view_log
              _write_external_eeprom
 ---------------------------------------------------------------------------------
 (1) _view_log                                             5     5      0    9539
                                              9 COMRAM     5     5      0
                            ___lwmod
                         _clcd_print
                         _clcd_putch
               _read_external_eeprom
 ---------------------------------------------------------------------------------
 (2) _read_external_eeprom                                 2     2      0      67
                                              1 COMRAM     2     2      0
                           _i2c_read
                      _i2c_rep_start
                          _i2c_start
                           _i2c_stop
                          _i2c_write
 ---------------------------------------------------------------------------------
 (1) _set_time                                             1     1      0       0
 ---------------------------------------------------------------------------------
 (1) _read_switches                                        2     2      0     111
                                              0 COMRAM     2     2      0
                           _scan_key
 ---------------------------------------------------------------------------------
 (2) _scan_key                                             0     0      0       0
 ---------------------------------------------------------------------------------
 (1) _read_password                                        3     3      0   10526
                                              9 COMRAM     3     3      0
                            ___lwdiv
                            ___lwmod
                         _clcd_print
                         _clcd_putch
                  _validate_password
 ---------------------------------------------------------------------------------
 (1) _read_adc                                             8     6      2      22
                                              0 COMRAM     8     6      2
 ---------------------------------------------------------------------------------
 (1) _init_config                                          0     0      0    1386
                           _init_adc
                          _init_clcd
                        _init_ds1307
                           _init_i2c
                 _init_matrix_keypad
                        _init_timer0
 ---------------------------------------------------------------------------------
 (2) _init_timer0                                          0     0      0       0
 ---------------------------------------------------------------------------------
 (2) _init_matrix_keypad                                   0     0      0       0
 ---------------------------------------------------------------------------------
 (2) _init_i2c                                             0     0      0       0
 ---------------------------------------------------------------------------------
 (2) _init_ds1307                                          1     1      0     506
                                              3 COMRAM     1     1      0
                        _read_ds1307
                       _write_ds1307
 ---------------------------------------------------------------------------------
 (3) _write_ds1307                                         2     1      1     370
                                              1 COMRAM     2     1      1
                          _i2c_start
                           _i2c_stop
                          _i2c_write
 ---------------------------------------------------------------------------------
 (2) _init_clcd                                            2     2      0     880
                                              2 COMRAM     2     2      0
                         _clcd_write
 ---------------------------------------------------------------------------------
 (2) _init_adc                                             0     0      0       0
 ---------------------------------------------------------------------------------
 (1) _get_time                                             0     0      0      67
                        _read_ds1307
 ---------------------------------------------------------------------------------
 (3) _read_ds1307                                          2     2      0      67
                                              1 COMRAM     2     2      0
                           _i2c_read
                      _i2c_rep_start
                          _i2c_start
                           _i2c_stop
                          _i2c_write
 ---------------------------------------------------------------------------------
 (3) _i2c_rep_start                                        0     0      0       0
                           _i2c_idle
 ---------------------------------------------------------------------------------
 (3) _i2c_read                                             0     0      0       0
                         _i2c_no_ack
                        _i2c_rx_mode
 ---------------------------------------------------------------------------------
 (4) _i2c_rx_mode                                          0     0      0       0
                           _i2c_idle
 ---------------------------------------------------------------------------------
 (4) _i2c_no_ack                                           0     0      0       0
 ---------------------------------------------------------------------------------
 (1) _display_speed                                        2     0      2    1429
                                              7 COMRAM     2     0      2
                            ___lwdiv
                            ___lwmod
 ---------------------------------------------------------------------------------
 (2) ___lwmod                                              5     1      4     767
                                              0 COMRAM     5     1      4
 ---------------------------------------------------------------------------------
 (2) ___lwdiv                                              7     3      4     466
                                              0 COMRAM     7     3      4
 ---------------------------------------------------------------------------------
 (1) _display_dashboard                                    1     1      0    6961
                                             16 COMRAM     1     1      0
                         _clcd_print
                       _gear_monitor
 ---------------------------------------------------------------------------------
 (2) _gear_monitor                                         3     3      0     910
                                             13 COMRAM     3     3      0
                        _store_event
 ---------------------------------------------------------------------------------
 (1) _clear_log                                            2     2      0    6719
                                             13 COMRAM     2     2      0
                         _clcd_print
                        _store_event
 ---------------------------------------------------------------------------------
 (1) _change_password                                      5     5      0    9788
                                              9 COMRAM     5     5      0
                         _clcd_print
                         _clcd_putch
                  _validate_password
              _write_external_eeprom
 ---------------------------------------------------------------------------------
 (2) _validate_password                                    9     5      4     766
                                              0 COMRAM     9     5      4
 ---------------------------------------------------------------------------------
 (1) _car_menu                                             3     3      0    9371
                                             13 COMRAM     3     3      0
                         _clcd_print
                         _clcd_putch
                        _store_event
 ---------------------------------------------------------------------------------
 (1) _store_event                                          8     6      2     756
                                              5 COMRAM     8     6      2
              _write_external_eeprom
 ---------------------------------------------------------------------------------
 (1) _write_external_eeprom                                4     3      1     317
                                              1 COMRAM     4     3      1
                          _i2c_start
                           _i2c_stop
                          _i2c_write
 ---------------------------------------------------------------------------------
 (2) _i2c_write                                            1     1      0      22
                                              0 COMRAM     1     1      0
                           _i2c_idle
 ---------------------------------------------------------------------------------
 (2) _i2c_stop                                             0     0      0       0
                           _i2c_idle
 ---------------------------------------------------------------------------------
 (2) _i2c_start                                            0     0      0       0
                           _i2c_idle
 ---------------------------------------------------------------------------------
 (3) _i2c_idle                                             0     0      0       0
 ---------------------------------------------------------------------------------
 (2) _clcd_putch                                           2     1      1    2520
                                              7 COMRAM     2     1      1
                            ___lwdiv (ARG)
                            ___lwmod (ARG)
                         _clcd_write
 ---------------------------------------------------------------------------------
 (2) _clcd_print                                           3     0      3    5963
                                              2 COMRAM     3     0      3
                         _clcd_write
 ---------------------------------------------------------------------------------
 (3) _clcd_write                                           2     1      1     880
                                              0 COMRAM     2     1      1
 ---------------------------------------------------------------------------------
 (1) ___xxtofl                                            14    10      4     474
                                              8 COMRAM    14    10      4
                           _read_adc (ARG)
 ---------------------------------------------------------------------------------
 (1) ___fltol                                             10     6      4     381
                                             47 COMRAM    10     6      4
                            ___fldiv (ARG)
                           ___xxtofl (ARG)
                           _read_adc (ARG)
 ---------------------------------------------------------------------------------
 (1) ___fldiv                                             25    17      8    1551
                                             22 COMRAM    25    17      8
                           ___xxtofl (ARG)
                           _read_adc (ARG)
 ---------------------------------------------------------------------------------
 Estimated maximum stack depth 4
 ---------------------------------------------------------------------------------
 (Depth) Function   	        Calls       Base Space   Used Autos Params    Refs
 ---------------------------------------------------------------------------------
 (7) _isr                                                  0     0      0       0
 ---------------------------------------------------------------------------------
 Estimated maximum stack depth 7
 ---------------------------------------------------------------------------------

 Call Graph Graphs:

 _main (ROOT)
   ___fldiv
     ___xxtofl (ARG)
       _read_adc (ARG)
     _read_adc (ARG)
   ___fltol
     ___fldiv (ARG)
     ___xxtofl (ARG)
     _read_adc (ARG)
   ___xxtofl
   _car_menu
     _clcd_print
       _clcd_write
     _clcd_putch
       ___lwdiv (ARG)
       ___lwmod (ARG)
       _clcd_write (ARG)
     _store_event
       _write_external_eeprom
         _i2c_start
           _i2c_idle
         _i2c_stop
           _i2c_idle
         _i2c_write
           _i2c_idle
   _change_password
     _clcd_print
     _clcd_putch
     _validate_password
     _write_external_eeprom
   _clcd_print
   _clear_log
     _clcd_print
     _store_event
   _display_dashboard
     _clcd_print
     _gear_monitor
       _store_event
   _display_speed
     ___lwdiv
     ___lwmod
   _get_time
     _read_ds1307
       _i2c_read
         _i2c_no_ack
         _i2c_rx_mode
           _i2c_idle
       _i2c_rep_start
         _i2c_idle
       _i2c_start
       _i2c_stop
       _i2c_write
   _init_config
     _init_adc
     _init_clcd
       _clcd_write
     _init_ds1307
       _read_ds1307
       _write_ds1307
         _i2c_start
         _i2c_stop
         _i2c_write
     _init_i2c
     _init_matrix_keypad
     _init_timer0
   _read_adc
   _read_external_eeprom
     _i2c_read
     _i2c_rep_start
     _i2c_start
     _i2c_stop
     _i2c_write
   _read_password
     ___lwdiv
     ___lwmod
     _clcd_print
     _clcd_putch
     _validate_password
   _read_switches
     _scan_key
   _set_time
   _store_event
   _view_log
     ___lwmod
     _clcd_print
     _clcd_putch
     _read_external_eeprom
   _write_external_eeprom

 _isr (ROOT)

 Address spaces:
Name               Size   Autos  Total    Cost      Usage
BIGRAM             5FF      0       0      25        0.0%
BITBIGSFRll        281      0       0      23        0.0%
EEDATA             100      0       0       0        0.0%
BITBANK5           100      0       0      14        0.0%
BANK5              100      0       0      15        0.0%
BITBANK4           100      0       0      12        0.0%
BANK4              100      0       0      13        0.0%
BITBANK3           100      0       0      10        0.0%
BANK3              100      0       0      11        0.0%
BITBANK2           100      0       0       8        0.0%
BANK2              100      0       0       9        0.0%
BITBANK1           100      0       0       6        0.0%
BANK1              100      0       0       7        0.0%
BITBANK0            A0      0       0       4        0.0%
BANK0               A0      0      6D       5       68.1%
BITCOMRAM           5E      0       0       0        0.0%
COMRAM              5E     42      5C       1       97.9%
BITBIGSFRhlhlhh     1E      0       0      19        0.0%
BITBIGSFRhlhhh      19      0       0      17        0.0%
BITBIGSFRlh          F      0       0      22        0.0%
BITBIGSFRhh          D      0       0      16        0.0%
BITBIGSFRhlhhlh      B      0       0      18        0.0%
BITBIGSFRhlhll       8      0       0      21        0.0%
BITBIGSFRhlhlhl      2      0       0      20        0.0%
BIGSFR               0      0       0     200        0.0%
BITSFR_3             0      0       0     200        0.0%
SFR_3                0      0       0     200        0.0%
BITSFR_2             0      0       0     200        0.0%
SFR_2                0      0       0     200        0.0%
BITSFR_1             0      0       0     200        0.0%
SFR_1                0      0       0     200        0.0%
BITSFR               0      0       0     200        0.0%
SFR                  0      0       0     200        0.0%
STACK                0      0       0       2        0.0%
NULL                 0      0       0       0        0.0%
ABS                  0      0      C9      24        0.0%
DATA                 0      0      C9       3        0.0%
CODE                 0      0       0       0        0.0%


Microchip Technology PIC18 Macro Assembler V2.41 build 20230208172133 
Symbol Table                                                                                   Tue Jan 02 18:25:14 2024

                      ___fldiv@aexp 002F                        ___fldiv@bexp 002E  
                      ___fldiv@sign 0027               _write_external_eeprom 2044  
                    clcd_print@addr 0005                      clcd_print@data 0003  
                                l59 21DE                                  _GO 7E11  
                _init_matrix_keypad 2252                                 l211 1240  
                               l204 1AC6                                 l240 0F62  
                               l403 2130                                 l171 1F10  
                               l404 2134                                 l228 1C14  
                               l413 1DE8                                 l191 17F6  
                               l183 1780                                 l407 1B76  
                               l416 2210                                 l176 1C96  
                               l360 1812                                 l352 1D7C  
                               l361 18FE                                 l281 2284  
                               l265 1334                                 l194 20C0  
                               l602 21A6                                 l346 2258  
                               l370 187C                                 l362 184E  
                               l363 1826                                 l284 1F6A  
                               l532 2226                                 l372 1890  
                               l605 2188                                 l461 1FB2  
                               l365 183A                                 l269 14B0  
                               l535 2228                                 l551 2260  
                               l455 21C4                                 l375 18C0  
                               l560 227E                                 l368 1868  
                               l537 2236                                 l545 2278  
                               l377 18D4                                 l369 18A4  
                               l538 2238                                 l554 2250  
                               l482 21F8                                 l458 1F84  
                               l378 18FC                                 l299 04B4  
                               l563 2244                                 l379 18E8  
                               l548 2270                                 l557 2268  
                               l582 215E                                 l905 1A04  
                               l579 2082                                 l599 1FFA  
                               _CKE 7E3E                                 _GIE 7F97  
                               _RB1 7C09                                 _RB2 7C0A  
                               _RC0 7C10                                 _RC1 7C11  
                               _RB3 7C0B                                 _RB4 7C0C  
                               _RC2 7C12                                 _RB5 7C0D  
                               _RB6 7C0E                                 _RB7 7C0F  
                               _RD7 7C1F                                 _PEN 7E2A  
                               _SEN 7E28                                 _PSA 7EAB  
                               _SMP 7E3F                                 _key 00AB  
                               _sec 0053                                 _isr 0008  
                    clcd_putch@addr 0008                      clcd_putch@data 0009  
                               wreg 0FE8              read_switches@detection 0001  
               ?_init_matrix_keypad 0001                         _total_index 0057  
                      ___fltol@exp1 0039                                l1201 06F4  
                              l1106 1D0A                                l1203 076C  
                              l1204 075A                                l1116 1EB2  
                              l1109 1EAA                                l3001 1D5C  
                              l3011 1D7A                                l3021 1EE8  
                              l3101 1196                                l1190 084E  
                              l1270 15A0                                l1263 1508  
                              l3023 1EFA                                l3015 1EB6  
                              l3111 1238                                l3103 11A8  
                              l3031 0F88                                l3007 1D66  
                              l1192 06AE                                l3121 0C06  
                              l3025 1F00                                l3017 1EC6  
                              l3105 11C8                                l3041 0FC6  
                              l3033 0F98                                l3009 1D76  
                              l1266 1664                                l1195 0672  
                              l3211 0F1E                                l3131 0C5E  
                              l3123 0C28                                l3115 0BE6  
                              l3019 1ED6                                l1099 1D02  
                              l3107 11D4                                l3051 0FFA  
                              l3043 0FD6                                l3035 0FA4  
                              l3027 0F66                                l1277 15FC  
                              l3213 0F40                                l3205 0EDE  
                              l3141 0CE2                                l3133 0C70  
                              l3125 0C3C                                l3117 0BF8  
                              l3301 1F48                                l3109 1224  
                              l3061 1056                                l3037 0FAC  
                              l3029 0F76                                l3221 1282  
                              l3207 0EF2                                l3151 0D42  
                              l3143 0CF8                                l3135 0CC0  
                              l3127 0C50                                l3119 0C00  
                              l3311 0046                                l3303 1F54  
                              l3071 10AC                                l3063 1062  
                              l3055 100E                                l3039 0FB4  
                              l3231 12CA                                l3223 1294  
                              l3215 1244                                l3209 0F0A  
                              l3161 0D88                                l3153 0D4E  
                              l3145 0D0C                                l3129 0C58  
                              l3401 0296                                l3321 0084  
                              l3313 0056                                l3305 0014  
                              l3081 1104                                l3073 10AE  
                              l3065 107A                                l3057 1030  
                              l3049 0FE6                                l3241 1318  
                              l3233 12DE                                l3225 129A  
                              l3217 1254                                l2611 1A68  
                              l3171 0DD2                                l3155 0D64  
                              l3147 0D1C                                l3163 0D90  
                              l3139 0CD0                                l3411 02D4  
                              l3403 02A2                                l3331 00B8  
                              l3323 0094                                l3315 0062  
                              l3307 0024                                l3091 1156  
                              l3083 110E                                l3075 10B6  
                              l3067 1082                                l3059 1040  
                              l3251 137A                                l3243 132C  
                              l3235 12EE                                l3227 12A2  
                              l3219 1272                                l3501 0558  
                              l2621 1AA2                                l2613 1A6E  
                              l2605 1A30                                l3181 0E40  
                              l3165 0DA2                                l3157 0D70  
                              l3149 0D2E                                l3421 0306  
                              l3405 02AA                                l3341 00FE  
                              l3333 00BA                                l3317 006A  
                              l3309 0034                                l2701 1B44  
                              l3093 1166                                l3085 111E  
                              l3077 10DC                                l3069 1096  
                              l3261 13D8                                l3237 12FC  
                              l3229 12B4                                l3245 1340  
                              l3511 0598                                l3503 0568  
                              l2623 1AAA                                l2615 1A7E  
                              l2607 1A48                                l3191 0E9C  
                              l3183 0E50                                l3167 0DAA  
                              l3175 0E04                                l3159 0D82  
                              l3431 038C                                l3423 032C  
                              l3407 02B2                                l3351 0154  
                              l3343 0108                                l3335 00C2  
                              l3319 0072                                l2631 216C  
                              l2711 21A8                                l2703 1B4C  
                              l3095 1176                                l3087 1136  
                              l3079 10F4                                l3271 1422  
                              l3263 13E8                                l3247 1352  
                              l3255 139C                                l3239 1310  
                              l3601 0844                                l3513 05A8  
                              l3521 05C8                                l3505 056A  
                              l2641 20FE                                l2553 2228  
                              l2561 226C                                l2625 1ABE  
                              l2617 1A84                                l2609 1A4C  
                              l3193 0EA4                                l3185 0E66  
                              l3177 0E16                                l3169 0DB0  
                              l3441 03B0                                l3425 0350  
                              l3409 02C4                                l3417 02E4  
                              l3361 0186                                l3353 0158  
                              l3345 0118                                l3337 00C8  
                              l3329 00A4                                l2801 1776  
                              l2633 2172                                l2705 1B56  
                              l2721 21F4                                l2713 21E0  
                              l3097 118E                                l3089 114A  
                              l3265 13F2                                l3257 13AE  
                              l3249 1358                                l3531 0606  
                              l3523 05D8                                l3515 05B0  
                              l3507 0572                                l3611 1916  
                              l2651 211A                                l2643 2110  
                              l2555 2272                                l2563 2248  
                              l2619 1A9A                                l3195 0EBA  
                              l3187 0E7A                                l3179 0E2C  
                              l3451 0400                                l3427 036C  
                              l3443 03D0                                l3419 02F8  
                              l3371 01CC                                l3363 0196  
                              l3355 016A                                l3347 0130  
                              l3339 00EE                                l2811 17B4  
                              l2571 227A                                l2635 2176  
                              l2627 2162                                l2707 1B64  
                              l2731 2220                                l2723 21F6  
                              l2715 21E8                                l3291 14A0  
                              l3283 1462                                l3267 1406  
                              l3259 13C4                                l3275 142E  
                              l3541 064E                                l3533 0616  
                              l3525 05D8                                l3517 05B4  
                              l3509 0582                                l3621 1966  
                              l2653 211C                                l2645 2114  
                              l2557 2274                                l2565 224C  
                              l2581 205C                                l2573 2046  
                              l3197 0EBE                                l3189 0E86  
                              l2821 1B84                                l3461 0462  
                              l3445 03F0                                l3437 0394  
                              l3429 0370                                l3365 01A8  
                              l3373 01D4                                l3349 0144  
                              l3453 0418                                l3293 1F12  
                              l2813 17E4                                l2805 1780  
                              l2637 2182                                l2629 2166  
                              l2709 1B6E                                l2661 218C  
                              l2741 1FC8                                l2733 2222  
                              l2725 2212                                l2717 21F0  
                              l3285 147A                                l3277 145A  
                              l3269 140E                                l3701 0854  
                              l3551 069C                                l3543 0662  
                              l3535 0626                                l3471 04B6  
                              l3631 1990                                l3623 196A  
                              l3615 192A                                l2655 211E  
                              l2647 2116                                l2559 226A  
                              l2583 2060                                l2575 204A  
                              l3199 0EC6                                l2823 1BC0  
                              l3463 0472                                l3455 042C  
                              l3447 03F4                                l3439 03AC  
                              l3391 0236                                l3375 01E6  
                              l3383 0206                                l3367 01B8  
                              l3359 0176                                l3295 1F32  
                              l2807 1790                                l2815 17F0  
                              l2911 1CB2                                l2567 2262  
                              l2591 223A                                l2663 2190  
                              l2743 1FDC                                l2735 2224  
                              l2727 2216                                l2671 2252  
                              l2719 21F2                                l2903 18FC  
                              l2751 2142                                l3287 147E  
                              l3711 0878                                l3561 06E4  
                              l3553 06AC                                l3545 0670  
                              l3537 0636                                l3529 05EC  
                              l3481 04F2                                l3473 04C2  
                              l3641 19B8                                l3633 199A  
                              l3625 1978                                l3617 1954  
                              l3609 1900                                l2657 2120  
                              l2649 2118                                l2761 1D7E  
                              l2817 21FC                                l2585 2068  
                              l2577 2050                                l3465 0488  
                              l3449 03F8                                l3385 021A  
                              l3377 01F6                                l3369 01C4  
                              l3393 0252                                l3297 1F3C  
                              l2809 1794                                l2921 1CEC  
                              l2913 1CBA                                l2569 2264  
                              l2593 2242                                l2681 1AD4  
                              l2665 2196                                l2745 1FE6  
                              l2737 1FB4                                l2729 221E  
                              l2673 2256                                l2753 2148  
                              l3289 149A                                l3801 0AC6  
                              l3721 08B2                                l3713 0894  
                              l3571 0724                                l3563 06F2  
                              l3555 06BE                                l3547 067C  
                              l3539 063E                                l3491 0522  
                              l3483 0502                                l3475 04D0  
                              l3643 19C4                                l3635 19A4  
                              l3619 1956                                l2659 2122  
                              l2763 1D8C                                l2579 2056  
                              l2827 1BF0                                l2819 1B78  
                              l3467 0494                                l3459 0440  
                              l3395 0264                                l3387 022A  
                              l3299 1F44                                l2771 1678  
                              l2923 1CF4                                l2915 1CC2  
                              l2907 1C98                                l2931 1E62  
                              l2587 225A                                l2691 1B18  
                              l2683 1AEC                                l2675 1AC8  
                              l2667 219C                                l2739 1FBC  
                              l2843 1820                                l2835 17F8  
                              l2755 214C                                l2747 2138  
                              l3811 0B1A                                l3803 0ACC  
                              l3731 093C                                l3723 08B6  
                              l3707 085C                                l3581 0796  
                              l3573 0752                                l3557 06D4  
                              l3565 0704                                l3549 069A  
                              l3493 0528                                l3485 0504  
                              l3477 04D2                                l3645 19D4  
                              l3661 152E                                l3653 14B4  
                              l2765 1DB4                                l2597 1A06  
                              l2829 1BF4                                l3469 04AC  
                              l3397 0274                                l3389 022E  
                              l2781 16D2                                l2773 168A  
                              l2925 1CF6                                l2917 1CD0  
                              l2909 1CA0                                l2941 1E9E  
                              l2933 1E6A                                l2589 225C  
                              l2693 1B22                                l2685 1AF6  
                              l2677 1ACC                                l2669 21A2  
                              l2837 180C                                l2757 2158  
                              l2749 213C                                l3813 0B22  
                              l3741 097C                                l3733 0940  
                              l3725 08D2                                l3709 0874  
                              l3591 080E                                l3583 07C0  
                              l3567 0712                                l3559 06DA  
                              l3495 0536                                l3479 04E2  
                              l3487 050C                                l3647 19E4  
                              l3671 1588                                l3655 14C4  
                              l2767 1DB8                                l2599 1A28  
                              l3399 0286                                l2791 172C  
                              l2783 16E4                                l2775 169A  
                              l2927 1CFC                                l2919 1CD6  
                              l2943 1EA4                                l2935 1E72  
                              l2695 1B28                                l2687 1B06  
                              l2679 1AD2                                l2951 21D2  
                              l2871 188A                                l2855 1848  
                              l3807 0AE2                                l3815 0B74  
                              l3751 09C0                                l3743 0984  
                              l3735 094C                                l3727 08D8  
                              l3719 089C                                l3593 082A  
                              l3577 077C                                l3585 07C4  
                              l3569 0716                                l3497 0538  
                              l3489 051C                                l3649 19F4  
                              l3681 15EC                                l3673 158A  
                              l3665 1542                                l3657 14D2  
                              l2793 1730                                l2785 16F8  
                              l2777 16AC                                l2769 1668  
                              l2937 1E80                                l2929 1E50  
                              l2697 1B32                                l2689 1B10  
                              l2953 21D6                                l2945 21C6  
                              l2961 1F92                                l2881 18BA  
                              l2865 1876                                l2849 1834  
                              l3809 0B02                                l3761 09F0  
                              l3753 09D0                                l3745 0996  
                              l3737 095E                                l3729 0930  
                              l3595 082E                                l3587 07DE  
                              l3579 0788                                l3499 0548  
                              l3691 1644                                l3683 160A  
                              l3675 1596                                l3667 154A  
                              l3659 1518                                l2795 1738  
                              l2787 1704                                l2779 16BE  
                              l2939 1E96                                l2971 1C34  
                              l2699 1B3A                                l2955 21DA  
                              l2947 21CA                                l2859 1862  
                              l3763 0A02                                l3755 09D4  
                              l3747 099E                                l3739 0970  
                              l3597 083C                                l3589 07F4  
                              l3693 1652                                l3685 160C  
                              l3677 15D2                                l3669 1556  
                              l2797 174A                                l2789 1716  
                              l2965 2084                                l2981 1C78  
                              l2973 1C42                                l2949 21CE  
                              l2957 1F6E                                l2893 18E2  
                              l2877 189E                                l3853 0B36  
                              l3781 0A54                                l3773 0A3A  
                              l3765 0A0E                                l3757 09E0  
                              l3749 09B0                                l3599 0842  
                              l3695 1654                                l3687 1610  
                              l3679 15DE                                l2799 1760  
                              l2967 20BC                                l2983 1C80  
                              l2975 1C58                                l2959 1F82  
                              l2887 18CE                                l3783 0A70  
                              l3775 0A4C                                l3767 0A14  
                              l3759 09EA                                l3689 1634  
                              l2977 1C6A                                l2969 1C16  
                              l2993 1D26                                l2985 1D0E  
                              l3793 0AB0                                l3785 0A74  
                              l3769 0A26                                l2979 1C6E  
                              l2899 18F6                                l2995 1D36  
                              l2987 1D1E                                l3795 0ABA  
                              l3787 0A94                                l3699 0850  
                              l2997 1D3C                                l3797 0ABE  
                              l3789 0A9A                                l2999 1D4C  
                              _ADFM 7E07                                ?_isr 0001  
                              _ADON 7E10                                STR_1 2F72  
                              STR_2 2F72                                STR_3 2F72  
                              STR_4 2F83                                STR_5 2FF2  
                              STR_6 2FEF                                STR_7 2FDD  
                              STR_8 2FE0                                STR_9 2FE3  
                              _T0CS 7EAD                                u2000 16E4  
                              u2001 16E0                                u2010 16F8  
                              u2011 16F4                                u2020 1716  
                              u2100 180C                                u2021 1712  
                              u2101 1808                                u2030 172C  
                              u2110 1820                                u2031 1728  
                              u2111 181C                                u3000 0286  
                              u2040 174A                                u2200 18E2  
                              u2120 1834                                u3001 0282  
                              u2041 1746                                u2201 18DE  
                              u2121 1830                                u3010 02C4  
                              u2050 1760                                u2210 18F6  
                              u2130 1848                                u3011 02C0  
                              u2051 175C                                u2211 18F2  
                              u2131 1844                                u3100 04D0  
                              u3020 02F8                                u2060 1776  
                              u2220 1CB2                                u2140 1862  
                              u2300 1D1E                                u3101 04CC  
                              u3021 02F4                                u2061 1772  
                              u2221 1CAE                                u2141 185E  
                              u2301 1D1A                                u3110 04E2  
                              u3030 032C                                u2070 1790  
                              u2230 1CD0                                u2150 1876  
                              u2310 1D36                                u3111 04DE  
                              u3031 0328                                u2071 178C  
                              u2231 1CCC                                u2151 1872  
                              u2311 1D32                                u3200 069A  
                              u3120 04F2                                u2080 1BC0  
                              u3040 038C                                u2240 1CEC  
                              u2400 0FFA                                u2160 188A  
                              u2320 1D4C                                u3201 0696  
                              u3121 04EE                                u2081 1BBC  
                              u3041 0388                                u2241 1CE8  
                              u2401 0FF6                                u2161 1886  
                              u2321 1D48                                u3210 06BE  
                              u3130 0536                                u2090 1C10  
                              u3050 03CC                                u2250 1E62  
                              u2410 1030                                u2170 189E  
                              u2330 1D5C                                u3211 06BA  
                              u3131 0532                                u2091 1C0C  
                              u3051 03C8                                u2251 1E5E  
                              u2411 102C                                u2171 189A  
                              u2331 1D58                                u3300 07DE  
                              u3220 06D4                                u3140 0548  
                              u2500 0C3C                                u3060 042C  
                              u2260 1E80                                u2420 1056  
                              u2180 18BA                                u2340 1D76  
                              u3301 07DA                                u3221 06D0  
                              u3141 0544                                u2501 0C38  
                              u3061 0428                                u2261 1E7C  
                              u2421 1052                                u2181 18B6  
                              u2341 1D72                                u3310 080E  
                              u3230 06F2                                u3150 0558  
                              u2510 0C50                                u3070 0462  
                              u2350 1ED6                                u2270 1E96  
                              u2430 107A                                u2190 18CE  
                              u3311 080A                                u3231 06EE  
                              u3151 0554                                u2511 0C4C  
                              u3071 045E                                u2351 1ED2  
                              u2271 1E92                                u2431 1076  
                              u2191 18CA                                u3320 083C  
                              u3240 0712                                u3160 0598  
                              u3400 14C4                                u2600 0D82  
                              u2520 0C70                                u3080 0488  
                              u2360 1EE8                                u2280 1F92  
                              u2440 1096                                u3321 0838  
                              u3241 070E                                u3161 0594  
                              u3401 14C0                                u2601 0D7E  
                              u2521 0C6C                                u3081 0484  
                              u2361 1EE4                                u2281 1F8E  
                              u2441 1092                                u3250 0724  
                              u3170 05D8                                u3330 1916  
                              u3410 14D2                                u2610 0DA2  
                              u2530 0CE2                                u3090 04AC  
                              u2370 1EFA                                u2290 1C42  
                              u2450 10DC                                u3251 0720  
                              u3171 05D4                                u3331 1912  
                              u3411 14CE                                u2611 0D9E  
                              u2531 0CDE                                u3091 04A8  
                              u2371 1EF6                                u2291 1C3E  
                              u2451 10D8                                u3260 0752  
                              u3180 064E                                u3340 194A  
                              u3420 152E                                u2700 0EBA  
                              u2620 0DD2                                u2540 0CF8  
                              u2460 11A8                                u2380 0F88  
                              u3500 0894                                u3261 074E  
                              u3181 064A                                u3421 152A  
                              u2701 0EB6                                u2621 0DCE  
                              u2541 0CF4                                u2461 11A4  
                              u2381 0F84                                u3501 0890  
                              u3270 0768                                u3190 0670  
                              u3350 1978                                u3430 1584  
                              u1910 2130                                u1830 2236  
                              u2710 0EDA                                u2630 0E16  
                              u2550 0D0C                                u2470 1238  
                              u2390 0FC6                                u3510 08D2  
                              u3271 0764                                u3191 066C  
                              u3351 1974                                u3431 1580  
                              u1911 212C                                u1831 2232  
                              u2711 0ED6                                u2631 0E12  
                              u2551 0D08                                u2471 1234  
                              u2391 0FC2                                u3511 08CE  
                              u3280 077C                                u3360 198C  
                              u3440 15CE                                u1920 1DB0  
                              u1840 2082                                u2720 0EF2  
                              u2640 0E2C                                u2560 0D1C  
                              u2480 0BF8                                u2800 1352  
                              u3600 0A90                                u3520 095E  
                              u3281 0778                                u3361 1988  
                              u3345 1940                                u3441 15CA  
                              u1905 2110                                u1841 207E  
                              u2721 0EEE                                u2641 0E28  
                              u2561 0D18                                u2481 0BF4  
                              u2801 134E                                u3601 0A8C  
                              u3521 095A                                u3290 0796  
                              u3370 19B4                                u3450 15EC  
                              u1930 1DD8                                u1850 1A68  
                              u2650 0E40                                u2570 0D2E  
                              u2490 0C28                                u2810 137A  
                              u2730 1294                                u3610 0AAC  
                              u3530 0970               ?_read_external_eeprom 0001  
                              u3291 0792                                u3371 19B0  
                              u3451 15E8                                u1851 1A64  
                              u2651 0E3C                                u2571 0D2A  
                              u2491 0C24                                u2811 1376  
                              u2731 1290                                u3611 0AA8  
                              u3531 096C                                u3380 19D4  
                              u3460 15FC                                u1940 1DE8  
                              u1860 1A7E                                u2660 0E50  
                              u2580 0D42                                u2900 0046  
                              u2820 13AE                                u2740 12B4  
                              u3620 0ADE                                u3540 0996  
                              u3381 19D0                                u3461 15F8  
                              u1941 1DE4                                u1861 1A7A  
                              u2661 0E4C                                u2581 0D3E  
                              u2901 0042                                u2821 13AA  
                              u2741 12B0                                u3621 0ADA  
                              u3541 0992                                u3390 19E4  
                              u3470 160A                                u1870 1A9A  
                              u2670 0E66                                u2590 0D64  
                              u2910 0084                                u1950 1678  
                              u2830 13C4                                u2750 12CA  
                              u3550 09B0                                u3391 19E0  
                              u3471 1606                                u1927 1DA6  
                              u1871 1A96                                u2671 0E62  
                              u2591 0D60                                u2911 0080  
                              u1951 1674                                u2831 13C0  
                              u2751 12C6                                u3551 09AC  
                              u3480 1644                                u1880 1ABE  
                              u2680 0E7A                                u2920 00B8  
                              u1960 168A                                u2840 13D8  
                              u2760 12DE                                u3560 09C0  
                              u3481 1640                                u1937 1DCE  
                              u1881 1ABA                                u2681 0E76  
                              u2921 00B4                                u1961 1686  
                              u2841 13D4                                u2761 12DA  
                              u3561 09BC                                u3490 1652  
                              u1890 210E                                u2690 0E9C  
                              u2930 00EE                                u1970 16AC  
                              u2850 13E8                                u2770 12EE  
                              u3570 0A02                                u3491 164E  
                              u1891 2108                                u2691 0E98  
                              u2931 00EA                                u1971 16A8  
                              u3707 1ADE                                u2851 13E4  
                              u2771 12EA                                u3571 09FE  
                              _PEIE 7F96                                u2940 016A  
                              u1980 16BE                                u2860 1406  
                              u2780 1310                                u3580 0A26  
                              u2941 0166                                u1981 16BA  
                              u3717 1AFC                                u2861 1402  
                              u2781 130C                                u3581 0A22  
                              u2950 0186                                u1990 16D2  
                              u2870 1422                                u2790 132C  
                              u3590 0A4C                                u3807 040A  
                              u2951 0182                                u1991 16CE  
                              u3727 1B12                                u2871 141E  
                              u2791 1328                                u3591 0A48  
                              u2960 01A8                                u2880 149A  
                              u2961 01A4                                u3737 1B34  
                              u2881 1496                                u3657 0B0C  
                              u2970 01E6                                u2890 0024  
                              u2971 01E2                                u2891 0020  
                              u3747 1B46                                u3667 10A0  
                              u2980 021A                                _RCEN 7E2B  
                              u2981 0216                                u3757 1B5C  
                              u3677 10E6                                u2990 0264  
                              u2991 0260                                u3767 1B70  
                              u3687 1128                                u3777 1F5E  
                              u3697 1180                                u3787 0122  
                              u3797 0240                                _RBPU 7F8F  
                              _TMR0 0FD6                                _RSEN 7E29  
                    ?_display_speed 0008                                _main 0850  
                              _menu 0070                                _wait 004D  
                              _time 009A                                fsr1h 0FE2  
                              fsr2h 0FDA                                indf1 0FE7  
                              indf2 0FDF                                fsr1l 0FE1  
                              fsr2l 0FD9                                btemp 005D  
                              start 000E                     ___fldiv@new_exp 0028  
              ??_init_matrix_keypad 0001                        ___param_bank 0000  
                    clcd_write@byte 0002                         _store_event 1A06  
                     _i2c_rep_start 225A                       ??_i2c_rx_mode 0001  
                             ??_isr 0001                        ?_init_ds1307 0001  
                     ___fltol@sign1 0038                               _ADCS0 7E00  
                             _ADCS1 7E01                               _ADCS2 7E02  
                             ?_main 0001                        ?_read_ds1307 0001  
                             _ACKEN 7E2C                               _ACKDT 7E2D  
                             _BCLIF 7D0B                     __end_of___fldiv 0850  
                             _ACQT0 7E03                               _ACQT1 7E04  
                             _ACQT2 7E05                               STR_10 2FE6  
                             STR_11 2FF8                               STR_20 2FA4  
                             STR_12 2FDA                               STR_21 2FB4  
                             STR_13 2E62                               STR_22 2F72  
                             STR_30 2FF5                               STR_14 2E51  
                             STR_31 2FD0                               STR_23 2F61  
                             STR_15 2EA6                               STR_32 2FC4  
                             STR_40 2EB7                               STR_24 2E95  
                             STR_16 2E73                               STR_41 2F72  
                             STR_25 2EC8                               STR_33 2E3F  
                             STR_17 2F94                               STR_42 2F50  
                             STR_26 2F2E                               STR_18 2F1D  
                             STR_34 2ED9                               STR_43 2F3F  
                             STR_19 2F0C                               STR_35 2EFB  
                             STR_27 2FFB                               STR_44 2ED9  
                             STR_36 2EEA                               STR_28 2FEC  
                             STR_37 2FB4                               STR_45 2E84  
                             STR_29 2FE9                               STR_38 2F72  
                             STR_46 2E2D                               STR_39 2F72  
                   __end_of___fltol 1A06                               _PCFG0 7E08  
                             _PCFG1 7E09                               _PCFG2 7E0A  
                             _PCFG3 7E0B                     __end_of___lwdiv 1D0C  
                   __end_of___lwmod 1EB4                        ?_init_config 0001  
                             i2l497 2040                               _VCFG0 7E0C  
                             _VCFG1 7E0D                               _PORTD 0F83  
                             _TRISB 0F93                               _TRISC 0F94  
                             _TRISD 0F95                               _SSPIF 7CF3  
                      ?_init_timer0 0001           write_external_eeprom@data 0002  
                             _count 00A5                               _index 004F  
                             _event 0084                               _wait1 0045  
                             _speed 00AF                               main@i 003C  
                   _change_password 0012     validate_password@enter_password 0003  
                             tablat 0FF5                               ttemp5 005E  
                             ttemp6 0061                               ttemp7 0065  
                             status 0FD8                               wtemp8 005E  
              __end_of_gear_monitor 17F8                    init_ds1307@dummy 0004  
                        _i2c_no_ack 227A                     __initialization 1DEA  
                    ?_i2c_rep_start 0001              ?_write_external_eeprom 0002  
                      __end_of_main 0BE4                    __end_of_i2c_idle 223A  
                  __end_of_i2c_read 2246                    __end_of_i2c_stop 2272  
                            ??_main 003A                       __activetblptr 0002  
               __end_of_i2c_rx_mode 226A                              _ADCON0 0FC2  
                  read_switches@key 0002              ??_read_external_eeprom 0002  
                   ??_display_speed 000A                              _ADRESH 0FC4  
                            _ADRESL 0FC3                              _T08BIT 7EAE  
                            i2l3821 1FFE                              i2l3831 203E  
                            i2l3823 200A                              i2l3825 2018  
                            i2l3827 2032                              i2l3829 203A  
                      _write_ds1307 218A                              _TMR0IE 7F95  
                            _TMR0IF 7F92                              _TMR0ON 7EAF  
                            _SSPADD 0FC8                              _TRISC3 7CA3  
                            _TRISC4 7CA4                              _TRISD7 7CAF  
                            _SSPBUF 0FC9                    __end_of_car_menu 0F64  
                  __end_of___xxtofl 1666                    __end_of_get_time 1C98  
                         ??___fldiv 001F                           ??___fltol 0034  
                         ??___lwdiv 0005                           ??___lwmod 0005  
                  __end_of_init_i2c 2228                    __end_of_init_adc 21C6  
                  __end_of_read_adc 1FB4                              clear_0 1E30  
                            clear_1 1E3C                              isa$std 0001  
                  __end_of_scan_key 1900                  store_event@address 000A  
                      __pdataCOMRAM 0059             __end_of_change_password 04B6  
                  __end_of_set_time 2286                        __mediumconst 2E2C  
                            tblptrh 0FF7                              tblptrl 0FF6  
                            tblptru 0FF8                    __end_of_view_log 14B2  
                      ___xxtofl@arg 0013                        ___xxtofl@exp 0012  
                      ___xxtofl@val 0009                          __accesstop 0060  
           __end_of__initialization 1E42                       ___rparam_used 0001  
                        ___fltol@f1 0030                     ??_i2c_rep_start 0001  
                       ?_i2c_no_ack 0001                      __pcstackCOMRAM 0001  
                      __pidataBANK0 20C2                         _i2c_rx_mode 2262  
                 __end_of_i2c_start 227A                   __end_of_i2c_write 2252  
                        __pbssBANK0 009A              write_external_eeprom@i 0003  
                         ?_i2c_idle 0001                           ?_i2c_read 0001  
                         ?_i2c_stop 0001                      _enter_password 00C8  
                        _clcd_print 1D7E                          _clcd_putch 21FA  
                        _clcd_write 20FC        write_external_eeprom@address 0005  
                      ?_store_event 0006                     read_ds1307@data 0003  
                        _gear_index 0051                   read_switches@once 005B  
                           _ACKSTAT 7E2E                       _read_password 0F64  
              display_dashboard@key 0011                           ?_car_menu 0001  
                         ?___xxtofl 0009                    ?_change_password 0001  
                      _gear_monitor 1666                             _SSPCON1 0FC6  
                         ?_get_time 0001                       _read_switches 1D0C  
                        ??_i2c_idle 0001                          ??_i2c_read 0001  
                        ??_i2c_stop 0001                           ?_init_i2c 0001  
                         ?_init_adc 0001                           ?_read_adc 0001  
                 __end_of_clear_log 1F6C                           ?_scan_key 0001  
           ??_write_external_eeprom 0003                          _enter_flag 0058  
                           __Hparam 0000                             __Lparam 0000  
                         ?_set_time 0001                  change_password@key 000E  
                           ___fldiv 04B6                           ?_view_log 0001  
                           ___fltol 1900                             ___lwdiv 1C98  
                           ___lwmod 1E50                             _address 00A7  
                           __pcinit 1DEA                             __ramtop 0600  
                    ?_read_password 0001                             __ptext0 0850  
                           __ptext1 1242                             __ptext2 2136  
                           __ptext3 2284                             __ptext4 1D0C  
                           __ptext5 17F8                             __ptext6 0F64  
                           __ptext7 1F6C                             __ptext8 21C6  
                           __ptext9 21E0                          _menu_index 0047  
                        _menu_event 007A                             _attempt 005C  
                           _index_1 0049                             _index_2 0059  
                 _validate_password 1B78                   __end_of_init_clcd 1B78  
                        ??_car_menu 000E                          ??___xxtofl 000D  
                ?_validate_password 0001                      ?_read_switches 0001  
                           main@key 0042                          ??_get_time 0004  
                    __pintcode_body 1FFC                end_of_initialization 1E42  
               ??_validate_password 0005                         set_time@key 0001  
                        ??_init_i2c 0001                          ??_init_adc 0001  
                     __Lmediumconst 2E2C                          ??_read_adc 0003  
                           int_func 1FFC                          ??_scan_key 0001  
                       ?_clcd_print 0003                         ?_clcd_putch 0008  
                       ?_clcd_write 0001                          ??_set_time 0001  
                           postdec1 0FE5                             postdec2 0FDD  
                           postinc0 0FEE                             postinc2 0FDE  
                        ??_view_log 000A                   _original_password 0095  
         __end_of_validate_password 1C16                     read_adc@channel 0008  
                     i2c_write@data 0001                          _view_event 00B2  
                     ___xxtofl@sign 0011                         ___fldiv@grs 002A  
                       ___fldiv@rem 0023               __end_of_display_speed 20C2  
          read_external_eeprom@data 0003                        ??_i2c_no_ack 0001  
                      ?_i2c_rx_mode 0001                     ??_read_password 000A  
                     __pidataCOMRAM 2280                         view_log@key 000E  
                  store_event@event 0006                 start_initialization 1DEA  
                   ??_read_switches 0001                           _i2c_start 2272  
                       __end_of_isr 2044                           _i2c_write 2246  
                __end_of_i2c_no_ack 2280                        _index_eeprom 00AD  
                  change_password@i 000C               __end_of_i2c_rep_start 2262  
                     ??_init_ds1307 0004                         __pdataBANK0 0060  
                     ??_read_ds1307 0002                       ??_init_config 0005  
                         ___fldiv@a 001B                           ___fldiv@b 0017  
                     ??_init_timer0 0001                         __pbssCOMRAM 0043  
                        ?_i2c_start 0001                          ?_i2c_write 0001  
                display_speed@speed 0008                      store_event@ind 000C  
                  ___lwdiv@dividend 0001       __end_of_write_external_eeprom 2084  
                         _clear_log 1F12                           _gear_data 0060  
                         _gear_flag 0056                           __pintcode 0008  
                     __pmediumconst 2E2C                            ?___fldiv 0017  
                          ?___fltol 0030                   _display_dashboard 1EB4  
                read_ds1307@address 0002                            ?___lwdiv 0001  
                         _clock_reg 00A2                            ?___lwmod 0001  
                  _confirm_password 00C3                  ?_display_dashboard 0001  
               __end_of_init_ds1307 1FFC                 ??_display_dashboard 0011  
               __end_of_read_ds1307 218A                    ___lwdiv@quotient 0005  
                         _init_clcd 1AC8                 __end_of_init_config 21E0  
                     ?_write_ds1307 0002                 __end_of_init_timer0 21FA  
                         _pass_flag 0055         read_external_eeprom@address 0002  
                      ??_clcd_print 0006                        ??_clcd_putch 0009  
        __end_of_init_matrix_keypad 225A                        ??_clcd_write 0002  
                          i2u363_40 2018                            i2u363_41 2014  
                          i2u364_40 2032                            i2u364_41 202E  
                        ?_clear_log 0001           __end_of_display_dashboard 1F12  
                         _view_flag 00A9               clcd_write@control_bit 0001  
                         _star_flag 0082                           main@i_144 003E  
                         main@i_147 0040  validate_password@original_password 0001  
                       ??_i2c_start 0001                  __end_of_clcd_print 1DEA  
                       ??_i2c_write 0001                  __end_of_clcd_putch 2212  
                __end_of_clcd_write 2136                          ?_init_clcd 0001  
                         copy_data0 1DFE                           copy_data1 1E1E  
                    ??_write_ds1307 0003                            _i2c_idle 2228  
                          _i2c_read 223A                            _i2c_stop 226A  
                       _count_event 0043                            __Hrparam 0000  
                          __Lrparam 0000                         car_menu@key 0010  
      __end_of_read_external_eeprom 2160                         _init_ds1307 1FB4  
                       _read_ds1307 2160                         _init_config 21C6  
                          _car_menu 0BE4                            ___xxtofl 14B2  
               write_ds1307@address 0003                         _init_timer0 21E0  
                  read_password@key 000C                     ___lwdiv@divisor 0003  
                   ___lwdiv@counter 0007                            __ptext10 2252  
                          __ptext11 2212                            __ptext20 2262  
                          __ptext12 1FB4                            __ptext21 227A  
                          __ptext13 218A                            __ptext30 0BE4  
                          __ptext22 2084                            __ptext14 1AC8  
                          __ptext31 1A06                            __ptext23 1E50  
                          __ptext15 21A8                            __ptext40 14B2  
                          __ptext32 2044                            __ptext24 1C98  
                          __ptext16 1C16                            __ptext41 1900  
                          __ptext33 2246                            __ptext25 1EB4  
                          __ptext17 2160                            __ptext42 04B6  
                          __ptext34 226A                            __ptext26 1666  
                          __ptext18 225A                            __ptext35 2272  
                          __ptext27 1F12                            __ptext19 223A  
                          __ptext36 2228                            __ptext28 0012  
                          __ptext37 21FA                            __ptext29 1B78  
                          __ptext38 1D7E                            __ptext39 20FC  
                          _get_time 1C16                            _init_i2c 2212  
                          _init_adc 21A8                            _read_adc 1F6C  
                          _scan_key 17F8                            _pass_key 00B1  
                       ??_clear_log 000E                       ??_store_event 0008  
                 ??_change_password 000A                            _set_time 2284  
                          isa$xinst 0000                            int$flags 005D  
                          _view_log 1242               __end_of_read_password 1242  
                         view_log@i 000C                       ?_gear_monitor 0001  
                       ??_init_clcd 0003               __end_of_read_switches 1D7E  
                          intlevel2 0000                    ___lwmod@dividend 0001  
                   gear_monitor@key 0010                __end_of_write_ds1307 21A8  
               __end_of_store_event 1AC8                      ??_gear_monitor 000E  
                   ___lwmod@divisor 0003                     ___lwmod@counter 0005  
                      _previous_key 004B                    write_ds1307@data 0002  
              _read_external_eeprom 2136                       _display_speed 2084  
      validate_password@ind_compare 0008  
