

Microchip MPLAB XC8 Assembler V2.41 build 20230208172133 
                                                                                               Fri Dec 15 17:36:24 2023

Microchip MPLAB XC8 C Compiler v2.41 (Free license) build 20230208172133 Og1 
     1                           	processor	18F4580
     2                           	fnconf	rparam,??,?,0
     3                           	pagewidth 120
     4                           	opt	flic
     5                           	psect	idataCOMRAM,global,class=CODE,delta=1,noexec
     6                           	psect	smallconst,global,reloc=2,class=SMALLCONST,delta=1,noexec
     7                           	psect	cinit,global,reloc=2,class=CODE,delta=1
     8                           	psect	bssCOMRAM,global,class=COMRAM,space=1,delta=1,lowdata,noexec
     9                           	psect	dataCOMRAM,global,class=COMRAM,space=1,delta=1,lowdata,noexec
    10                           	psect	cstackCOMRAM,global,class=COMRAM,space=1,delta=1,lowdata,noexec
    11                           	psect	text0,global,reloc=2,class=CODE,delta=1
    12                           	psect	text1,global,reloc=2,class=CODE,delta=1
    13                           	psect	text2,global,reloc=2,class=CODE,delta=1
    14                           	psect	text3,global,reloc=2,class=CODE,delta=1
    15                           	psect	text4,global,reloc=2,class=CODE,delta=1
    16                           	psect	text5,global,reloc=2,class=CODE,delta=1
    17                           	psect	text6,global,reloc=2,class=CODE,delta=1
    18                           	psect	text7,global,reloc=2,class=CODE,delta=1
    19                           	psect	text8,global,reloc=2,class=CODE,delta=1
    20                           	psect	text9,global,reloc=2,class=CODE,delta=1
    21                           	psect	text10,global,reloc=2,class=CODE,delta=1
    22                           	psect	text11,global,reloc=2,class=CODE,delta=1
    23                           	psect	text12,global,reloc=2,class=CODE,delta=1
    24                           	psect	text13,global,reloc=2,class=CODE,delta=1
    25                           	psect	text14,global,reloc=2,class=CODE,delta=1
    26                           	psect	text15,global,reloc=2,class=CODE,delta=1
    27                           	psect	text16,global,reloc=2,class=CODE,delta=1
    28                           	psect	text17,global,reloc=2,class=CODE,delta=1,group=1
    29                           	psect	text18,global,reloc=2,class=CODE,delta=1,group=1
    30                           	psect	text19,global,reloc=2,class=CODE,delta=1,group=1
    31                           	psect	text20,global,reloc=2,class=CODE,delta=1,group=1
    32                           	psect	text21,global,reloc=2,class=CODE,delta=1,group=1
    33                           	psect	intcode,global,reloc=2,class=CODE,delta=1
    34                           	psect	intcode_body,global,reloc=2,class=CODE,delta=1
    35                           	psect	intsave_regs,global,class=BIGRAM,space=1,delta=1,noexec
    36                           	psect	rparam,global,class=COMRAM,space=1,delta=1,noexec
    37                           	psect	temp,global,ovrld,common,class=COMRAM,space=1,delta=1
    38                           	psect	idloc,global,abs,ovrld,class=IDLOC,space=5,delta=1,noexec
    39                           	psect	config,global,abs,ovrld,class=CONFIG,space=4,delta=1,noexec
    40   000000                     
    41                           ; Version 2.20
    42                           ; Generated 12/02/2020 GMT
    43                           ; 
    44                           ; Copyright © 2020, Microchip Technology Inc. and its subsidiaries ("Microchip")
    45                           ; All rights reserved.
    46                           ; 
    47                           ; This software is developed by Microchip Technology Inc. and its subsidiaries ("Microch
      +                          ip").
    48                           ; 
    49                           ; Redistribution and use in source and binary forms, with or without modification, are
    50                           ; permitted provided that the following conditions are met:
    51                           ; 
    52                           ;     1. Redistributions of source code must retain the above copyright notice, this lis
      +                          t of
    53                           ;        conditions and the following disclaimer.
    54                           ; 
    55                           ;     2. Redistributions in binary form must reproduce the above copyright notice, this 
      +                          list
    56                           ;        of conditions and the following disclaimer in the documentation and/or other
    57                           ;        materials provided with the distribution.
    58                           ; 
    59                           ;     3. Microchip's name may not be used to endorse or promote products derived from th
      +                          is
    60                           ;        software without specific prior written permission.
    61                           ; 
    62                           ; THIS SOFTWARE IS PROVIDED BY MICROCHIP "AS IS" AND ANY EXPRESS OR IMPLIED WARRANTIES,
    63                           ; INCLUDING, BUT NOT LIMITED TO, THE IMPLIED WARRANTIES OF MERCHANTABILITY AND FITNESS F
      +                          OR
    64                           ; PURPOSE ARE DISCLAIMED.  IN NO EVENT SHALL MICROCHIP BE LIABLE FOR ANY DIRECT, INDIREC
      +                          T,
    65                           ; INCIDENTAL, SPECIAL, EXEMPLARY, OR CONSEQUENTIAL DAMAGES (INCLUDING BUT NOT LIMITED TO
    66                           ; PROCUREMENT OF SUBSTITUTE GOODS OR SERVICES; LOSS OF USE, DATA OR PROFITS; OR BUSINESS
    67                           ; INTERRUPTION) HOWSOEVER CAUSED AND ON ANY THEORY OF LIABILITY, WHETHER IN CONTRACT, ST
      +                          RICT
    68                           ; LIABILITY, OR TORT (INCLUDING NEGLIGENCE OR OTHERWISE) ARISING IN ANY WAY OUT OF THE U
      +                          SE OF
    69                           ; THIS SOFTWARE, EVEN IF ADVISED OF THE POSSIBILITY OF SUCH DAMAGE.
    70                           ; 
    71                           ; 
    72                           ; Code-generator required, PIC18F4580 Definitions
    73                           ; 
    74                           ; SFR Addresses
    75   000000                     
    76                           	psect	idataCOMRAM
    77   0017F4                     __pidataCOMRAM:
    78                           	callstack 0
    79                           
    80                           ;initializer for _gear_data
    81   0017F4  DA                 	db	low STR_1
    82   0017F5  06                 	db	high STR_1
    83   0017F6  D7                 	db	low STR_2
    84   0017F7  06                 	db	high STR_2
    85   0017F8  CB                 	db	low STR_3
    86   0017F9  06                 	db	high STR_3
    87   0017FA  CE                 	db	low STR_4
    88   0017FB  06                 	db	high STR_4
    89   0017FC  D1                 	db	low STR_5
    90   0017FD  06                 	db	high STR_5
    91   0017FE  D4                 	db	low STR_6
    92   0017FF  06                 	db	high STR_6
    93   001800  DD                 	db	low STR_7
    94   001801  06                 	db	high STR_7
    95   001802  C8                 	db	low STR_8
    96   001803  06                 	db	high STR_8
    97                           
    98                           ;initializer for read_switches@once
    99   001804  01                 	db	1
   100   000000                     _TRISC	set	3988
   101   000000                     _TRISD7	set	31919
   102   000000                     _RBPU	set	32655
   103   000000                     _ADCON0	set	4034
   104   000000                     _TRISD	set	3989
   105   000000                     _PSA	set	32427
   106   000000                     _T0CS	set	32429
   107   000000                     _T08BIT	set	32430
   108   000000                     _TMR0IF	set	32658
   109   000000                     _TMR0IE	set	32661
   110   000000                     _PEIE	set	32662
   111   000000                     _GO	set	32273
   112   000000                     _ADFM	set	32263
   113   000000                     _ADCS0	set	32256
   114   000000                     _ADCS1	set	32257
   115   000000                     _ADCS2	set	32258
   116   000000                     _ACQT0	set	32259
   117   000000                     _ACQT1	set	32260
   118   000000                     _PCFG0	set	32264
   119   000000                     _PCFG1	set	32265
   120   000000                     _PCFG2	set	32266
   121   000000                     _PCFG3	set	32267
   122   000000                     _VCFG0	set	32268
   123   000000                     _RD7	set	31775
   124   000000                     _RC0	set	31760
   125   000000                     _RC2	set	31762
   126   000000                     _RB4	set	31756
   127   000000                     _RB3	set	31755
   128   000000                     _RB2	set	31754
   129   000000                     _RB1	set	31753
   130   000000                     _RB7	set	31759
   131   000000                     _RB6	set	31758
   132   000000                     _TRISB	set	3987
   133   000000                     _RB5	set	31757
   134   000000                     _GIE	set	32663
   135   000000                     _PORTD	set	3971
   136   000000                     _RC1	set	31761
   137   000000                     _ACQT2	set	32261
   138   000000                     _VCFG1	set	32269
   139   000000                     _ADON	set	32272
   140   000000                     _TMR0	set	4054
   141   000000                     _ADRESH	set	4036
   142   000000                     _ADRESL	set	4035
   143   000000                     _TMR0ON	set	32431
   144                           
   145                           	psect	smallconst
   146   000600                     __psmallconst:
   147                           	callstack 0
   148   000600  00                 	db	0
   149   000601                     STR_10:
   150   000601  20                 	db	32
   151   000602  20                 	db	32
   152   000603  20                 	db	32
   153   000604  20                 	db	32
   154   000605  20                 	db	32
   155   000606  20                 	db	32
   156   000607  20                 	db	32
   157   000608  20                 	db	32
   158   000609  20                 	db	32
   159   00060A  20                 	db	32
   160   00060B  20                 	db	32
   161   00060C  20                 	db	32
   162   00060D  20                 	db	32
   163   00060E  20                 	db	32
   164   00060F  20                 	db	32
   165   000610  20                 	db	32
   166   000611  00                 	db	0
   167   000612                     STR_19:
   168   000612  20                 	db	32
   169   000613  20                 	db	32
   170   000614  20                 	db	32
   171   000615  4D                 	db	77	;'M'
   172   000616  65                 	db	101	;'e'
   173   000617  6E                 	db	110	;'n'
   174   000618  75                 	db	117	;'u'
   175   000619  20                 	db	32
   176   00061A  50                 	db	80	;'P'
   177   00061B  61                 	db	97	;'a'
   178   00061C  67                 	db	103	;'g'
   179   00061D  65                 	db	101	;'e'
   180   00061E  20                 	db	32
   181   00061F  20                 	db	32
   182   000620  20                 	db	32
   183   000621  20                 	db	32
   184   000622  00                 	db	0
   185   000623                     STR_22:
   186   000623  20                 	db	32
   187   000624  20                 	db	32
   188   000625  20                 	db	32
   189   000626  20                 	db	32
   190   000627  56                 	db	86	;'V'
   191   000628  69                 	db	105	;'i'
   192   000629  65                 	db	101	;'e'
   193   00062A  77                 	db	119	;'w'
   194   00062B  20                 	db	32
   195   00062C  4C                 	db	76	;'L'
   196   00062D  6F                 	db	111	;'o'
   197   00062E  67                 	db	103	;'g'
   198   00062F  20                 	db	32
   199   000630  20                 	db	32
   200   000631  20                 	db	32
   201   000632  20                 	db	32
   202   000633  00                 	db	0
   203   000634                     STR_23:
   204   000634  20                 	db	32
   205   000635  20                 	db	32
   206   000636  20                 	db	32
   207   000637  20                 	db	32
   208   000638  43                 	db	67	;'C'
   209   000639  6C                 	db	108	;'l'
   210   00063A  65                 	db	101	;'e'
   211   00063B  61                 	db	97	;'a'
   212   00063C  72                 	db	114	;'r'
   213   00063D  20                 	db	32
   214   00063E  4C                 	db	76	;'L'
   215   00063F  6F                 	db	111	;'o'
   216   000640  67                 	db	103	;'g'
   217   000641  20                 	db	32
   218   000642  20                 	db	32
   219   000643  20                 	db	32
   220   000644  00                 	db	0
   221   000645                     STR_20:
   222   000645  20                 	db	32
   223   000646  20                 	db	32
   224   000647  41                 	db	65	;'A'
   225   000648  74                 	db	116	;'t'
   226   000649  74                 	db	116	;'t'
   227   00064A  65                 	db	101	;'e'
   228   00064B  6D                 	db	109	;'m'
   229   00064C  70                 	db	112	;'p'
   230   00064D  74                 	db	116	;'t'
   231   00064E  20                 	db	32
   232   00064F  4F                 	db	79	;'O'
   233   000650  76                 	db	118	;'v'
   234   000651  65                 	db	101	;'e'
   235   000652  72                 	db	114	;'r'
   236   000653  20                 	db	32
   237   000654  20                 	db	32
   238   000655  00                 	db	0
   239   000656                     STR_9:
   240   000656  20                 	db	32
   241   000657  20                 	db	32
   242   000658  54                 	db	84	;'T'
   243   000659  49                 	db	73	;'I'
   244   00065A  4D                 	db	77	;'M'
   245   00065B  45                 	db	69	;'E'
   246   00065C  20                 	db	32
   247   00065D  20                 	db	32
   248   00065E  20                 	db	32
   249   00065F  20                 	db	32
   250   000660  45                 	db	69	;'E'
   251   000661  56                 	db	86	;'V'
   252   000662  20                 	db	32
   253   000663  53                 	db	83	;'S'
   254   000664  50                 	db	80	;'P'
   255   000665  20                 	db	32
   256   000666  00                 	db	0
   257   000667                     STR_21:
   258   000667  20                 	db	32
   259   000668  57                 	db	87	;'W'
   260   000669  61                 	db	97	;'a'
   261   00066A  69                 	db	105	;'i'
   262   00066B  74                 	db	116	;'t'
   263   00066C  20                 	db	32
   264   00066D  46                 	db	70	;'F'
   265   00066E  6F                 	db	111	;'o'
   266   00066F  72                 	db	114	;'r'
   267   000670  20                 	db	32
   268   000671  20                 	db	32
   269   000672  20                 	db	32
   270   000673  20                 	db	32
   271   000674  53                 	db	83	;'S'
   272   000675  65                 	db	101	;'e'
   273   000676  63                 	db	99	;'c'
   274   000677  00                 	db	0
   275   000678                     STR_18:
   276   000678  43                 	db	67	;'C'
   277   000679  6F                 	db	111	;'o'
   278   00067A  72                 	db	114	;'r'
   279   00067B  72                 	db	114	;'r'
   280   00067C  65                 	db	101	;'e'
   281   00067D  63                 	db	99	;'c'
   282   00067E  74                 	db	116	;'t'
   283   00067F  20                 	db	32
   284   000680  50                 	db	80	;'P'
   285   000681  61                 	db	97	;'a'
   286   000682  73                 	db	115	;'s'
   287   000683  73                 	db	115	;'s'
   288   000684  77                 	db	119	;'w'
   289   000685  6F                 	db	111	;'o'
   290   000686  72                 	db	114	;'r'
   291   000687  64                 	db	100	;'d'
   292   000688  00                 	db	0
   293   000689                     STR_15:
   294   000689  20                 	db	32
   295   00068A  57                 	db	87	;'W'
   296   00068B  72                 	db	114	;'r'
   297   00068C  6F                 	db	111	;'o'
   298   00068D  6E                 	db	110	;'n'
   299   00068E  67                 	db	103	;'g'
   300   00068F  20                 	db	32
   301   000690  50                 	db	80	;'P'
   302   000691  61                 	db	97	;'a'
   303   000692  73                 	db	115	;'s'
   304   000693  73                 	db	115	;'s'
   305   000694  77                 	db	119	;'w'
   306   000695  6F                 	db	111	;'o'
   307   000696  72                 	db	114	;'r'
   308   000697  64                 	db	100	;'d'
   309   000698  00                 	db	0
   310   000699                     STR_14:
   311   000699  20                 	db	32
   312   00069A  45                 	db	69	;'E'
   313   00069B  6E                 	db	110	;'n'
   314   00069C  74                 	db	116	;'t'
   315   00069D  65                 	db	101	;'e'
   316   00069E  72                 	db	114	;'r'
   317   00069F  20                 	db	32
   318   0006A0  70                 	db	112	;'p'
   319   0006A1  61                 	db	97	;'a'
   320   0006A2  73                 	db	115	;'s'
   321   0006A3  73                 	db	115	;'s'
   322   0006A4  77                 	db	119	;'w'
   323   0006A5  6F                 	db	111	;'o'
   324   0006A6  72                 	db	114	;'r'
   325   0006A7  64                 	db	100	;'d'
   326   0006A8  00                 	db	0
   327   0006A9                     STR_16:
   328   0006A9  2D                 	db	45
   329   0006AA  41                 	db	65	;'A'
   330   0006AB  74                 	db	116	;'t'
   331   0006AC  74                 	db	116	;'t'
   332   0006AD  65                 	db	101	;'e'
   333   0006AE  6D                 	db	109	;'m'
   334   0006AF  70                 	db	112	;'p'
   335   0006B0  74                 	db	116	;'t'
   336   0006B1  20                 	db	32
   337   0006B2  52                 	db	82	;'R'
   338   0006B3  65                 	db	101	;'e'
   339   0006B4  6D                 	db	109	;'m'
   340   0006B5  61                 	db	97	;'a'
   341   0006B6  69                 	db	105	;'i'
   342   0006B7  6E                 	db	110	;'n'
   343   0006B8  00                 	db	0
   344   0006B9                     STR_11:
   345   0006B9  31                 	db	49	;'1'
   346   0006BA  30                 	db	48	;'0'
   347   0006BB  3A                 	db	58	;':'
   348   0006BC  30                 	db	48	;'0'
   349   0006BD  30                 	db	48	;'0'
   350   0006BE  3A                 	db	58	;':'
   351   0006BF  30                 	db	48	;'0'
   352   0006C0  30                 	db	48	;'0'
   353   0006C1  20                 	db	32
   354   0006C2  00                 	db	0
   355   0006C3                     STR_12:
   356   0006C3  30                 	db	48	;'0'
   357   0006C4  30                 	db	48	;'0'
   358   0006C5  31                 	db	49	;'1'
   359   0006C6  31                 	db	49	;'1'
   360   0006C7  00                 	db	0
   361   0006C8                     STR_8:
   362   0006C8  43                 	db	67	;'C'
   363   0006C9  20                 	db	32
   364   0006CA  00                 	db	0
   365   0006CB                     STR_3:
   366   0006CB  47                 	db	71	;'G'
   367   0006CC  31                 	db	49	;'1'
   368   0006CD  00                 	db	0
   369   0006CE                     STR_4:
   370   0006CE  47                 	db	71	;'G'
   371   0006CF  32                 	db	50	;'2'
   372   0006D0  00                 	db	0
   373   0006D1                     STR_5:
   374   0006D1  47                 	db	71	;'G'
   375   0006D2  33                 	db	51	;'3'
   376   0006D3  00                 	db	0
   377   0006D4                     STR_6:
   378   0006D4  47                 	db	71	;'G'
   379   0006D5  34                 	db	52	;'4'
   380   0006D6  00                 	db	0
   381   0006D7                     STR_2:
   382   0006D7  47                 	db	71	;'G'
   383   0006D8  4E                 	db	78	;'N'
   384   0006D9  00                 	db	0
   385   0006DA                     STR_1:
   386   0006DA  4F                 	db	79	;'O'
   387   0006DB  4E                 	db	78	;'N'
   388   0006DC  00                 	db	0
   389   0006DD                     STR_7:
   390   0006DD  47                 	db	71	;'G'
   391   0006DE  52                 	db	82	;'R'
   392   0006DF  00                 	db	0
   393   0006E0  00                 	db	0	; dummy byte at the end
   394   000000                     
   395                           ; #config settings
   396                           
   397                           	psect	cinit
   398   0016D8                     __pcinit:
   399                           	callstack 0
   400   0016D8                     start_initialization:
   401                           	callstack 0
   402   0016D8                     __initialization:
   403                           	callstack 0
   404                           
   405                           ; Initialize objects allocated to COMRAM (17 bytes)
   406                           ; load TBLPTR registers with __pidataCOMRAM
   407   0016D8  0EF4               	movlw	low __pidataCOMRAM
   408   0016DA  6EF6               	movwf	tblptrl,c
   409   0016DC  0E17               	movlw	high __pidataCOMRAM
   410   0016DE  6EF7               	movwf	tblptrh,c
   411   0016E0  0E00               	movlw	low (__pidataCOMRAM shr (0+16))
   412   0016E2  6EF8               	movwf	tblptru,c
   413   0016E4  EE00  F03C         	lfsr	0,__pdataCOMRAM
   414   0016E8  EE10 F011          	lfsr	1,17
   415   0016EC                     copy_data0:
   416   0016EC  0009               	tblrd		*+
   417   0016EE  CFF5 FFEE          	movff	tablat,postinc0
   418   0016F2  50E5               	movf	postdec1,w,c
   419   0016F4  50E1               	movf	fsr1l,w,c
   420   0016F6  E1FA               	bnz	copy_data0
   421                           
   422                           ; Clear objects allocated to COMRAM (8 bytes)
   423   0016F8  EE00  F04D         	lfsr	0,__pbssCOMRAM
   424   0016FC  0E08               	movlw	8
   425   0016FE                     clear_0:
   426   0016FE  6AEE               	clrf	postinc0,c
   427   001700  06E8               	decf	wreg,f,c
   428   001702  E1FD               	bnz	clear_0
   429   001704                     end_of_initialization:
   430                           	callstack 0
   431   001704                     __end_of__initialization:
   432                           	callstack 0
   433   001704  9055               	bcf	int$flags,0,c	;clear compiler interrupt flag (level 1)
   434   001706  9255               	bcf	int$flags,1,c	;clear compiler interrupt flag (level 2)
   435   001708  0E00               	movlw	low (__Lsmallconst shr (0+16))
   436   00170A  6EF8               	movwf	tblptru,c
   437   00170C  0E06               	movlw	high __Lsmallconst
   438   00170E  6EF7               	movwf	tblptrh,c
   439   001710  0100               	movlb	0
   440   001712  EFA8  F00B         	goto	_main	;jump to C main() function
   441                           
   442                           	psect	bssCOMRAM
   443   00004D                     __pbssCOMRAM:
   444                           	callstack 0
   445   00004D                     _count:
   446                           	callstack 0
   447   00004D                     	ds	2
   448   00004F                     _speed:
   449                           	callstack 0
   450   00004F                     	ds	2
   451   000051                     _gear_index:
   452                           	callstack 0
   453   000051                     	ds	2
   454   000053                     _sec:
   455                           	callstack 0
   456   000053                     	ds	2
   457                           
   458                           	psect	dataCOMRAM
   459   00003C                     __pdataCOMRAM:
   460                           	callstack 0
   461   00003C                     _gear_data:
   462                           	callstack 0
   463   00003C                     	ds	16
   464   00004C                     read_switches@once:
   465                           	callstack 0
   466   00004C                     	ds	1
   467                           
   468                           	psect	cstackCOMRAM
   469   000001                     __pcstackCOMRAM:
   470                           	callstack 0
   471   000001                     ?_read_adc:
   472                           	callstack 0
   473   000001                     ?___lwdiv:
   474                           	callstack 0
   475   000001                     ?___lwmod:
   476                           	callstack 0
   477   000001                     read_switches@detection:
   478                           	callstack 0
   479   000001                     clcd_write@control_bit:
   480                           	callstack 0
   481   000001                     ___lwdiv@dividend:
   482                           	callstack 0
   483   000001                     ___lwmod@dividend:
   484                           	callstack 0
   485                           
   486                           ; 2 bytes @ 0x0
   487   000001                     	ds	1
   488   000002                     read_switches@key:
   489                           	callstack 0
   490   000002                     clcd_write@byte:
   491                           	callstack 0
   492                           
   493                           ; 1 bytes @ 0x1
   494   000002                     	ds	1
   495   000003                     ??_init_clcd:
   496   000003                     ??_read_adc:
   497   000003                     clcd_print@data:
   498                           	callstack 0
   499   000003                     ___lwdiv@divisor:
   500                           	callstack 0
   501   000003                     ___lwmod@divisor:
   502                           	callstack 0
   503                           
   504                           ; 2 bytes @ 0x2
   505   000003                     	ds	2
   506   000005                     clcd_print@addr:
   507                           	callstack 0
   508   000005                     ___lwmod@counter:
   509                           	callstack 0
   510   000005                     ___lwdiv@quotient:
   511                           	callstack 0
   512                           
   513                           ; 2 bytes @ 0x4
   514   000005                     	ds	1
   515   000006                     gear_monitor@key:
   516                           	callstack 0
   517                           
   518                           ; 1 bytes @ 0x5
   519   000006                     	ds	1
   520   000007                     ___lwdiv@counter:
   521                           	callstack 0
   522                           
   523                           ; 1 bytes @ 0x6
   524   000007                     	ds	1
   525   000008                     clcd_putch@addr:
   526                           	callstack 0
   527   000008                     read_adc@channel:
   528                           	callstack 0
   529                           
   530                           ; 1 bytes @ 0x7
   531   000008                     	ds	1
   532   000009                     ?___xxtofl:
   533                           	callstack 0
   534   000009                     clcd_putch@data:
   535                           	callstack 0
   536   000009                     ___xxtofl@val:
   537                           	callstack 0
   538                           
   539                           ; 4 bytes @ 0x8
   540   000009                     	ds	1
   541   00000A                     ??_read_password:
   542   00000A                     display_speed@speed:
   543                           	callstack 0
   544                           
   545                           ; 2 bytes @ 0x9
   546   00000A                     	ds	2
   547   00000C                     
   548                           ; 1 bytes @ 0xB
   549   00000C                     	ds	1
   550   00000D                     ??___xxtofl:
   551   00000D                     read_password@enter_password:
   552                           	callstack 0
   553                           
   554                           ; 5 bytes @ 0xC
   555   00000D                     	ds	4
   556   000011                     ___xxtofl@sign:
   557                           	callstack 0
   558                           
   559                           ; 1 bytes @ 0x10
   560   000011                     	ds	1
   561   000012                     ___xxtofl@exp:
   562                           	callstack 0
   563   000012                     read_password@count:
   564                           	callstack 0
   565                           
   566                           ; 2 bytes @ 0x11
   567   000012                     	ds	1
   568   000013                     ___xxtofl@arg:
   569                           	callstack 0
   570                           
   571                           ; 4 bytes @ 0x12
   572   000013                     	ds	1
   573   000014                     read_password@original_password:
   574                           	callstack 0
   575                           
   576                           ; 2 bytes @ 0x13
   577   000014                     	ds	2
   578   000016                     read_password@flag:
   579                           	callstack 0
   580                           
   581                           ; 2 bytes @ 0x15
   582   000016                     	ds	1
   583   000017                     ?___fldiv:
   584                           	callstack 0
   585   000017                     ___fldiv@b:
   586                           	callstack 0
   587                           
   588                           ; 4 bytes @ 0x16
   589   000017                     	ds	1
   590   000018                     read_password@pass_key:
   591                           	callstack 0
   592                           
   593                           ; 1 bytes @ 0x17
   594   000018                     	ds	1
   595   000019                     read_password@attempt:
   596                           	callstack 0
   597                           
   598                           ; 1 bytes @ 0x18
   599   000019                     	ds	1
   600   00001A                     read_password@wait:
   601                           	callstack 0
   602                           
   603                           ; 2 bytes @ 0x19
   604   00001A                     	ds	1
   605   00001B                     ___fldiv@a:
   606                           	callstack 0
   607                           
   608                           ; 4 bytes @ 0x1A
   609   00001B                     	ds	1
   610   00001C                     read_password@ind_compare:
   611                           	callstack 0
   612                           
   613                           ; 2 bytes @ 0x1B
   614   00001C                     	ds	2
   615   00001E                     read_password@ind:
   616                           	callstack 0
   617                           
   618                           ; 2 bytes @ 0x1D
   619   00001E                     	ds	1
   620   00001F                     ??___fldiv:
   621                           
   622                           ; 1 bytes @ 0x1E
   623   00001F                     	ds	1
   624   000020                     read_password@index:
   625                           	callstack 0
   626                           
   627                           ; 2 bytes @ 0x1F
   628   000020                     	ds	3
   629   000023                     ___fldiv@rem:
   630                           	callstack 0
   631                           
   632                           ; 4 bytes @ 0x22
   633   000023                     	ds	4
   634   000027                     ___fldiv@sign:
   635                           	callstack 0
   636                           
   637                           ; 1 bytes @ 0x26
   638   000027                     	ds	1
   639   000028                     ___fldiv@new_exp:
   640                           	callstack 0
   641                           
   642                           ; 2 bytes @ 0x27
   643   000028                     	ds	2
   644   00002A                     ___fldiv@grs:
   645                           	callstack 0
   646                           
   647                           ; 4 bytes @ 0x29
   648   00002A                     	ds	4
   649   00002E                     ___fldiv@bexp:
   650                           	callstack 0
   651                           
   652                           ; 1 bytes @ 0x2D
   653   00002E                     	ds	1
   654   00002F                     ___fldiv@aexp:
   655                           	callstack 0
   656                           
   657                           ; 1 bytes @ 0x2E
   658   00002F                     	ds	1
   659   000030                     ?___fltol:
   660                           	callstack 0
   661   000030                     ___fltol@f1:
   662                           	callstack 0
   663                           
   664                           ; 4 bytes @ 0x2F
   665   000030                     	ds	4
   666   000034                     ??___fltol:
   667                           
   668                           ; 1 bytes @ 0x33
   669   000034                     	ds	4
   670   000038                     ___fltol@sign1:
   671                           	callstack 0
   672                           
   673                           ; 1 bytes @ 0x37
   674   000038                     	ds	1
   675   000039                     ___fltol@exp1:
   676                           	callstack 0
   677                           
   678                           ; 1 bytes @ 0x38
   679   000039                     	ds	1
   680   00003A                     display_dashboard@key:
   681                           	callstack 0
   682                           
   683                           ; 1 bytes @ 0x39
   684   00003A                     	ds	1
   685   00003B                     main@key:
   686                           	callstack 0
   687                           
   688                           ; 1 bytes @ 0x3A
   689   00003B                     	ds	1
   690                           
   691 ;;
   692 ;;Main: autosize = 0, tempsize = 0, incstack = 0, save=0
   693 ;;
   694 ;; *************** function _main *****************
   695 ;; Defined at:
   696 ;;		line 20 in file "main.c"
   697 ;; Parameters:    Size  Location     Type
   698 ;;		None
   699 ;; Auto vars:     Size  Location     Type
   700 ;;  key             1   58[COMRAM] unsigned char 
   701 ;; Return value:  Size  Location     Type
   702 ;;                  1    wreg      void 
   703 ;; Registers used:
   704 ;;		wreg, fsr2l, fsr2h, status,2, status,0, tblptrl, tblptrh, tblptru, cstack
   705 ;; Tracked objects:
   706 ;;		On entry : 0/0
   707 ;;		On exit  : 0/0
   708 ;;		Unchanged: 0/0
   709 ;; Data sizes:     COMRAM   BANK0   BANK1   BANK2   BANK3   BANK4   BANK5
   710 ;;      Params:         0       0       0       0       0       0       0
   711 ;;      Locals:         1       0       0       0       0       0       0
   712 ;;      Temps:          0       0       0       0       0       0       0
   713 ;;      Totals:         1       0       0       0       0       0       0
   714 ;;Total ram usage:        1 bytes
   715 ;; Hardware stack levels required when called: 5
   716 ;; This function calls:
   717 ;;		_display_dashboard
   718 ;;		_init_config
   719 ;;		_read_password
   720 ;;		_read_switches
   721 ;; This function is called by:
   722 ;;		Startup code after reset
   723 ;; This function uses a non-reentrant model
   724 ;;
   725                           
   726                           	psect	text0
   727   001750                     __ptext0:
   728                           	callstack 0
   729   001750                     _main:
   730                           	callstack 26
   731   001750                     
   732                           ;main.c: 21:     init_config();
   733   001750  ECE8  F00B         	call	_init_config	;wreg free
   734   001754                     l22:
   735                           
   736                           ;main.c: 24:         key = read_switches(1);
   737   001754  0E01               	movlw	1
   738   001756  EC77  F00A         	call	_read_switches
   739   00175A  6E3B               	movwf	main@key^0,c
   740   00175C                     
   741                           ;main.c: 25:         if(key == 10)
   742   00175C  0E0A               	movlw	10
   743   00175E  183B               	xorwf	main@key^0,w,c
   744   001760  A4D8               	btfss	status,2,c
   745   001762  EFB5  F00B         	goto	u1901
   746   001766  EFB7  F00B         	goto	u1900
   747   00176A                     u1901:
   748   00176A  EFB9  F00B         	goto	l23
   749   00176E                     u1900:
   750   00176E                     
   751                           ;main.c: 26:         {;main.c: 27:             read_password();
   752   00176E  EC71  F003         	call	_read_password	;wreg free
   753   001772                     l23:
   754                           
   755                           ;main.c: 29:         display_dashboard(key);
   756   001772  503B               	movf	main@key^0,w,c
   757   001774  ECF4  F009         	call	_display_dashboard
   758   001778  EFAA  F00B         	goto	l22
   759   00177C  EF07  F000         	goto	start
   760   001780                     __end_of_main:
   761                           	callstack 0
   762                           
   763 ;; *************** function _read_password *****************
   764 ;; Defined at:
   765 ;;		line 52 in file "car_black_box.c"
   766 ;; Parameters:    Size  Location     Type
   767 ;;		None
   768 ;; Auto vars:     Size  Location     Type
   769 ;;  ind_compare     2   27[COMRAM] unsigned short 
   770 ;;  count           2   17[COMRAM] unsigned short 
   771 ;;  enter_passwo    5   12[COMRAM] unsigned char [5]
   772 ;;  index           2   31[COMRAM] unsigned short 
   773 ;;  ind             2   29[COMRAM] unsigned short 
   774 ;;  wait            2   25[COMRAM] unsigned short 
   775 ;;  flag            2   21[COMRAM] unsigned short 
   776 ;;  original_pas    2   19[COMRAM] PTR unsigned char 
   777 ;;		 -> STR_12(5), 
   778 ;;  attempt         1   24[COMRAM] unsigned char 
   779 ;;  pass_key        1   23[COMRAM] unsigned char 
   780 ;; Return value:  Size  Location     Type
   781 ;;                  1    wreg      void 
   782 ;; Registers used:
   783 ;;		wreg, fsr2l, fsr2h, status,2, status,0, tblptrl, tblptrh, tblptru, cstack
   784 ;; Tracked objects:
   785 ;;		On entry : 0/0
   786 ;;		On exit  : 0/0
   787 ;;		Unchanged: 0/0
   788 ;; Data sizes:     COMRAM   BANK0   BANK1   BANK2   BANK3   BANK4   BANK5
   789 ;;      Params:         0       0       0       0       0       0       0
   790 ;;      Locals:        21       0       0       0       0       0       0
   791 ;;      Temps:          3       0       0       0       0       0       0
   792 ;;      Totals:        24       0       0       0       0       0       0
   793 ;;Total ram usage:       24 bytes
   794 ;; Hardware stack levels used: 1
   795 ;; Hardware stack levels required when called: 3
   796 ;; This function calls:
   797 ;;		___lwdiv
   798 ;;		___lwmod
   799 ;;		_clcd_print
   800 ;;		_clcd_putch
   801 ;;		_read_switches
   802 ;; This function is called by:
   803 ;;		_main
   804 ;; This function uses a non-reentrant model
   805 ;;
   806                           
   807                           	psect	text1
   808   0006E2                     __ptext1:
   809                           	callstack 0
   810   0006E2                     _read_password:
   811                           	callstack 27
   812   0006E2                     
   813                           ;car_black_box.c: 53:     sec = 0;
   814   0006E2  0E00               	movlw	0
   815   0006E4  6E54               	movwf	(_sec+1)^0,c
   816   0006E6  0E00               	movlw	0
   817   0006E8  6E53               	movwf	_sec^0,c
   818                           
   819                           ;car_black_box.c: 54:     unsigned char pass_key, attempt = '3';
   820   0006EA  0E33               	movlw	51
   821   0006EC  6E19               	movwf	read_password@attempt^0,c
   822                           
   823                           ;car_black_box.c: 55:     unsigned short index = 0, wait = 0, ind, flag = 0;
   824   0006EE  0E00               	movlw	0
   825   0006F0  6E21               	movwf	(read_password@index+1)^0,c
   826   0006F2  0E00               	movlw	0
   827   0006F4  6E20               	movwf	read_password@index^0,c
   828   0006F6  0E00               	movlw	0
   829   0006F8  6E1B               	movwf	(read_password@wait+1)^0,c
   830   0006FA  0E00               	movlw	0
   831   0006FC  6E1A               	movwf	read_password@wait^0,c
   832   0006FE  0E00               	movlw	0
   833   000700  6E17               	movwf	(read_password@flag+1)^0,c
   834   000702  0E00               	movlw	0
   835   000704  6E16               	movwf	read_password@flag^0,c
   836   000706                     
   837                           ;car_black_box.c: 56:     unsigned char *original_password = "0011", enter_password[5];
   838   000706  0EC3               	movlw	low STR_12
   839   000708  6E14               	movwf	read_password@original_password^0,c
   840   00070A  0E06               	movlw	high STR_12
   841   00070C  6E15               	movwf	(read_password@original_password+1)^0,c
   842   00070E                     
   843                           ;car_black_box.c: 57:     enter_password[4] = '\0';
   844   00070E  0E00               	movlw	0
   845   000710  6E11               	movwf	(read_password@enter_password+4)^0,c
   846   000712                     
   847                           ;car_black_box.c: 59:     clcd_print("                ", (0xC0 + (0)));
   848   000712  0E01               	movlw	low STR_10
   849   000714  6E03               	movwf	clcd_print@data^0,c
   850   000716  0E06               	movlw	high STR_10
   851   000718  6E04               	movwf	(clcd_print@data+1)^0,c
   852   00071A  0EC0               	movlw	192
   853   00071C  6E05               	movwf	clcd_print@addr^0,c
   854   00071E  EC29  F00B         	call	_clcd_print	;wreg free
   855   000722                     l2086:
   856                           
   857                           ;car_black_box.c: 61:         if (flag == 0) {
   858   000722  5016               	movf	read_password@flag^0,w,c
   859   000724  1017               	iorwf	(read_password@flag+1)^0,w,c
   860   000726  A4D8               	btfss	status,2,c
   861   000728  EF98  F003         	goto	u1751
   862   00072C  EF9A  F003         	goto	u1750
   863   000730                     u1751:
   864   000730  EF3E  F005         	goto	l2182
   865   000734                     u1750:
   866   000734                     
   867                           ;car_black_box.c: 62:             pass_key = read_switches(1);
   868   000734  0E01               	movlw	1
   869   000736  EC77  F00A         	call	_read_switches
   870   00073A  6E18               	movwf	read_password@pass_key^0,c
   871   00073C                     
   872                           ;car_black_box.c: 63:             if (pass_key == 11) {
   873   00073C  0E0B               	movlw	11
   874   00073E  1818               	xorwf	read_password@pass_key^0,w,c
   875   000740  A4D8               	btfss	status,2,c
   876   000742  EFA5  F003         	goto	u1761
   877   000746  EFA7  F003         	goto	u1760
   878   00074A                     u1761:
   879   00074A  EFB7  F003         	goto	l2098
   880   00074E                     u1760:
   881   00074E                     
   882                           ;car_black_box.c: 64:                 enter_password[index] = '1';
   883   00074E  0E0D               	movlw	low read_password@enter_password
   884   000750  2420               	addwf	read_password@index^0,w,c
   885   000752  6ED9               	movwf	fsr2l,c
   886   000754  0E00               	movlw	high read_password@enter_password
   887   000756  2021               	addwfc	(read_password@index+1)^0,w,c
   888   000758  6EDA               	movwf	fsr2h,c
   889   00075A  0E31               	movlw	49
   890   00075C  6EDF               	movwf	indf2,c
   891   00075E                     l2094:
   892                           
   893                           ;car_black_box.c: 65:                 sec = 0;
   894   00075E  0E00               	movlw	0
   895   000760  6E54               	movwf	(_sec+1)^0,c
   896   000762  0E00               	movlw	0
   897   000764  6E53               	movwf	_sec^0,c
   898   000766                     
   899                           ;car_black_box.c: 66:                 index++;
   900   000766  4A20               	infsnz	read_password@index^0,f,c
   901   000768  2A21               	incf	(read_password@index+1)^0,f,c
   902                           
   903                           ;car_black_box.c: 67:             } else if (pass_key == 12) {
   904   00076A  EFCA  F003         	goto	l2106
   905   00076E                     l2098:
   906   00076E  0E0C               	movlw	12
   907   000770  1818               	xorwf	read_password@pass_key^0,w,c
   908   000772  A4D8               	btfss	status,2,c
   909   000774  EFBE  F003         	goto	u1771
   910   000778  EFC0  F003         	goto	u1770
   911   00077C                     u1771:
   912   00077C  EFCA  F003         	goto	l2106
   913   000780                     u1770:
   914   000780                     
   915                           ;car_black_box.c: 68:                 enter_password[index] = '0';
   916   000780  0E0D               	movlw	low read_password@enter_password
   917   000782  2420               	addwf	read_password@index^0,w,c
   918   000784  6ED9               	movwf	fsr2l,c
   919   000786  0E00               	movlw	high read_password@enter_password
   920   000788  2021               	addwfc	(read_password@index+1)^0,w,c
   921   00078A  6EDA               	movwf	fsr2h,c
   922   00078C  0E30               	movlw	48
   923   00078E  6EDF               	movwf	indf2,c
   924   000790  EFAF  F003         	goto	l2094
   925   000794                     l2106:
   926                           
   927                           ;car_black_box.c: 73:             if (sec == 5) {
   928   000794  0E05               	movlw	5
   929   000796  1853               	xorwf	_sec^0,w,c
   930   000798  1054               	iorwf	(_sec+1)^0,w,c
   931   00079A  A4D8               	btfss	status,2,c
   932   00079C  EFD2  F003         	goto	u1781
   933   0007A0  EFD4  F003         	goto	u1780
   934   0007A4                     u1781:
   935   0007A4  EFD6  F003         	goto	l2110
   936   0007A8                     u1780:
   937   0007A8  EF67  F005         	goto	l80
   938   0007AC                     l2110:
   939                           
   940                           ;car_black_box.c: 77:             for (ind = 0; ind < index; ind++) {
   941   0007AC  0E00               	movlw	0
   942   0007AE  6E1F               	movwf	(read_password@ind+1)^0,c
   943   0007B0  0E00               	movlw	0
   944   0007B2  6E1E               	movwf	read_password@ind^0,c
   945   0007B4  EFE4  F003         	goto	l2116
   946   0007B8                     l2112:
   947                           
   948                           ;car_black_box.c: 78:                 clcd_putch('*', (0xC0 + (ind + 3)));
   949   0007B8  501E               	movf	read_password@ind^0,w,c
   950   0007BA  0FC3               	addlw	195
   951   0007BC  6E08               	movwf	clcd_putch@addr^0,c
   952   0007BE  0E2A               	movlw	42
   953   0007C0  ECDC  F00B         	call	_clcd_putch
   954   0007C4                     
   955                           ;car_black_box.c: 79:             }
   956   0007C4  4A1E               	infsnz	read_password@ind^0,f,c
   957   0007C6  2A1F               	incf	(read_password@ind+1)^0,f,c
   958   0007C8                     l2116:
   959   0007C8  5020               	movf	read_password@index^0,w,c
   960   0007CA  5C1E               	subwf	read_password@ind^0,w,c
   961   0007CC  5021               	movf	(read_password@index+1)^0,w,c
   962   0007CE  581F               	subwfb	(read_password@ind+1)^0,w,c
   963   0007D0  A0D8               	btfss	status,0,c
   964   0007D2  EFED  F003         	goto	u1791
   965   0007D6  EFEF  F003         	goto	u1790
   966   0007DA                     u1791:
   967   0007DA  EFDC  F003         	goto	l2112
   968   0007DE                     u1790:
   969   0007DE                     
   970                           ;car_black_box.c: 81:             if (wait++ < 800) {
   971   0007DE  501A               	movf	read_password@wait^0,w,c
   972   0007E0  6E0A               	movwf	??_read_password^0,c
   973   0007E2  501B               	movf	(read_password@wait+1)^0,w,c
   974   0007E4  6E0B               	movwf	(??_read_password+1)^0,c
   975   0007E6  4A1A               	infsnz	read_password@wait^0,f,c
   976   0007E8  2A1B               	incf	(read_password@wait+1)^0,f,c
   977   0007EA  0E20               	movlw	32
   978   0007EC  5C0A               	subwf	??_read_password^0,w,c
   979   0007EE  0E03               	movlw	3
   980   0007F0  580B               	subwfb	(??_read_password+1)^0,w,c
   981   0007F2  B0D8               	btfsc	status,0,c
   982   0007F4  EFFE  F003         	goto	u1801
   983   0007F8  EF00  F004         	goto	u1800
   984   0007FC                     u1801:
   985   0007FC  EF08  F004         	goto	l2122
   986   000800                     u1800:
   987   000800                     
   988                           ;car_black_box.c: 82:                 clcd_putch('_', (0xC0 + (ind + 3)));
   989   000800  501E               	movf	read_password@ind^0,w,c
   990   000802  0FC3               	addlw	195
   991   000804  6E08               	movwf	clcd_putch@addr^0,c
   992   000806  0E5F               	movlw	95
   993   000808  ECDC  F00B         	call	_clcd_putch
   994                           
   995                           ;car_black_box.c: 83:             } else if (wait > 800) {
   996   00080C  EF29  F004         	goto	l2130
   997   000810                     l2122:
   998   000810  0E21               	movlw	33
   999   000812  5C1A               	subwf	read_password@wait^0,w,c
  1000   000814  0E03               	movlw	3
  1001   000816  581B               	subwfb	(read_password@wait+1)^0,w,c
  1002   000818  A0D8               	btfss	status,0,c
  1003   00081A  EF11  F004         	goto	u1811
  1004   00081E  EF13  F004         	goto	u1810
  1005   000822                     u1811:
  1006   000822  EF29  F004         	goto	l2130
  1007   000826                     u1810:
  1008   000826                     
  1009                           ;car_black_box.c: 84:                 clcd_putch(' ', (0xC0 + (ind + 3)));
  1010   000826  501E               	movf	read_password@ind^0,w,c
  1011   000828  0FC3               	addlw	195
  1012   00082A  6E08               	movwf	clcd_putch@addr^0,c
  1013   00082C  0E20               	movlw	32
  1014   00082E  ECDC  F00B         	call	_clcd_putch
  1015   000832                     
  1016                           ;car_black_box.c: 85:                 if (wait == 1600)
  1017   000832  0E40               	movlw	64
  1018   000834  181A               	xorwf	read_password@wait^0,w,c
  1019   000836  E107               	bnz	u1821
  1020   000838  0E06               	movlw	6
  1021   00083A  181B               	xorwf	(read_password@wait+1)^0,w,c
  1022   00083C  A4D8               	btfss	status,2,c
  1023   00083E  EF23  F004         	goto	u1821
  1024   000842  EF25  F004         	goto	u1820
  1025   000846                     u1821:
  1026   000846  EF29  F004         	goto	l2130
  1027   00084A                     u1820:
  1028   00084A                     
  1029                           ;car_black_box.c: 86:                     wait = 0;
  1030   00084A  0E00               	movlw	0
  1031   00084C  6E1B               	movwf	(read_password@wait+1)^0,c
  1032   00084E  0E00               	movlw	0
  1033   000850  6E1A               	movwf	read_password@wait^0,c
  1034   000852                     l2130:
  1035                           
  1036                           ;car_black_box.c: 89:             clcd_print(" Enter password", (0x80 + (0)));
  1037   000852  0E99               	movlw	low STR_14
  1038   000854  6E03               	movwf	clcd_print@data^0,c
  1039   000856  0E06               	movlw	high STR_14
  1040   000858  6E04               	movwf	(clcd_print@data+1)^0,c
  1041   00085A  0E80               	movlw	128
  1042   00085C  6E05               	movwf	clcd_print@addr^0,c
  1043   00085E  EC29  F00B         	call	_clcd_print	;wreg free
  1044   000862                     
  1045                           ;car_black_box.c: 90:             if (index == 4) {
  1046   000862  0E04               	movlw	4
  1047   000864  1820               	xorwf	read_password@index^0,w,c
  1048   000866  1021               	iorwf	(read_password@index+1)^0,w,c
  1049   000868  A4D8               	btfss	status,2,c
  1050   00086A  EF39  F004         	goto	u1831
  1051   00086E  EF3B  F004         	goto	u1830
  1052   000872                     u1831:
  1053   000872  EF91  F003         	goto	l2086
  1054   000876                     u1830:
  1055   000876                     
  1056                           ;car_black_box.c: 91:                 _delay((unsigned long)((600)*(20000000/4000.0)));
  1057   000876  0E10               	movlw	16
  1058   000878  6E0B               	movwf	(??_read_password+1)^0,c
  1059   00087A  0E39               	movlw	57
  1060   00087C  6E0A               	movwf	??_read_password^0,c
  1061   00087E  0E0E               	movlw	14
  1062   000880                     u1937:
  1063   000880  2EE8               	decfsz	wreg,f,c
  1064   000882  D7FE               	bra	u1937
  1065   000884  2E0A               	decfsz	??_read_password^0,f,c
  1066   000886  D7FC               	bra	u1937
  1067   000888  2E0B               	decfsz	(??_read_password+1)^0,f,c
  1068   00088A  D7FA               	bra	u1937
  1069   00088C                     
  1070                           ;car_black_box.c: 92:                 attempt--;
  1071   00088C  0619               	decf	read_password@attempt^0,f,c
  1072   00088E                     
  1073                           ;car_black_box.c: 93:                 unsigned short ind_compare = 0, count = 0;
  1074   00088E  0E00               	movlw	0
  1075   000890  6E1D               	movwf	(read_password@ind_compare+1)^0,c
  1076   000892  0E00               	movlw	0
  1077   000894  6E1C               	movwf	read_password@ind_compare^0,c
  1078   000896  0E00               	movlw	0
  1079   000898  6E13               	movwf	(read_password@count+1)^0,c
  1080   00089A  0E00               	movlw	0
  1081   00089C  6E12               	movwf	read_password@count^0,c
  1082                           
  1083                           ;car_black_box.c: 94:                 while (original_password[ind_compare]) {
  1084   00089E  EFAC  F004         	goto	l2160
  1085   0008A2                     l2142:
  1086                           
  1087                           ;car_black_box.c: 95:                     if (original_password[ind_compare] != enter_pa
      +                          ssword[ind_compare]) {
  1088   0008A2  0E0D               	movlw	low read_password@enter_password
  1089   0008A4  241C               	addwf	read_password@ind_compare^0,w,c
  1090   0008A6  6ED9               	movwf	fsr2l,c
  1091   0008A8  0E00               	movlw	high read_password@enter_password
  1092   0008AA  201D               	addwfc	(read_password@ind_compare+1)^0,w,c
  1093   0008AC  6EDA               	movwf	fsr2h,c
  1094   0008AE  501C               	movf	read_password@ind_compare^0,w,c
  1095   0008B0  2414               	addwf	read_password@original_password^0,w,c
  1096   0008B2  6E0B               	movwf	(??_read_password+1)^0,c
  1097   0008B4  501D               	movf	(read_password@ind_compare+1)^0,w,c
  1098   0008B6  2015               	addwfc	(read_password@original_password+1)^0,w,c
  1099   0008B8  6E0C               	movwf	(??_read_password+2)^0,c
  1100   0008BA  C00B  FFF6         	movff	??_read_password+1,tblptrl
  1101   0008BE  C00C  FFF7         	movff	??_read_password+2,tblptrh
  1102   0008C2                     	if	0	;tblptru may be non-zero
  1103   0008C2                     	endif
  1104   0008C2                     	if	0	;tblptru may be non-zero
  1105   0008C2                     	endif
  1106   0008C2  50DE               	movf	postinc2,w,c
  1107   0008C4  0009               	tblrd		*+
  1108   0008C6  18F5               	xorwf	tablat,w,c
  1109   0008C8  B4D8               	btfsc	status,2,c
  1110   0008CA  EF69  F004         	goto	u1841
  1111   0008CE  EF6B  F004         	goto	u1840
  1112   0008D2                     u1841:
  1113   0008D2  EFAA  F004         	goto	l2158
  1114   0008D6                     u1840:
  1115   0008D6                     
  1116                           ;car_black_box.c: 96:                         index = 0;
  1117   0008D6  0E00               	movlw	0
  1118   0008D8  6E21               	movwf	(read_password@index+1)^0,c
  1119   0008DA  0E00               	movlw	0
  1120   0008DC  6E20               	movwf	read_password@index^0,c
  1121                           
  1122                           ;car_black_box.c: 97:                         count = 1;
  1123   0008DE  0E00               	movlw	0
  1124   0008E0  6E13               	movwf	(read_password@count+1)^0,c
  1125   0008E2  0E01               	movlw	1
  1126   0008E4  6E12               	movwf	read_password@count^0,c
  1127   0008E6                     
  1128                           ;car_black_box.c: 98:                         _delay((unsigned long)((500)*(20000000/400
      +                          0.0)));
  1129   0008E6  0E0D               	movlw	13
  1130   0008E8  6E0B               	movwf	(??_read_password+1)^0,c
  1131   0008EA  0EAF               	movlw	175
  1132   0008EC  6E0A               	movwf	??_read_password^0,c
  1133   0008EE  0EB6               	movlw	182
  1134   0008F0                     u1947:
  1135   0008F0  2EE8               	decfsz	wreg,f,c
  1136   0008F2  D7FE               	bra	u1947
  1137   0008F4  2E0A               	decfsz	??_read_password^0,f,c
  1138   0008F6  D7FC               	bra	u1947
  1139   0008F8  2E0B               	decfsz	(??_read_password+1)^0,f,c
  1140   0008FA  D7FA               	bra	u1947
  1141   0008FC  D000               	nop2	
  1142   0008FE                     
  1143                           ;car_black_box.c: 99:                         clcd_print(" Wrong Password", (0x80 + (0))
      +                          );
  1144   0008FE  0E89               	movlw	low STR_15
  1145   000900  6E03               	movwf	clcd_print@data^0,c
  1146   000902  0E06               	movlw	high STR_15
  1147   000904  6E04               	movwf	(clcd_print@data+1)^0,c
  1148   000906  0E80               	movlw	128
  1149   000908  6E05               	movwf	clcd_print@addr^0,c
  1150   00090A  EC29  F00B         	call	_clcd_print	;wreg free
  1151   00090E                     
  1152                           ;car_black_box.c: 100:                         clcd_putch(attempt, (0xC0 + (0)));
  1153   00090E  0EC0               	movlw	192
  1154   000910  6E08               	movwf	clcd_putch@addr^0,c
  1155   000912  5019               	movf	read_password@attempt^0,w,c
  1156   000914  ECDC  F00B         	call	_clcd_putch
  1157   000918                     
  1158                           ;car_black_box.c: 101:                         clcd_print("-Attempt Remain", (0xC0 + (1)
      +                          ));
  1159   000918  0EA9               	movlw	low STR_16
  1160   00091A  6E03               	movwf	clcd_print@data^0,c
  1161   00091C  0E06               	movlw	high STR_16
  1162   00091E  6E04               	movwf	(clcd_print@data+1)^0,c
  1163   000920  0EC1               	movlw	193
  1164   000922  6E05               	movwf	clcd_print@addr^0,c
  1165   000924  EC29  F00B         	call	_clcd_print	;wreg free
  1166   000928                     
  1167                           ;car_black_box.c: 102:                         _delay((unsigned long)((500)*(20000000/40
      +                          00.0)));
  1168   000928  0E0D               	movlw	13
  1169   00092A  6E0B               	movwf	(??_read_password+1)^0,c
  1170   00092C  0EAF               	movlw	175
  1171   00092E  6E0A               	movwf	??_read_password^0,c
  1172   000930  0EB6               	movlw	182
  1173   000932                     u1957:
  1174   000932  2EE8               	decfsz	wreg,f,c
  1175   000934  D7FE               	bra	u1957
  1176   000936  2E0A               	decfsz	??_read_password^0,f,c
  1177   000938  D7FC               	bra	u1957
  1178   00093A  2E0B               	decfsz	(??_read_password+1)^0,f,c
  1179   00093C  D7FA               	bra	u1957
  1180   00093E  D000               	nop2	
  1181   000940                     
  1182                           ;car_black_box.c: 103:                         clcd_print("                ", (0xC0 + (0
      +                          )));
  1183   000940  0E01               	movlw	low STR_10
  1184   000942  6E03               	movwf	clcd_print@data^0,c
  1185   000944  0E06               	movlw	high STR_10
  1186   000946  6E04               	movwf	(clcd_print@data+1)^0,c
  1187   000948  0EC0               	movlw	192
  1188   00094A  6E05               	movwf	clcd_print@addr^0,c
  1189   00094C  EC29  F00B         	call	_clcd_print	;wreg free
  1190                           
  1191                           ;car_black_box.c: 104:                         break;
  1192   000950  EFC0  F004         	goto	l2162
  1193   000954                     l2158:
  1194                           
  1195                           ;car_black_box.c: 106:                     ind_compare++;
  1196   000954  4A1C               	infsnz	read_password@ind_compare^0,f,c
  1197   000956  2A1D               	incf	(read_password@ind_compare+1)^0,f,c
  1198   000958                     l2160:
  1199                           
  1200                           ;car_black_box.c: 94:                 while (original_password[ind_compare]) {
  1201   000958  501C               	movf	read_password@ind_compare^0,w,c
  1202   00095A  2414               	addwf	read_password@original_password^0,w,c
  1203   00095C  6E0A               	movwf	??_read_password^0,c
  1204   00095E  501D               	movf	(read_password@ind_compare+1)^0,w,c
  1205   000960  2015               	addwfc	(read_password@original_password+1)^0,w,c
  1206   000962  6E0B               	movwf	(??_read_password+1)^0,c
  1207   000964  C00A  FFF6         	movff	??_read_password,tblptrl
  1208   000968  C00B  FFF7         	movff	??_read_password+1,tblptrh
  1209   00096C                     	if	0	;tblptru may be non-zero
  1210   00096C                     	endif
  1211   00096C                     	if	0	;tblptru may be non-zero
  1212   00096C                     	endif
  1213   00096C  0008               	tblrd		*
  1214   00096E  50F5               	movf	tablat,w,c
  1215   000970  0900               	iorlw	0
  1216   000972  A4D8               	btfss	status,2,c
  1217   000974  EFBE  F004         	goto	u1851
  1218   000978  EFC0  F004         	goto	u1850
  1219   00097C                     u1851:
  1220   00097C  EF51  F004         	goto	l2142
  1221   000980                     u1850:
  1222   000980                     l2162:
  1223                           
  1224                           ;car_black_box.c: 108:                 if (count == 0) {
  1225   000980  5012               	movf	read_password@count^0,w,c
  1226   000982  1013               	iorwf	(read_password@count+1)^0,w,c
  1227   000984  A4D8               	btfss	status,2,c
  1228   000986  EFC7  F004         	goto	u1861
  1229   00098A  EFC9  F004         	goto	u1860
  1230   00098E                     u1861:
  1231   00098E  EFEB  F004         	goto	l2172
  1232   000992                     u1860:
  1233   000992                     
  1234                           ;car_black_box.c: 109:                     flag = 1;
  1235   000992  0E00               	movlw	0
  1236   000994  6E17               	movwf	(read_password@flag+1)^0,c
  1237   000996  0E01               	movlw	1
  1238   000998  6E16               	movwf	read_password@flag^0,c
  1239   00099A                     
  1240                           ;car_black_box.c: 110:                     _delay((unsigned long)((500)*(20000000/4000.0
      +                          )));
  1241   00099A  0E0D               	movlw	13
  1242   00099C  6E0B               	movwf	(??_read_password+1)^0,c
  1243   00099E  0EAF               	movlw	175
  1244   0009A0  6E0A               	movwf	??_read_password^0,c
  1245   0009A2  0EB6               	movlw	182
  1246   0009A4                     u1967:
  1247   0009A4  2EE8               	decfsz	wreg,f,c
  1248   0009A6  D7FE               	bra	u1967
  1249   0009A8  2E0A               	decfsz	??_read_password^0,f,c
  1250   0009AA  D7FC               	bra	u1967
  1251   0009AC  2E0B               	decfsz	(??_read_password+1)^0,f,c
  1252   0009AE  D7FA               	bra	u1967
  1253   0009B0  D000               	nop2	
  1254   0009B2                     
  1255                           ;car_black_box.c: 111:                     clcd_print("Correct Password", (0x80 + (0)));
  1256   0009B2  0E78               	movlw	low STR_18
  1257   0009B4  6E03               	movwf	clcd_print@data^0,c
  1258   0009B6  0E06               	movlw	high STR_18
  1259   0009B8  6E04               	movwf	(clcd_print@data+1)^0,c
  1260   0009BA  0E80               	movlw	128
  1261   0009BC  6E05               	movwf	clcd_print@addr^0,c
  1262   0009BE  EC29  F00B         	call	_clcd_print	;wreg free
  1263   0009C2                     
  1264                           ;car_black_box.c: 112:                     clcd_print("   Menu Page    ", (0xC0 + (0)));
  1265   0009C2  0E12               	movlw	low STR_19
  1266   0009C4  6E03               	movwf	clcd_print@data^0,c
  1267   0009C6  0E06               	movlw	high STR_19
  1268   0009C8  6E04               	movwf	(clcd_print@data+1)^0,c
  1269   0009CA  0EC0               	movlw	192
  1270   0009CC  6E05               	movwf	clcd_print@addr^0,c
  1271   0009CE  EC29  F00B         	call	_clcd_print	;wreg free
  1272                           
  1273                           ;car_black_box.c: 113:                 } else if (attempt == '0') {
  1274   0009D2  EF91  F003         	goto	l2086
  1275   0009D6                     l2172:
  1276   0009D6  0E30               	movlw	48
  1277   0009D8  1819               	xorwf	read_password@attempt^0,w,c
  1278   0009DA  A4D8               	btfss	status,2,c
  1279   0009DC  EFF2  F004         	goto	u1871
  1280   0009E0  EFF4  F004         	goto	u1870
  1281   0009E4                     u1871:
  1282   0009E4  EF65  F005         	goto	l99
  1283   0009E8                     u1870:
  1284   0009E8                     
  1285                           ;car_black_box.c: 114:                     clcd_print("  Attempt Over  ", (0x80 + (0)));
  1286   0009E8  0E45               	movlw	low STR_20
  1287   0009EA  6E03               	movwf	clcd_print@data^0,c
  1288   0009EC  0E06               	movlw	high STR_20
  1289   0009EE  6E04               	movwf	(clcd_print@data+1)^0,c
  1290   0009F0  0E80               	movlw	128
  1291   0009F2  6E05               	movwf	clcd_print@addr^0,c
  1292   0009F4  EC29  F00B         	call	_clcd_print	;wreg free
  1293                           
  1294                           ;car_black_box.c: 115:                     clcd_print(" Wait For    Sec", (0xC0 + (0)));
  1295   0009F8  0E67               	movlw	low STR_21
  1296   0009FA  6E03               	movwf	clcd_print@data^0,c
  1297   0009FC  0E06               	movlw	high STR_21
  1298   0009FE  6E04               	movwf	(clcd_print@data+1)^0,c
  1299   000A00  0EC0               	movlw	192
  1300   000A02  6E05               	movwf	clcd_print@addr^0,c
  1301   000A04  EC29  F00B         	call	_clcd_print	;wreg free
  1302   000A08                     
  1303                           ;car_black_box.c: 116:                     sec = 0;
  1304   000A08  0E00               	movlw	0
  1305   000A0A  6E54               	movwf	(_sec+1)^0,c
  1306   000A0C  0E00               	movlw	0
  1307   000A0E  6E53               	movwf	_sec^0,c
  1308                           
  1309                           ;car_black_box.c: 117:                     while (sec != 60) {
  1310   000A10  EF32  F005         	goto	l2180
  1311   000A14                     l2178:
  1312                           
  1313                           ;car_black_box.c: 118:                         clcd_putch((59 - sec) / 10 + 48, (0xC0 + 
      +                          (10)));
  1314   000A14  0ECA               	movlw	202
  1315   000A16  6E08               	movwf	clcd_putch@addr^0,c
  1316   000A18  5053               	movf	_sec^0,w,c
  1317   000A1A  083B               	sublw	59
  1318   000A1C  6E01               	movwf	___lwdiv@dividend^0,c
  1319   000A1E  5054               	movf	(_sec+1)^0,w,c
  1320   000A20  A0D8               	btfss	status,0,c
  1321   000A22  2AE8               	incf	wreg,f,c
  1322   000A24  0800               	sublw	0
  1323   000A26  6E02               	movwf	(___lwdiv@dividend+1)^0,c
  1324   000A28  0E00               	movlw	0
  1325   000A2A  6E04               	movwf	(___lwdiv@divisor+1)^0,c
  1326   000A2C  0E0A               	movlw	10
  1327   000A2E  6E03               	movwf	___lwdiv@divisor^0,c
  1328   000A30  EC3D  F00A         	call	___lwdiv	;wreg free
  1329   000A34  5001               	movf	?___lwdiv^0,w,c
  1330   000A36  0F30               	addlw	48
  1331   000A38  ECDC  F00B         	call	_clcd_putch
  1332                           
  1333                           ;car_black_box.c: 119:                         clcd_putch(((59 - sec) % 10) + 48, (0xC0 
      +                          + (11)));
  1334   000A3C  0ECB               	movlw	203
  1335   000A3E  6E08               	movwf	clcd_putch@addr^0,c
  1336   000A40  5053               	movf	_sec^0,w,c
  1337   000A42  083B               	sublw	59
  1338   000A44  6E01               	movwf	___lwmod@dividend^0,c
  1339   000A46  5054               	movf	(_sec+1)^0,w,c
  1340   000A48  A0D8               	btfss	status,0,c
  1341   000A4A  2AE8               	incf	wreg,f,c
  1342   000A4C  0800               	sublw	0
  1343   000A4E  6E02               	movwf	(___lwmod@dividend+1)^0,c
  1344   000A50  0E00               	movlw	0
  1345   000A52  6E04               	movwf	(___lwmod@divisor+1)^0,c
  1346   000A54  0E0A               	movlw	10
  1347   000A56  6E03               	movwf	___lwmod@divisor^0,c
  1348   000A58  ECB0  F00A         	call	___lwmod	;wreg free
  1349   000A5C  5001               	movf	?___lwmod^0,w,c
  1350   000A5E  0F30               	addlw	48
  1351   000A60  ECDC  F00B         	call	_clcd_putch
  1352   000A64                     l2180:
  1353                           
  1354                           ;car_black_box.c: 117:                     while (sec != 60) {
  1355   000A64  0E3C               	movlw	60
  1356   000A66  1853               	xorwf	_sec^0,w,c
  1357   000A68  1054               	iorwf	(_sec+1)^0,w,c
  1358   000A6A  A4D8               	btfss	status,2,c
  1359   000A6C  EF3A  F005         	goto	u1881
  1360   000A70  EF3C  F005         	goto	u1880
  1361   000A74                     u1881:
  1362   000A74  EF0A  F005         	goto	l2178
  1363   000A78                     u1880:
  1364   000A78  EF67  F005         	goto	l80
  1365   000A7C                     l2182:
  1366   000A7C  0416               	decf	read_password@flag^0,w,c
  1367   000A7E  1017               	iorwf	(read_password@flag+1)^0,w,c
  1368   000A80  A4D8               	btfss	status,2,c
  1369   000A82  EF45  F005         	goto	u1891
  1370   000A86  EF47  F005         	goto	u1890
  1371   000A8A                     u1891:
  1372   000A8A  EF91  F003         	goto	l2086
  1373   000A8E                     u1890:
  1374   000A8E                     
  1375                           ;car_black_box.c: 125:             _delay((unsigned long)((1000)*(20000000/4000.0)));
  1376   000A8E  0E1A               	movlw	26
  1377   000A90  6E0B               	movwf	(??_read_password+1)^0,c
  1378   000A92  0E5E               	movlw	94
  1379   000A94  6E0A               	movwf	??_read_password^0,c
  1380   000A96  0E6E               	movlw	110
  1381   000A98                     u1977:
  1382   000A98  2EE8               	decfsz	wreg,f,c
  1383   000A9A  D7FE               	bra	u1977
  1384   000A9C  2E0A               	decfsz	??_read_password^0,f,c
  1385   000A9E  D7FC               	bra	u1977
  1386   000AA0  2E0B               	decfsz	(??_read_password+1)^0,f,c
  1387   000AA2  D7FA               	bra	u1977
  1388   000AA4  D000               	nop2	
  1389   000AA6                     
  1390                           ;car_black_box.c: 126:             clcd_print("    View Log    ", (0x80 + (0)));
  1391   000AA6  0E23               	movlw	low STR_22
  1392   000AA8  6E03               	movwf	clcd_print@data^0,c
  1393   000AAA  0E06               	movlw	high STR_22
  1394   000AAC  6E04               	movwf	(clcd_print@data+1)^0,c
  1395   000AAE  0E80               	movlw	128
  1396   000AB0  6E05               	movwf	clcd_print@addr^0,c
  1397   000AB2  EC29  F00B         	call	_clcd_print	;wreg free
  1398   000AB6                     
  1399                           ;car_black_box.c: 127:             clcd_print("    Clear Log   ", (0xC0 + (0)));
  1400   000AB6  0E34               	movlw	low STR_23
  1401   000AB8  6E03               	movwf	clcd_print@data^0,c
  1402   000ABA  0E06               	movlw	high STR_23
  1403   000ABC  6E04               	movwf	(clcd_print@data+1)^0,c
  1404   000ABE  0EC0               	movlw	192
  1405   000AC0  6E05               	movwf	clcd_print@addr^0,c
  1406   000AC2  EC29  F00B         	call	_clcd_print	;wreg free
  1407   000AC6  EF91  F003         	goto	l2086
  1408   000ACA                     l99:
  1409   000ACA  EF91  F003         	goto	l2086
  1410   000ACE                     l80:
  1411   000ACE  0012               	return		;funcret
  1412   000AD0                     __end_of_read_password:
  1413                           	callstack 0
  1414                           
  1415 ;; *************** function _read_switches *****************
  1416 ;; Defined at:
  1417 ;;		line 18 in file "mkp.c"
  1418 ;; Parameters:    Size  Location     Type
  1419 ;;  detection       1    wreg     unsigned char 
  1420 ;; Auto vars:     Size  Location     Type
  1421 ;;  detection       1    0[COMRAM] unsigned char 
  1422 ;;  key             1    1[COMRAM] unsigned char 
  1423 ;; Return value:  Size  Location     Type
  1424 ;;                  1    wreg      unsigned char 
  1425 ;; Registers used:
  1426 ;;		wreg, status,2, status,0, cstack
  1427 ;; Tracked objects:
  1428 ;;		On entry : 0/0
  1429 ;;		On exit  : 0/0
  1430 ;;		Unchanged: 0/0
  1431 ;; Data sizes:     COMRAM   BANK0   BANK1   BANK2   BANK3   BANK4   BANK5
  1432 ;;      Params:         0       0       0       0       0       0       0
  1433 ;;      Locals:         2       0       0       0       0       0       0
  1434 ;;      Temps:          0       0       0       0       0       0       0
  1435 ;;      Totals:         2       0       0       0       0       0       0
  1436 ;;Total ram usage:        2 bytes
  1437 ;; Hardware stack levels used: 1
  1438 ;; Hardware stack levels required when called: 2
  1439 ;; This function calls:
  1440 ;;		_scan_key
  1441 ;; This function is called by:
  1442 ;;		_main
  1443 ;;		_read_password
  1444 ;; This function uses a non-reentrant model
  1445 ;;
  1446                           
  1447                           	psect	text2
  1448   0014EE                     __ptext2:
  1449                           	callstack 0
  1450   0014EE                     _read_switches:
  1451                           	callstack 28
  1452                           
  1453                           ;incstack = 0
  1454                           ;read_switches@detection stored from wreg
  1455   0014EE  6E01               	movwf	read_switches@detection^0,c
  1456   0014F0                     
  1457                           ;mkp.c: 19:     static unsigned char once = 1;;mkp.c: 20:     unsigned char key;;mkp.c: 
      +                          21:     if (detection == 0) {
  1458   0014F0  5001               	movf	read_switches@detection^0,w,c
  1459   0014F2  A4D8               	btfss	status,2,c
  1460   0014F4  EF7E  F00A         	goto	u1191
  1461   0014F8  EF80  F00A         	goto	u1190
  1462   0014FC                     u1191:
  1463   0014FC  EF84  F00A         	goto	l1778
  1464   001500                     u1190:
  1465   001500                     
  1466                           ;mkp.c: 22:         return scan_key();
  1467   001500  EC95  F008         	call	_scan_key	;wreg free
  1468   001504  EFAF  F00A         	goto	l131
  1469   001508                     l1778:
  1470   001508  0401               	decf	read_switches@detection^0,w,c
  1471   00150A  A4D8               	btfss	status,2,c
  1472   00150C  EF8A  F00A         	goto	u1201
  1473   001510  EF8C  F00A         	goto	u1200
  1474   001514                     u1201:
  1475   001514  EFAF  F00A         	goto	l131
  1476   001518                     u1200:
  1477   001518                     
  1478                           ;mkp.c: 24:         key = scan_key();
  1479   001518  EC95  F008         	call	_scan_key	;wreg free
  1480   00151C  6E02               	movwf	read_switches@key^0,c
  1481   00151E                     
  1482                           ;mkp.c: 25:         if ((key != 0xFF) && once) {
  1483   00151E  2802               	incf	read_switches@key^0,w,c
  1484   001520  B4D8               	btfsc	status,2,c
  1485   001522  EF95  F00A         	goto	u1211
  1486   001526  EF97  F00A         	goto	u1210
  1487   00152A                     u1211:
  1488   00152A  EFA4  F00A         	goto	l1792
  1489   00152E                     u1210:
  1490   00152E  504C               	movf	read_switches@once^0,w,c
  1491   001530  B4D8               	btfsc	status,2,c
  1492   001532  EF9D  F00A         	goto	u1221
  1493   001536  EF9F  F00A         	goto	u1220
  1494   00153A                     u1221:
  1495   00153A  EFA4  F00A         	goto	l1792
  1496   00153E                     u1220:
  1497   00153E                     
  1498                           ;mkp.c: 26:             once = 0;
  1499   00153E  0E00               	movlw	0
  1500   001540  6E4C               	movwf	read_switches@once^0,c
  1501                           
  1502                           ;mkp.c: 27:             return key;
  1503   001542  5002               	movf	read_switches@key^0,w,c
  1504   001544  EFAF  F00A         	goto	l131
  1505   001548                     l1792:
  1506   001548  2802               	incf	read_switches@key^0,w,c
  1507   00154A  A4D8               	btfss	status,2,c
  1508   00154C  EFAA  F00A         	goto	u1231
  1509   001550  EFAC  F00A         	goto	u1230
  1510   001554                     u1231:
  1511   001554  EFAE  F00A         	goto	l1796
  1512   001558                     u1230:
  1513   001558                     
  1514                           ;mkp.c: 29:             once = 1;
  1515   001558  0E01               	movlw	1
  1516   00155A  6E4C               	movwf	read_switches@once^0,c
  1517   00155C                     l1796:
  1518                           
  1519                           ;mkp.c: 30:         return 0xFF;
  1520   00155C  0EFF               	movlw	255
  1521   00155E                     l131:
  1522   00155E  0012               	return		;funcret
  1523   001560                     __end_of_read_switches:
  1524                           	callstack 0
  1525                           
  1526 ;; *************** function _scan_key *****************
  1527 ;; Defined at:
  1528 ;;		line 34 in file "mkp.c"
  1529 ;; Parameters:    Size  Location     Type
  1530 ;;		None
  1531 ;; Auto vars:     Size  Location     Type
  1532 ;;		None
  1533 ;; Return value:  Size  Location     Type
  1534 ;;                  1    wreg      unsigned char 
  1535 ;; Registers used:
  1536 ;;		wreg
  1537 ;; Tracked objects:
  1538 ;;		On entry : 0/0
  1539 ;;		On exit  : 0/0
  1540 ;;		Unchanged: 0/0
  1541 ;; Data sizes:     COMRAM   BANK0   BANK1   BANK2   BANK3   BANK4   BANK5
  1542 ;;      Params:         0       0       0       0       0       0       0
  1543 ;;      Locals:         0       0       0       0       0       0       0
  1544 ;;      Temps:          0       0       0       0       0       0       0
  1545 ;;      Totals:         0       0       0       0       0       0       0
  1546 ;;Total ram usage:        0 bytes
  1547 ;; Hardware stack levels used: 1
  1548 ;; Hardware stack levels required when called: 1
  1549 ;; This function calls:
  1550 ;;		Nothing
  1551 ;; This function is called by:
  1552 ;;		_read_switches
  1553 ;; This function uses a non-reentrant model
  1554 ;;
  1555                           
  1556                           	psect	text3
  1557   00112A                     __ptext3:
  1558                           	callstack 0
  1559   00112A                     _scan_key:
  1560                           	callstack 28
  1561   00112A                     
  1562                           ;mkp.c: 35:     RB5 = 0;
  1563   00112A  9A81               	bcf	3969,5,c	;volatile
  1564                           
  1565                           ;mkp.c: 36:     RB6 = 1;
  1566   00112C  8C81               	bsf	3969,6,c	;volatile
  1567                           
  1568                           ;mkp.c: 37:     RB7 = 1;
  1569   00112E  8E81               	bsf	3969,7,c	;volatile
  1570                           
  1571                           ;mkp.c: 39:     if (RB1 == 0)
  1572   001130  B281               	btfsc	3969,1,c	;volatile
  1573   001132  EF9D  F008         	goto	u1011
  1574   001136  EF9F  F008         	goto	u1010
  1575   00113A                     u1011:
  1576   00113A  EFA2  F008         	goto	l139
  1577   00113E                     u1010:
  1578   00113E                     
  1579                           ;mkp.c: 40:         return 1;
  1580   00113E  0E01               	movlw	1
  1581   001140  EF18  F009         	goto	l140
  1582   001144                     l139:
  1583   001144  B481               	btfsc	3969,2,c	;volatile
  1584   001146  EFA7  F008         	goto	u1021
  1585   00114A  EFA9  F008         	goto	u1020
  1586   00114E                     u1021:
  1587   00114E  EFAC  F008         	goto	l142
  1588   001152                     u1020:
  1589   001152                     
  1590                           ;mkp.c: 42:         return 4;
  1591   001152  0E04               	movlw	4
  1592   001154  EF18  F009         	goto	l140
  1593   001158                     l142:
  1594   001158  B681               	btfsc	3969,3,c	;volatile
  1595   00115A  EFB1  F008         	goto	u1031
  1596   00115E  EFB3  F008         	goto	u1030
  1597   001162                     u1031:
  1598   001162  EFB6  F008         	goto	l144
  1599   001166                     u1030:
  1600   001166                     
  1601                           ;mkp.c: 44:         return 7;
  1602   001166  0E07               	movlw	7
  1603   001168  EF18  F009         	goto	l140
  1604   00116C                     l144:
  1605   00116C  B881               	btfsc	3969,4,c	;volatile
  1606   00116E  EFBB  F008         	goto	u1041
  1607   001172  EFBD  F008         	goto	u1040
  1608   001176                     u1041:
  1609   001176  EFC0  F008         	goto	l141
  1610   00117A                     u1040:
  1611   00117A                     
  1612                           ;mkp.c: 46:         return 10;
  1613   00117A  0E0A               	movlw	10
  1614   00117C  EF18  F009         	goto	l140
  1615   001180                     l141:
  1616                           
  1617                           ;mkp.c: 48:     RB5 = 1;
  1618   001180  8A81               	bsf	3969,5,c	;volatile
  1619                           
  1620                           ;mkp.c: 49:     RB6 = 0;
  1621   001182  9C81               	bcf	3969,6,c	;volatile
  1622                           
  1623                           ;mkp.c: 50:     RB7 = 1;
  1624   001184  8E81               	bsf	3969,7,c	;volatile
  1625                           
  1626                           ;mkp.c: 52:     if (RB1 == 0)
  1627   001186  B281               	btfsc	3969,1,c	;volatile
  1628   001188  EFC8  F008         	goto	u1051
  1629   00118C  EFCA  F008         	goto	u1050
  1630   001190                     u1051:
  1631   001190  EFCD  F008         	goto	l147
  1632   001194                     u1050:
  1633   001194                     
  1634                           ;mkp.c: 53:         return 2;
  1635   001194  0E02               	movlw	2
  1636   001196  EF18  F009         	goto	l140
  1637   00119A                     l147:
  1638   00119A  B481               	btfsc	3969,2,c	;volatile
  1639   00119C  EFD2  F008         	goto	u1061
  1640   0011A0  EFD4  F008         	goto	u1060
  1641   0011A4                     u1061:
  1642   0011A4  EFD7  F008         	goto	l149
  1643   0011A8                     u1060:
  1644   0011A8                     
  1645                           ;mkp.c: 55:         return 5;
  1646   0011A8  0E05               	movlw	5
  1647   0011AA  EF18  F009         	goto	l140
  1648   0011AE                     l149:
  1649   0011AE  B681               	btfsc	3969,3,c	;volatile
  1650   0011B0  EFDC  F008         	goto	u1071
  1651   0011B4  EFDE  F008         	goto	u1070
  1652   0011B8                     u1071:
  1653   0011B8  EFE1  F008         	goto	l151
  1654   0011BC                     u1070:
  1655   0011BC                     
  1656                           ;mkp.c: 57:         return 8;
  1657   0011BC  0E08               	movlw	8
  1658   0011BE  EF18  F009         	goto	l140
  1659   0011C2                     l151:
  1660   0011C2  B881               	btfsc	3969,4,c	;volatile
  1661   0011C4  EFE6  F008         	goto	u1081
  1662   0011C8  EFE8  F008         	goto	u1080
  1663   0011CC                     u1081:
  1664   0011CC  EFEB  F008         	goto	l148
  1665   0011D0                     u1080:
  1666   0011D0                     
  1667                           ;mkp.c: 59:         return 11;
  1668   0011D0  0E0B               	movlw	11
  1669   0011D2  EF18  F009         	goto	l140
  1670   0011D6                     l148:
  1671                           
  1672                           ;mkp.c: 61:     RB5 = 1;
  1673   0011D6  8A81               	bsf	3969,5,c	;volatile
  1674                           
  1675                           ;mkp.c: 62:     RB6 = 1;
  1676   0011D8  8C81               	bsf	3969,6,c	;volatile
  1677                           
  1678                           ;mkp.c: 63:     RB7 = 0;
  1679   0011DA  9E81               	bcf	3969,7,c	;volatile
  1680                           
  1681                           ;mkp.c: 64:     RB7 = 0;
  1682   0011DC  9E81               	bcf	3969,7,c	;volatile
  1683                           
  1684                           ;mkp.c: 66:     if (RB1 == 0)
  1685   0011DE  B281               	btfsc	3969,1,c	;volatile
  1686   0011E0  EFF4  F008         	goto	u1091
  1687   0011E4  EFF6  F008         	goto	u1090
  1688   0011E8                     u1091:
  1689   0011E8  EFF9  F008         	goto	l154
  1690   0011EC                     u1090:
  1691   0011EC                     
  1692                           ;mkp.c: 67:         return 3;
  1693   0011EC  0E03               	movlw	3
  1694   0011EE  EF18  F009         	goto	l140
  1695   0011F2                     l154:
  1696   0011F2  B481               	btfsc	3969,2,c	;volatile
  1697   0011F4  EFFE  F008         	goto	u1101
  1698   0011F8  EF00  F009         	goto	u1100
  1699   0011FC                     u1101:
  1700   0011FC  EF03  F009         	goto	l156
  1701   001200                     u1100:
  1702   001200                     
  1703                           ;mkp.c: 69:         return 6;
  1704   001200  0E06               	movlw	6
  1705   001202  EF18  F009         	goto	l140
  1706   001206                     l156:
  1707   001206  B681               	btfsc	3969,3,c	;volatile
  1708   001208  EF08  F009         	goto	u1111
  1709   00120C  EF0A  F009         	goto	u1110
  1710   001210                     u1111:
  1711   001210  EF0D  F009         	goto	l158
  1712   001214                     u1110:
  1713   001214                     
  1714                           ;mkp.c: 71:         return 9;
  1715   001214  0E09               	movlw	9
  1716   001216  EF18  F009         	goto	l140
  1717   00121A                     l158:
  1718   00121A  B881               	btfsc	3969,4,c	;volatile
  1719   00121C  EF12  F009         	goto	u1121
  1720   001220  EF14  F009         	goto	u1120
  1721   001224                     u1121:
  1722   001224  EF17  F009         	goto	l157
  1723   001228                     u1120:
  1724   001228                     
  1725                           ;mkp.c: 73:         return 12;
  1726   001228  0E0C               	movlw	12
  1727   00122A  EF18  F009         	goto	l140
  1728   00122E                     l157:
  1729   00122E                     
  1730                           ;mkp.c: 75:     return 0xFF;
  1731   00122E  0EFF               	movlw	255
  1732   001230                     l140:
  1733   001230  0012               	return		;funcret
  1734   001232                     __end_of_scan_key:
  1735                           	callstack 0
  1736                           
  1737 ;; *************** function _init_config *****************
  1738 ;; Defined at:
  1739 ;;		line 13 in file "main.c"
  1740 ;; Parameters:    Size  Location     Type
  1741 ;;		None
  1742 ;; Auto vars:     Size  Location     Type
  1743 ;;		None
  1744 ;; Return value:  Size  Location     Type
  1745 ;;                  1    wreg      void 
  1746 ;; Registers used:
  1747 ;;		wreg, status,2, status,0, cstack
  1748 ;; Tracked objects:
  1749 ;;		On entry : 0/0
  1750 ;;		On exit  : 0/0
  1751 ;;		Unchanged: 0/0
  1752 ;; Data sizes:     COMRAM   BANK0   BANK1   BANK2   BANK3   BANK4   BANK5
  1753 ;;      Params:         0       0       0       0       0       0       0
  1754 ;;      Locals:         0       0       0       0       0       0       0
  1755 ;;      Temps:          0       0       0       0       0       0       0
  1756 ;;      Totals:         0       0       0       0       0       0       0
  1757 ;;Total ram usage:        0 bytes
  1758 ;; Hardware stack levels used: 1
  1759 ;; Hardware stack levels required when called: 3
  1760 ;; This function calls:
  1761 ;;		_init_adc
  1762 ;;		_init_clcd
  1763 ;;		_init_matrix_keypad
  1764 ;;		_init_timer0
  1765 ;; This function is called by:
  1766 ;;		_main
  1767 ;; This function uses a non-reentrant model
  1768 ;;
  1769                           
  1770                           	psect	text4
  1771   0017D0                     __ptext4:
  1772                           	callstack 0
  1773   0017D0                     _init_config:
  1774                           	callstack 27
  1775   0017D0                     
  1776                           ;main.c: 14:     init_matrix_keypad();
  1777   0017D0  EC03  F00C         	call	_init_matrix_keypad	;wreg free
  1778   0017D4                     
  1779                           ;main.c: 15:     init_clcd();
  1780   0017D4  EC9C  F009         	call	_init_clcd	;wreg free
  1781   0017D8                     
  1782                           ;main.c: 16:     init_adc();
  1783   0017D8  ECC0  F00B         	call	_init_adc	;wreg free
  1784   0017DC                     
  1785                           ;main.c: 17:     init_timer0();
  1786   0017DC  ECCF  F00B         	call	_init_timer0	;wreg free
  1787   0017E0  0012               	return		;funcret
  1788   0017E2                     __end_of_init_config:
  1789                           	callstack 0
  1790                           
  1791 ;; *************** function _init_timer0 *****************
  1792 ;; Defined at:
  1793 ;;		line 11 in file "timer0.c"
  1794 ;; Parameters:    Size  Location     Type
  1795 ;;		None
  1796 ;; Auto vars:     Size  Location     Type
  1797 ;;		None
  1798 ;; Return value:  Size  Location     Type
  1799 ;;                  1    wreg      void 
  1800 ;; Registers used:
  1801 ;;		wreg, status,2
  1802 ;; Tracked objects:
  1803 ;;		On entry : 0/0
  1804 ;;		On exit  : 0/0
  1805 ;;		Unchanged: 0/0
  1806 ;; Data sizes:     COMRAM   BANK0   BANK1   BANK2   BANK3   BANK4   BANK5
  1807 ;;      Params:         0       0       0       0       0       0       0
  1808 ;;      Locals:         0       0       0       0       0       0       0
  1809 ;;      Temps:          0       0       0       0       0       0       0
  1810 ;;      Totals:         0       0       0       0       0       0       0
  1811 ;;Total ram usage:        0 bytes
  1812 ;; Hardware stack levels used: 1
  1813 ;; Hardware stack levels required when called: 1
  1814 ;; This function calls:
  1815 ;;		Nothing
  1816 ;; This function is called by:
  1817 ;;		_init_config
  1818 ;; This function uses a non-reentrant model
  1819 ;;
  1820                           
  1821                           	psect	text5
  1822   00179E                     __ptext5:
  1823                           	callstack 0
  1824   00179E                     _init_timer0:
  1825                           	callstack 28
  1826   00179E                     
  1827                           ;timer0.c: 14:     GIE = 1;
  1828   00179E  8EF2               	bsf	4082,7,c	;volatile
  1829                           
  1830                           ;timer0.c: 15:     PEIE = 1;
  1831   0017A0  8CF2               	bsf	4082,6,c	;volatile
  1832                           
  1833                           ;timer0.c: 16:     TMR0IE = 1;
  1834   0017A2  8AF2               	bsf	4082,5,c	;volatile
  1835                           
  1836                           ;timer0.c: 17:     TMR0IF = 0;
  1837   0017A4  94F2               	bcf	4082,2,c	;volatile
  1838   0017A6                     
  1839                           ;timer0.c: 22:     TMR0 = 3036;
  1840   0017A6  0E0B               	movlw	11
  1841   0017A8  6ED7               	movwf	215,c	;volatile
  1842   0017AA  0EDC               	movlw	220
  1843   0017AC  6ED6               	movwf	214,c	;volatile
  1844   0017AE                     
  1845                           ;timer0.c: 23:     TMR0ON = 1;
  1846   0017AE  8ED5               	bsf	4053,7,c	;volatile
  1847   0017B0                     
  1848                           ;timer0.c: 24:     T08BIT = 0;
  1849   0017B0  9CD5               	bcf	4053,6,c	;volatile
  1850   0017B2                     
  1851                           ;timer0.c: 25:     T0CS = 0;
  1852   0017B2  9AD5               	bcf	4053,5,c	;volatile
  1853   0017B4                     
  1854                           ;timer0.c: 26:     PSA = 1;
  1855   0017B4  86D5               	bsf	4053,3,c	;volatile
  1856   0017B6  0012               	return		;funcret
  1857   0017B8                     __end_of_init_timer0:
  1858                           	callstack 0
  1859                           
  1860 ;; *************** function _init_matrix_keypad *****************
  1861 ;; Defined at:
  1862 ;;		line 12 in file "mkp.c"
  1863 ;; Parameters:    Size  Location     Type
  1864 ;;		None
  1865 ;; Auto vars:     Size  Location     Type
  1866 ;;		None
  1867 ;; Return value:  Size  Location     Type
  1868 ;;                  1    wreg      void 
  1869 ;; Registers used:
  1870 ;;		wreg, status,2
  1871 ;; Tracked objects:
  1872 ;;		On entry : 0/0
  1873 ;;		On exit  : 0/0
  1874 ;;		Unchanged: 0/0
  1875 ;; Data sizes:     COMRAM   BANK0   BANK1   BANK2   BANK3   BANK4   BANK5
  1876 ;;      Params:         0       0       0       0       0       0       0
  1877 ;;      Locals:         0       0       0       0       0       0       0
  1878 ;;      Temps:          0       0       0       0       0       0       0
  1879 ;;      Totals:         0       0       0       0       0       0       0
  1880 ;;Total ram usage:        0 bytes
  1881 ;; Hardware stack levels used: 1
  1882 ;; Hardware stack levels required when called: 1
  1883 ;; This function calls:
  1884 ;;		Nothing
  1885 ;; This function is called by:
  1886 ;;		_init_config
  1887 ;; This function uses a non-reentrant model
  1888 ;;
  1889                           
  1890                           	psect	text6
  1891   001806                     __ptext6:
  1892                           	callstack 0
  1893   001806                     _init_matrix_keypad:
  1894                           	callstack 28
  1895   001806                     
  1896                           ;mkp.c: 14:     TRISB = 0x1E;
  1897   001806  0E1E               	movlw	30
  1898   001808  6E93               	movwf	147,c	;volatile
  1899   00180A                     
  1900                           ;mkp.c: 15:     RBPU = 0;
  1901   00180A  9EF1               	bcf	4081,7,c	;volatile
  1902   00180C  0012               	return		;funcret
  1903   00180E                     __end_of_init_matrix_keypad:
  1904                           	callstack 0
  1905                           
  1906 ;; *************** function _init_clcd *****************
  1907 ;; Defined at:
  1908 ;;		line 34 in file "clcd.c"
  1909 ;; Parameters:    Size  Location     Type
  1910 ;;		None
  1911 ;; Auto vars:     Size  Location     Type
  1912 ;;		None
  1913 ;; Return value:  Size  Location     Type
  1914 ;;                  1    wreg      void 
  1915 ;; Registers used:
  1916 ;;		wreg, status,2, status,0, cstack
  1917 ;; Tracked objects:
  1918 ;;		On entry : 0/0
  1919 ;;		On exit  : 0/0
  1920 ;;		Unchanged: 0/0
  1921 ;; Data sizes:     COMRAM   BANK0   BANK1   BANK2   BANK3   BANK4   BANK5
  1922 ;;      Params:         0       0       0       0       0       0       0
  1923 ;;      Locals:         0       0       0       0       0       0       0
  1924 ;;      Temps:          2       0       0       0       0       0       0
  1925 ;;      Totals:         2       0       0       0       0       0       0
  1926 ;;Total ram usage:        2 bytes
  1927 ;; Hardware stack levels used: 1
  1928 ;; Hardware stack levels required when called: 2
  1929 ;; This function calls:
  1930 ;;		_clcd_write
  1931 ;; This function is called by:
  1932 ;;		_init_config
  1933 ;; This function uses a non-reentrant model
  1934 ;;
  1935                           
  1936                           	psect	text7
  1937   001338                     __ptext7:
  1938                           	callstack 0
  1939   001338                     _init_clcd:
  1940                           	callstack 27
  1941   001338                     
  1942                           ;clcd.c: 37:  TRISD = 0x00;
  1943   001338  0E00               	movlw	0
  1944   00133A  6E95               	movwf	149,c	;volatile
  1945   00133C                     
  1946                           ;clcd.c: 39:  TRISC = TRISC & 0xF8;
  1947   00133C  5094               	movf	148,w,c	;volatile
  1948   00133E  0BF8               	andlw	248
  1949   001340  6E94               	movwf	148,c	;volatile
  1950   001342                     
  1951                           ;clcd.c: 41:  RC0 = 0;
  1952   001342  9082               	bcf	3970,0,c	;volatile
  1953   001344                     
  1954                           ;clcd.c: 45:     _delay((unsigned long)((40)*(20000000/4000.0)));
  1955   001344  0E02               	movlw	2
  1956   001346  6E04               	movwf	(??_init_clcd+1)^0,c
  1957   001348  0E04               	movlw	4
  1958   00134A  6E03               	movwf	??_init_clcd^0,c
  1959   00134C  0EBA               	movlw	186
  1960   00134E                     u1987:
  1961   00134E  2EE8               	decfsz	wreg,f,c
  1962   001350  D7FE               	bra	u1987
  1963   001352  2E03               	decfsz	??_init_clcd^0,f,c
  1964   001354  D7FC               	bra	u1987
  1965   001356  2E04               	decfsz	(??_init_clcd+1)^0,f,c
  1966   001358  D7FA               	bra	u1987
  1967   00135A  D000               	nop2	
  1968   00135C                     
  1969                           ;clcd.c: 48:     clcd_write(0x33, 0 );
  1970   00135C  0E00               	movlw	0
  1971   00135E  6E01               	movwf	clcd_write@control_bit^0,c
  1972   001360  0E33               	movlw	51
  1973   001362  EC8B  F00B         	call	_clcd_write
  1974   001366                     
  1975                           ;clcd.c: 49:     _delay((unsigned long)((4100)*(20000000/4000000.0)));
  1976   001366  0E1B               	movlw	27
  1977   001368  6E03               	movwf	??_init_clcd^0,c
  1978   00136A  0E9E               	movlw	158
  1979   00136C                     u1997:
  1980   00136C  2EE8               	decfsz	wreg,f,c
  1981   00136E  D7FE               	bra	u1997
  1982   001370  2E03               	decfsz	??_init_clcd^0,f,c
  1983   001372  D7FC               	bra	u1997
  1984   001374  D000               	nop2	
  1985   001376                     
  1986                           ;clcd.c: 50:     clcd_write(0x33, 0 );
  1987   001376  0E00               	movlw	0
  1988   001378  6E01               	movwf	clcd_write@control_bit^0,c
  1989   00137A  0E33               	movlw	51
  1990   00137C  EC8B  F00B         	call	_clcd_write
  1991   001380                     
  1992                           ;clcd.c: 51:     _delay((unsigned long)((100)*(20000000/4000000.0)));
  1993   001380  0EA6               	movlw	166
  1994   001382                     u2007:
  1995   001382  2EE8               	decfsz	wreg,f,c
  1996   001384  D7FE               	bra	u2007
  1997   001386  D000               	nop2	
  1998   001388                     
  1999                           ;clcd.c: 52:     clcd_write(0x33, 0 );
  2000   001388  0E00               	movlw	0
  2001   00138A  6E01               	movwf	clcd_write@control_bit^0,c
  2002   00138C  0E33               	movlw	51
  2003   00138E  EC8B  F00B         	call	_clcd_write
  2004   001392                     
  2005                           ;clcd.c: 53:     _delay((unsigned long)((1)*(20000000/4000000.0)));
  2006   001392  D000               	nop2		;2 cycle nop
  2007   001394  D000               	nop2		;2 cycle nop
  2008   001396  F000               	nop	
  2009   001398                     
  2010                           ;clcd.c: 55:     clcd_write(0x02, 0);
  2011   001398  0E00               	movlw	0
  2012   00139A  6E01               	movwf	clcd_write@control_bit^0,c
  2013   00139C  0E02               	movlw	2
  2014   00139E  EC8B  F00B         	call	_clcd_write
  2015   0013A2                     
  2016                           ;clcd.c: 56:     _delay((unsigned long)((100)*(20000000/4000000.0)));
  2017   0013A2  0EA6               	movlw	166
  2018   0013A4                     u2017:
  2019   0013A4  2EE8               	decfsz	wreg,f,c
  2020   0013A6  D7FE               	bra	u2017
  2021   0013A8  D000               	nop2	
  2022   0013AA                     
  2023                           ;clcd.c: 57:     clcd_write(0x38, 0);
  2024   0013AA  0E00               	movlw	0
  2025   0013AC  6E01               	movwf	clcd_write@control_bit^0,c
  2026   0013AE  0E38               	movlw	56
  2027   0013B0  EC8B  F00B         	call	_clcd_write
  2028   0013B4                     
  2029                           ;clcd.c: 58:     _delay((unsigned long)((100)*(20000000/4000000.0)));
  2030   0013B4  0EA6               	movlw	166
  2031   0013B6                     u2027:
  2032   0013B6  2EE8               	decfsz	wreg,f,c
  2033   0013B8  D7FE               	bra	u2027
  2034   0013BA  D000               	nop2	
  2035   0013BC                     
  2036                           ;clcd.c: 59:     clcd_write(0x01, 0);
  2037   0013BC  0E00               	movlw	0
  2038   0013BE  6E01               	movwf	clcd_write@control_bit^0,c
  2039   0013C0  0E01               	movlw	1
  2040   0013C2  EC8B  F00B         	call	_clcd_write
  2041   0013C6                     
  2042                           ;clcd.c: 60:     _delay((unsigned long)((500)*(20000000/4000000.0)));
  2043   0013C6  0E04               	movlw	4
  2044   0013C8  6E03               	movwf	??_init_clcd^0,c
  2045   0013CA  0E3E               	movlw	62
  2046   0013CC                     u2037:
  2047   0013CC  2EE8               	decfsz	wreg,f,c
  2048   0013CE  D7FE               	bra	u2037
  2049   0013D0  2E03               	decfsz	??_init_clcd^0,f,c
  2050   0013D2  D7FC               	bra	u2037
  2051   0013D4                     
  2052                           ;clcd.c: 61:     clcd_write(0x0C, 0);
  2053   0013D4  0E00               	movlw	0
  2054   0013D6  6E01               	movwf	clcd_write@control_bit^0,c
  2055   0013D8  0E0C               	movlw	12
  2056   0013DA  EC8B  F00B         	call	_clcd_write
  2057   0013DE                     
  2058                           ;clcd.c: 62:     _delay((unsigned long)((100)*(20000000/4000000.0)));
  2059   0013DE  0EA6               	movlw	166
  2060   0013E0                     u2047:
  2061   0013E0  2EE8               	decfsz	wreg,f,c
  2062   0013E2  D7FE               	bra	u2047
  2063   0013E4  D000               	nop2	
  2064   0013E6  0012               	return		;funcret
  2065   0013E8                     __end_of_init_clcd:
  2066                           	callstack 0
  2067                           
  2068 ;; *************** function _init_adc *****************
  2069 ;; Defined at:
  2070 ;;		line 12 in file "adc.c"
  2071 ;; Parameters:    Size  Location     Type
  2072 ;;		None
  2073 ;; Auto vars:     Size  Location     Type
  2074 ;;		None
  2075 ;; Return value:  Size  Location     Type
  2076 ;;                  1    wreg      void 
  2077 ;; Registers used:
  2078 ;;		None
  2079 ;; Tracked objects:
  2080 ;;		On entry : 0/0
  2081 ;;		On exit  : 0/0
  2082 ;;		Unchanged: 0/0
  2083 ;; Data sizes:     COMRAM   BANK0   BANK1   BANK2   BANK3   BANK4   BANK5
  2084 ;;      Params:         0       0       0       0       0       0       0
  2085 ;;      Locals:         0       0       0       0       0       0       0
  2086 ;;      Temps:          0       0       0       0       0       0       0
  2087 ;;      Totals:         0       0       0       0       0       0       0
  2088 ;;Total ram usage:        0 bytes
  2089 ;; Hardware stack levels used: 1
  2090 ;; Hardware stack levels required when called: 1
  2091 ;; This function calls:
  2092 ;;		Nothing
  2093 ;; This function is called by:
  2094 ;;		_init_config
  2095 ;; This function uses a non-reentrant model
  2096 ;;
  2097                           
  2098                           	psect	text8
  2099   001780                     __ptext8:
  2100                           	callstack 0
  2101   001780                     _init_adc:
  2102                           	callstack 28
  2103   001780                     
  2104                           ;adc.c: 13:     ADON = 1;
  2105   001780  80C2               	bsf	4034,0,c	;volatile
  2106                           
  2107                           ;adc.c: 14:     VCFG1 = 0;
  2108   001782  9AC1               	bcf	4033,5,c	;volatile
  2109                           
  2110                           ;adc.c: 15:     VCFG0 = 0;
  2111   001784  98C1               	bcf	4033,4,c	;volatile
  2112                           
  2113                           ;adc.c: 16:     PCFG3 = 1;
  2114   001786  86C1               	bsf	4033,3,c	;volatile
  2115                           
  2116                           ;adc.c: 17:     PCFG2 = 0;
  2117   001788  94C1               	bcf	4033,2,c	;volatile
  2118                           
  2119                           ;adc.c: 18:     PCFG1 = 1;
  2120   00178A  82C1               	bsf	4033,1,c	;volatile
  2121                           
  2122                           ;adc.c: 19:     PCFG0 = 0;
  2123   00178C  90C1               	bcf	4033,0,c	;volatile
  2124                           
  2125                           ;adc.c: 20:     ACQT2 = 1;
  2126   00178E  8AC0               	bsf	4032,5,c	;volatile
  2127                           
  2128                           ;adc.c: 21:     ACQT1 = 0;
  2129   001790  98C0               	bcf	4032,4,c	;volatile
  2130                           
  2131                           ;adc.c: 22:     ACQT0 = 0;
  2132   001792  96C0               	bcf	4032,3,c	;volatile
  2133                           
  2134                           ;adc.c: 23:     ADCS2 = 0;
  2135   001794  94C0               	bcf	4032,2,c	;volatile
  2136                           
  2137                           ;adc.c: 24:     ADCS1 = 1;
  2138   001796  82C0               	bsf	4032,1,c	;volatile
  2139                           
  2140                           ;adc.c: 25:     ADCS0 = 0;
  2141   001798  90C0               	bcf	4032,0,c	;volatile
  2142                           
  2143                           ;adc.c: 26:     ADFM = 1;
  2144   00179A  8EC0               	bsf	4032,7,c	;volatile
  2145   00179C  0012               	return		;funcret
  2146   00179E                     __end_of_init_adc:
  2147                           	callstack 0
  2148                           
  2149 ;; *************** function _display_dashboard *****************
  2150 ;; Defined at:
  2151 ;;		line 16 in file "car_black_box.c"
  2152 ;; Parameters:    Size  Location     Type
  2153 ;;  key             1    wreg     unsigned char 
  2154 ;; Auto vars:     Size  Location     Type
  2155 ;;  key             1   57[COMRAM] unsigned char 
  2156 ;; Return value:  Size  Location     Type
  2157 ;;                  1    wreg      void 
  2158 ;; Registers used:
  2159 ;;		wreg, fsr2l, fsr2h, status,2, status,0, tblptrl, tblptrh, tblptru, cstack
  2160 ;; Tracked objects:
  2161 ;;		On entry : 0/0
  2162 ;;		On exit  : 0/0
  2163 ;;		Unchanged: 0/0
  2164 ;; Data sizes:     COMRAM   BANK0   BANK1   BANK2   BANK3   BANK4   BANK5
  2165 ;;      Params:         0       0       0       0       0       0       0
  2166 ;;      Locals:         1       0       0       0       0       0       0
  2167 ;;      Temps:          0       0       0       0       0       0       0
  2168 ;;      Totals:         1       0       0       0       0       0       0
  2169 ;;Total ram usage:        1 bytes
  2170 ;; Hardware stack levels used: 1
  2171 ;; Hardware stack levels required when called: 4
  2172 ;; This function calls:
  2173 ;;		___fldiv
  2174 ;;		___fltol
  2175 ;;		___xxtofl
  2176 ;;		_clcd_print
  2177 ;;		_display_speed
  2178 ;;		_display_time
  2179 ;;		_gear_monitor
  2180 ;;		_read_adc
  2181 ;; This function is called by:
  2182 ;;		_main
  2183 ;; This function uses a non-reentrant model
  2184 ;;
  2185                           
  2186                           	psect	text9
  2187   0013E8                     __ptext9:
  2188                           	callstack 0
  2189   0013E8                     _display_dashboard:
  2190                           	callstack 26
  2191                           
  2192                           ;incstack = 0
  2193                           ;display_dashboard@key stored from wreg
  2194   0013E8  6E3A               	movwf	display_dashboard@key^0,c
  2195   0013EA                     
  2196                           ;car_black_box.c: 17:     clcd_print("  TIME    EV SP ", (0x80 + (0)));
  2197   0013EA  0E56               	movlw	low STR_9
  2198   0013EC  6E03               	movwf	clcd_print@data^0,c
  2199   0013EE  0E06               	movlw	high STR_9
  2200   0013F0  6E04               	movwf	(clcd_print@data+1)^0,c
  2201   0013F2  0E80               	movlw	128
  2202   0013F4  6E05               	movwf	clcd_print@addr^0,c
  2203   0013F6  EC29  F00B         	call	_clcd_print	;wreg free
  2204                           
  2205                           ;car_black_box.c: 18:     clcd_print("                ", (0xC0 + (0)));
  2206   0013FA  0E01               	movlw	low STR_10
  2207   0013FC  6E03               	movwf	clcd_print@data^0,c
  2208   0013FE  0E06               	movlw	high STR_10
  2209   001400  6E04               	movwf	(clcd_print@data+1)^0,c
  2210   001402  0EC0               	movlw	192
  2211   001404  6E05               	movwf	clcd_print@addr^0,c
  2212   001406  EC29  F00B         	call	_clcd_print	;wreg free
  2213                           
  2214                           ;car_black_box.c: 19:     display_time();
  2215   00140A  ECF1  F00B         	call	_display_time	;wreg free
  2216   00140E                     
  2217                           ;car_black_box.c: 20:     gear_monitor(key);
  2218   00140E  503A               	movf	display_dashboard@key^0,w,c
  2219   001410  EC0F  F008         	call	_gear_monitor
  2220   001414                     
  2221                           ;car_black_box.c: 21:     speed = (read_adc(4) / 10.23);
  2222   001414  0E14               	movlw	20
  2223   001416  6E1B               	movwf	___fldiv@a^0,c
  2224   001418  0EAE               	movlw	174
  2225   00141A  6E1C               	movwf	(___fldiv@a+1)^0,c
  2226   00141C  0E23               	movlw	35
  2227   00141E  6E1D               	movwf	(___fldiv@a+2)^0,c
  2228   001420  0E41               	movlw	65
  2229   001422  6E1E               	movwf	(___fldiv@a+3)^0,c
  2230   001424  0E04               	movlw	4
  2231   001426  ECE2  F00A         	call	_read_adc
  2232   00142A  C001  F009         	movff	?_read_adc,___xxtofl@val
  2233   00142E  C002  F00A         	movff	?_read_adc+1,___xxtofl@val+1
  2234   001432  6A0B               	clrf	(___xxtofl@val+2)^0,c
  2235   001434  6A0C               	clrf	(___xxtofl@val+3)^0,c
  2236   001436  0E00               	movlw	0
  2237   001438  EC35  F007         	call	___xxtofl
  2238   00143C  C009  F017         	movff	?___xxtofl,___fldiv@b
  2239   001440  C00A  F018         	movff	?___xxtofl+1,___fldiv@b+1
  2240   001444  C00B  F019         	movff	?___xxtofl+2,___fldiv@b+2
  2241   001448  C00C  F01A         	movff	?___xxtofl+3,___fldiv@b+3
  2242   00144C  EC68  F005         	call	___fldiv	;wreg free
  2243   001450  C017  F030         	movff	?___fldiv,___fltol@f1
  2244   001454  C018  F031         	movff	?___fldiv+1,___fltol@f1+1
  2245   001458  C019  F032         	movff	?___fldiv+2,___fltol@f1+2
  2246   00145C  C01A  F033         	movff	?___fldiv+3,___fltol@f1+3
  2247   001460  EC19  F009         	call	___fltol	;wreg free
  2248   001464  C030  F04F         	movff	?___fltol,_speed
  2249   001468  C031  F050         	movff	?___fltol+1,_speed+1
  2250   00146C                     
  2251                           ;car_black_box.c: 22:     display_speed(speed);
  2252   00146C  C04F  F00A         	movff	_speed,display_speed@speed
  2253   001470  C050  F00B         	movff	_speed+1,display_speed@speed+1
  2254   001474  EC4B  F00B         	call	_display_speed	;wreg free
  2255   001478  0012               	return		;funcret
  2256   00147A                     __end_of_display_dashboard:
  2257                           	callstack 0
  2258                           
  2259 ;; *************** function _read_adc *****************
  2260 ;; Defined at:
  2261 ;;		line 30 in file "adc.c"
  2262 ;; Parameters:    Size  Location     Type
  2263 ;;  channel         1    wreg     unsigned char 
  2264 ;; Auto vars:     Size  Location     Type
  2265 ;;  channel         1    7[COMRAM] unsigned char 
  2266 ;; Return value:  Size  Location     Type
  2267 ;;                  2    0[COMRAM] unsigned short 
  2268 ;; Registers used:
  2269 ;;		wreg, status,2, status,0
  2270 ;; Tracked objects:
  2271 ;;		On entry : 0/0
  2272 ;;		On exit  : 0/0
  2273 ;;		Unchanged: 0/0
  2274 ;; Data sizes:     COMRAM   BANK0   BANK1   BANK2   BANK3   BANK4   BANK5
  2275 ;;      Params:         2       0       0       0       0       0       0
  2276 ;;      Locals:         1       0       0       0       0       0       0
  2277 ;;      Temps:          5       0       0       0       0       0       0
  2278 ;;      Totals:         8       0       0       0       0       0       0
  2279 ;;Total ram usage:        8 bytes
  2280 ;; Hardware stack levels used: 1
  2281 ;; Hardware stack levels required when called: 1
  2282 ;; This function calls:
  2283 ;;		Nothing
  2284 ;; This function is called by:
  2285 ;;		_display_dashboard
  2286 ;; This function uses a non-reentrant model
  2287 ;;
  2288                           
  2289                           	psect	text10
  2290   0015C4                     __ptext10:
  2291                           	callstack 0
  2292   0015C4                     _read_adc:
  2293                           	callstack 28
  2294                           
  2295                           ;incstack = 0
  2296                           ;read_adc@channel stored from wreg
  2297   0015C4  6E08               	movwf	read_adc@channel^0,c
  2298   0015C6                     
  2299                           ;adc.c: 30: unsigned short read_adc(unsigned char channel);adc.c: 31: {;adc.c: 32:     A
      +                          DCON0 = (ADCON0 & 0XC3) | (channel << 2);
  2300   0015C6  C008  F003         	movff	read_adc@channel,??_read_adc
  2301   0015CA  90D8               	bcf	status,0,c
  2302   0015CC  3603               	rlcf	??_read_adc^0,f,c
  2303   0015CE  90D8               	bcf	status,0,c
  2304   0015D0  3603               	rlcf	??_read_adc^0,f,c
  2305   0015D2  50C2               	movf	194,w,c	;volatile
  2306   0015D4  0BC3               	andlw	195
  2307   0015D6  1003               	iorwf	??_read_adc^0,w,c
  2308   0015D8  6EC2               	movwf	194,c	;volatile
  2309   0015DA                     
  2310                           ;adc.c: 33:     GO = 1;
  2311   0015DA  82C2               	bsf	4034,1,c	;volatile
  2312   0015DC                     l237:
  2313   0015DC  B2C2               	btfsc	4034,1,c	;volatile
  2314   0015DE  EFF3  F00A         	goto	u1341
  2315   0015E2  EFF5  F00A         	goto	u1340
  2316   0015E6                     u1341:
  2317   0015E6  EFEE  F00A         	goto	l237
  2318   0015EA                     u1340:
  2319   0015EA                     
  2320                           ;adc.c: 35:     return ADRESL | ((ADRESH & 0X03) << 8);
  2321   0015EA  CFC4 F003          	movff	4036,??_read_adc	;volatile
  2322   0015EE  0E03               	movlw	3
  2323   0015F0  1603               	andwf	??_read_adc^0,f,c
  2324   0015F2  5003               	movf	??_read_adc^0,w,c
  2325   0015F4  6E05               	movwf	(??_read_adc+2)^0,c
  2326   0015F6  6A04               	clrf	(??_read_adc+1)^0,c
  2327   0015F8  50C3               	movf	195,w,c	;volatile
  2328   0015FA  6E06               	movwf	(??_read_adc+3)^0,c
  2329   0015FC  6A07               	clrf	(??_read_adc+4)^0,c
  2330   0015FE  5004               	movf	(??_read_adc+1)^0,w,c
  2331   001600  1006               	iorwf	(??_read_adc+3)^0,w,c
  2332   001602  6E01               	movwf	?_read_adc^0,c
  2333   001604  5005               	movf	(??_read_adc+2)^0,w,c
  2334   001606  1007               	iorwf	(??_read_adc+4)^0,w,c
  2335   001608  6E02               	movwf	(?_read_adc+1)^0,c
  2336   00160A  0012               	return		;funcret
  2337   00160C                     __end_of_read_adc:
  2338                           	callstack 0
  2339                           
  2340 ;; *************** function _gear_monitor *****************
  2341 ;; Defined at:
  2342 ;;		line 29 in file "car_black_box.c"
  2343 ;; Parameters:    Size  Location     Type
  2344 ;;  key             1    wreg     unsigned char 
  2345 ;; Auto vars:     Size  Location     Type
  2346 ;;  key             1    5[COMRAM] unsigned char 
  2347 ;; Return value:  Size  Location     Type
  2348 ;;                  1    wreg      void 
  2349 ;; Registers used:
  2350 ;;		wreg, fsr2l, fsr2h, status,2, status,0, tblptrl, tblptrh, tblptru, cstack
  2351 ;; Tracked objects:
  2352 ;;		On entry : 0/0
  2353 ;;		On exit  : 0/0
  2354 ;;		Unchanged: 0/0
  2355 ;; Data sizes:     COMRAM   BANK0   BANK1   BANK2   BANK3   BANK4   BANK5
  2356 ;;      Params:         0       0       0       0       0       0       0
  2357 ;;      Locals:         1       0       0       0       0       0       0
  2358 ;;      Temps:          0       0       0       0       0       0       0
  2359 ;;      Totals:         1       0       0       0       0       0       0
  2360 ;;Total ram usage:        1 bytes
  2361 ;; Hardware stack levels used: 1
  2362 ;; Hardware stack levels required when called: 3
  2363 ;; This function calls:
  2364 ;;		_clcd_print
  2365 ;; This function is called by:
  2366 ;;		_display_dashboard
  2367 ;; This function uses a non-reentrant model
  2368 ;;
  2369                           
  2370                           	psect	text11
  2371   00101E                     __ptext11:
  2372                           	callstack 0
  2373   00101E                     _gear_monitor:
  2374                           	callstack 26
  2375                           
  2376                           ;incstack = 0
  2377                           ;gear_monitor@key stored from wreg
  2378   00101E  6E06               	movwf	gear_monitor@key^0,c
  2379   001020                     
  2380                           ;car_black_box.c: 31:     if (key == 1) {
  2381   001020  0406               	decf	gear_monitor@key^0,w,c
  2382   001022  A4D8               	btfss	status,2,c
  2383   001024  EF16  F008         	goto	u1241
  2384   001028  EF18  F008         	goto	u1240
  2385   00102C                     u1241:
  2386   00102C  EF1E  F008         	goto	l1806
  2387   001030                     u1240:
  2388   001030                     
  2389                           ;car_black_box.c: 32:         gear_index = 7;
  2390   001030  0E00               	movlw	0
  2391   001032  6E52               	movwf	(_gear_index+1)^0,c
  2392   001034  0E07               	movlw	7
  2393   001036  6E51               	movwf	_gear_index^0,c
  2394                           
  2395                           ;car_black_box.c: 33:     } else if (key == 2 || key == 3) {
  2396   001038  EF83  F008         	goto	l1830
  2397   00103C                     l1806:
  2398   00103C  0E02               	movlw	2
  2399   00103E  1806               	xorwf	gear_monitor@key^0,w,c
  2400   001040  B4D8               	btfsc	status,2,c
  2401   001042  EF25  F008         	goto	u1251
  2402   001046  EF27  F008         	goto	u1250
  2403   00104A                     u1251:
  2404   00104A  EF30  F008         	goto	l1810
  2405   00104E                     u1250:
  2406   00104E  0E03               	movlw	3
  2407   001050  1806               	xorwf	gear_monitor@key^0,w,c
  2408   001052  A4D8               	btfss	status,2,c
  2409   001054  EF2E  F008         	goto	u1261
  2410   001058  EF30  F008         	goto	u1260
  2411   00105C                     u1261:
  2412   00105C  EF83  F008         	goto	l1830
  2413   001060                     u1260:
  2414   001060                     l1810:
  2415                           
  2416                           ;car_black_box.c: 34:         if (gear_index == 7 && key == 2) {
  2417   001060  0E07               	movlw	7
  2418   001062  1851               	xorwf	_gear_index^0,w,c
  2419   001064  1052               	iorwf	(_gear_index+1)^0,w,c
  2420   001066  A4D8               	btfss	status,2,c
  2421   001068  EF38  F008         	goto	u1271
  2422   00106C  EF3A  F008         	goto	u1270
  2423   001070                     u1271:
  2424   001070  EF47  F008         	goto	l1816
  2425   001074                     u1270:
  2426   001074  0E02               	movlw	2
  2427   001076  1806               	xorwf	gear_monitor@key^0,w,c
  2428   001078  A4D8               	btfss	status,2,c
  2429   00107A  EF41  F008         	goto	u1281
  2430   00107E  EF43  F008         	goto	u1280
  2431   001082                     u1281:
  2432   001082  EF47  F008         	goto	l1816
  2433   001086                     u1280:
  2434   001086                     
  2435                           ;car_black_box.c: 35:             gear_index = 0;
  2436   001086  0E00               	movlw	0
  2437   001088  6E52               	movwf	(_gear_index+1)^0,c
  2438   00108A  0E00               	movlw	0
  2439   00108C  6E51               	movwf	_gear_index^0,c
  2440   00108E                     l1816:
  2441                           
  2442                           ;car_black_box.c: 37:         if (key == 2 && gear_index < 6) {
  2443   00108E  0E02               	movlw	2
  2444   001090  1806               	xorwf	gear_monitor@key^0,w,c
  2445   001092  A4D8               	btfss	status,2,c
  2446   001094  EF4E  F008         	goto	u1291
  2447   001098  EF50  F008         	goto	u1290
  2448   00109C                     u1291:
  2449   00109C  EF5F  F008         	goto	l1822
  2450   0010A0                     u1290:
  2451   0010A0  5052               	movf	(_gear_index+1)^0,w,c
  2452   0010A2  E107               	bnz	u1301
  2453   0010A4  0E06               	movlw	6
  2454   0010A6  5C51               	subwf	_gear_index^0,w,c
  2455   0010A8  B0D8               	btfsc	status,0,c
  2456   0010AA  EF59  F008         	goto	u1301
  2457   0010AE  EF5B  F008         	goto	u1300
  2458   0010B2                     u1301:
  2459   0010B2  EF5F  F008         	goto	l1822
  2460   0010B6                     u1300:
  2461   0010B6                     
  2462                           ;car_black_box.c: 38:             gear_index++;
  2463   0010B6  4A51               	infsnz	_gear_index^0,f,c
  2464   0010B8  2A52               	incf	(_gear_index+1)^0,f,c
  2465                           
  2466                           ;car_black_box.c: 39:         } else if (key == 3 && gear_index > 1 && gear_index < 7) {
  2467   0010BA  EF83  F008         	goto	l1830
  2468   0010BE                     l1822:
  2469   0010BE  0E03               	movlw	3
  2470   0010C0  1806               	xorwf	gear_monitor@key^0,w,c
  2471   0010C2  A4D8               	btfss	status,2,c
  2472   0010C4  EF66  F008         	goto	u1311
  2473   0010C8  EF68  F008         	goto	u1310
  2474   0010CC                     u1311:
  2475   0010CC  EF83  F008         	goto	l61
  2476   0010D0                     u1310:
  2477   0010D0  5052               	movf	(_gear_index+1)^0,w,c
  2478   0010D2  E109               	bnz	u1320
  2479   0010D4  0E02               	movlw	2
  2480   0010D6  5C51               	subwf	_gear_index^0,w,c
  2481   0010D8  A0D8               	btfss	status,0,c
  2482   0010DA  EF71  F008         	goto	u1321
  2483   0010DE  EF73  F008         	goto	u1320
  2484   0010E2                     u1321:
  2485   0010E2  EF83  F008         	goto	l61
  2486   0010E6                     u1320:
  2487   0010E6  5052               	movf	(_gear_index+1)^0,w,c
  2488   0010E8  E107               	bnz	u1331
  2489   0010EA  0E07               	movlw	7
  2490   0010EC  5C51               	subwf	_gear_index^0,w,c
  2491   0010EE  B0D8               	btfsc	status,0,c
  2492   0010F0  EF7C  F008         	goto	u1331
  2493   0010F4  EF7E  F008         	goto	u1330
  2494   0010F8                     u1331:
  2495   0010F8  EF83  F008         	goto	l61
  2496   0010FC                     u1330:
  2497   0010FC                     
  2498                           ;car_black_box.c: 40:             gear_index--;
  2499   0010FC  0651               	decf	_gear_index^0,f,c
  2500   0010FE  A0D8               	btfss	status,0,c
  2501   001100  0652               	decf	(_gear_index+1)^0,f,c
  2502   001102  EF83  F008         	goto	l1830
  2503   001106                     l61:
  2504   001106                     l1830:
  2505                           
  2506                           ;car_black_box.c: 43:     clcd_print(gear_data[gear_index], (0xC0 + (10)));
  2507   001106  90D8               	bcf	status,0,c
  2508   001108  3451               	rlcf	_gear_index^0,w,c
  2509   00110A  6ED9               	movwf	fsr2l,c
  2510   00110C  3452               	rlcf	(_gear_index+1)^0,w,c
  2511   00110E  6EDA               	movwf	fsr2h,c
  2512   001110  0E3C               	movlw	low _gear_data
  2513   001112  26D9               	addwf	fsr2l,f,c
  2514   001114  0E00               	movlw	high _gear_data
  2515   001116  22DA               	addwfc	fsr2h,f,c
  2516   001118  CFDE F003          	movff	postinc2,clcd_print@data
  2517   00111C  CFDD F004          	movff	postdec2,clcd_print@data+1
  2518   001120  0ECA               	movlw	202
  2519   001122  6E05               	movwf	clcd_print@addr^0,c
  2520   001124  EC29  F00B         	call	_clcd_print	;wreg free
  2521   001128  0012               	return		;funcret
  2522   00112A                     __end_of_gear_monitor:
  2523                           	callstack 0
  2524                           
  2525 ;; *************** function _display_time *****************
  2526 ;; Defined at:
  2527 ;;		line 25 in file "car_black_box.c"
  2528 ;; Parameters:    Size  Location     Type
  2529 ;;		None
  2530 ;; Auto vars:     Size  Location     Type
  2531 ;;		None
  2532 ;; Return value:  Size  Location     Type
  2533 ;;                  1    wreg      void 
  2534 ;; Registers used:
  2535 ;;		wreg, status,2, status,0, tblptrl, tblptrh, tblptru, cstack
  2536 ;; Tracked objects:
  2537 ;;		On entry : 0/0
  2538 ;;		On exit  : 0/0
  2539 ;;		Unchanged: 0/0
  2540 ;; Data sizes:     COMRAM   BANK0   BANK1   BANK2   BANK3   BANK4   BANK5
  2541 ;;      Params:         0       0       0       0       0       0       0
  2542 ;;      Locals:         0       0       0       0       0       0       0
  2543 ;;      Temps:          0       0       0       0       0       0       0
  2544 ;;      Totals:         0       0       0       0       0       0       0
  2545 ;;Total ram usage:        0 bytes
  2546 ;; Hardware stack levels used: 1
  2547 ;; Hardware stack levels required when called: 3
  2548 ;; This function calls:
  2549 ;;		_clcd_print
  2550 ;; This function is called by:
  2551 ;;		_display_dashboard
  2552 ;; This function uses a non-reentrant model
  2553 ;;
  2554                           
  2555                           	psect	text12
  2556   0017E2                     __ptext12:
  2557                           	callstack 0
  2558   0017E2                     _display_time:
  2559                           	callstack 26
  2560   0017E2                     
  2561                           ;car_black_box.c: 26:     clcd_print("10:00:00 ", (0xC0 + (0)));
  2562   0017E2  0EB9               	movlw	low STR_11
  2563   0017E4  6E03               	movwf	clcd_print@data^0,c
  2564   0017E6  0E06               	movlw	high STR_11
  2565   0017E8  6E04               	movwf	(clcd_print@data+1)^0,c
  2566   0017EA  0EC0               	movlw	192
  2567   0017EC  6E05               	movwf	clcd_print@addr^0,c
  2568   0017EE  EC29  F00B         	call	_clcd_print	;wreg free
  2569   0017F2  0012               	return		;funcret
  2570   0017F4                     __end_of_display_time:
  2571                           	callstack 0
  2572                           
  2573 ;; *************** function _clcd_print *****************
  2574 ;; Defined at:
  2575 ;;		line 65 in file "clcd.c"
  2576 ;; Parameters:    Size  Location     Type
  2577 ;;  data            2    2[COMRAM] PTR const unsigned char 
  2578 ;;		 -> STR_23(17), STR_22(17), STR_21(17), STR_20(17), 
  2579 ;;		 -> STR_19(17), STR_18(17), STR_17(17), STR_16(16), 
  2580 ;;		 -> STR_15(16), STR_14(16), STR_13(17), STR_11(10), 
  2581 ;;		 -> STR_10(17), STR_9(17), STR_8(3), STR_7(3), 
  2582 ;;		 -> STR_6(3), STR_5(3), STR_4(3), STR_3(3), 
  2583 ;;		 -> STR_2(3), STR_1(3), 
  2584 ;;  addr            1    4[COMRAM] unsigned char 
  2585 ;; Auto vars:     Size  Location     Type
  2586 ;;		None
  2587 ;; Return value:  Size  Location     Type
  2588 ;;                  1    wreg      void 
  2589 ;; Registers used:
  2590 ;;		wreg, status,2, status,0, tblptrl, tblptrh, tblptru, cstack
  2591 ;; Tracked objects:
  2592 ;;		On entry : 0/0
  2593 ;;		On exit  : 0/0
  2594 ;;		Unchanged: 0/0
  2595 ;; Data sizes:     COMRAM   BANK0   BANK1   BANK2   BANK3   BANK4   BANK5
  2596 ;;      Params:         3       0       0       0       0       0       0
  2597 ;;      Locals:         0       0       0       0       0       0       0
  2598 ;;      Temps:          0       0       0       0       0       0       0
  2599 ;;      Totals:         3       0       0       0       0       0       0
  2600 ;;Total ram usage:        3 bytes
  2601 ;; Hardware stack levels used: 1
  2602 ;; Hardware stack levels required when called: 2
  2603 ;; This function calls:
  2604 ;;		_clcd_write
  2605 ;; This function is called by:
  2606 ;;		_display_dashboard
  2607 ;;		_display_time
  2608 ;;		_gear_monitor
  2609 ;;		_read_password
  2610 ;; This function uses a non-reentrant model
  2611 ;;
  2612                           
  2613                           	psect	text13
  2614   001652                     __ptext13:
  2615                           	callstack 0
  2616   001652                     _clcd_print:
  2617                           	callstack 27
  2618   001652                     
  2619                           ;clcd.c: 65: void clcd_print(const unsigned char *data, unsigned char addr);clcd.c: 66: 
      +                          {;clcd.c: 67:  clcd_write(addr, 0);
  2620   001652  0E00               	movlw	0
  2621   001654  6E01               	movwf	clcd_write@control_bit^0,c
  2622   001656  5005               	movf	clcd_print@addr^0,w,c
  2623   001658  EC8B  F00B         	call	_clcd_write
  2624                           
  2625                           ;clcd.c: 68:  while (*data != '\0')
  2626   00165C  EF3C  F00B         	goto	l1620
  2627   001660                     l1616:
  2628                           
  2629                           ;clcd.c: 69:  {;clcd.c: 70:   clcd_write(*data++, 1);
  2630   001660  0E01               	movlw	1
  2631   001662  6E01               	movwf	clcd_write@control_bit^0,c
  2632   001664  C003  FFF6         	movff	clcd_print@data,tblptrl
  2633   001668  C004  FFF7         	movff	clcd_print@data+1,tblptrh
  2634   00166C                     	if	0	;tblptru may be non-zero
  2635   00166C                     	endif
  2636   00166C                     	if	0	;tblptru may be non-zero
  2637   00166C                     	endif
  2638   00166C  0008               	tblrd		*
  2639   00166E  50F5               	movf	tablat,w,c
  2640   001670  EC8B  F00B         	call	_clcd_write
  2641   001674  4A03               	infsnz	clcd_print@data^0,f,c
  2642   001676  2A04               	incf	(clcd_print@data+1)^0,f,c
  2643   001678                     l1620:
  2644                           
  2645                           ;clcd.c: 68:  while (*data != '\0')
  2646   001678  C003  FFF6         	movff	clcd_print@data,tblptrl
  2647   00167C  C004  FFF7         	movff	clcd_print@data+1,tblptrh
  2648   001680                     	if	0	;tblptru may be non-zero
  2649   001680                     	endif
  2650   001680                     	if	0	;tblptru may be non-zero
  2651   001680                     	endif
  2652   001680  0008               	tblrd		*
  2653   001682  50F5               	movf	tablat,w,c
  2654   001684  0900               	iorlw	0
  2655   001686  A4D8               	btfss	status,2,c
  2656   001688  EF48  F00B         	goto	u1001
  2657   00168C  EF4A  F00B         	goto	u1000
  2658   001690                     u1001:
  2659   001690  EF30  F00B         	goto	l1616
  2660   001694                     u1000:
  2661   001694  0012               	return		;funcret
  2662   001696                     __end_of_clcd_print:
  2663                           	callstack 0
  2664                           
  2665 ;; *************** function _display_speed *****************
  2666 ;; Defined at:
  2667 ;;		line 47 in file "car_black_box.c"
  2668 ;; Parameters:    Size  Location     Type
  2669 ;;  speed           2    9[COMRAM] unsigned short 
  2670 ;; Auto vars:     Size  Location     Type
  2671 ;;		None
  2672 ;; Return value:  Size  Location     Type
  2673 ;;                  1    wreg      void 
  2674 ;; Registers used:
  2675 ;;		wreg, status,2, status,0, cstack
  2676 ;; Tracked objects:
  2677 ;;		On entry : 0/0
  2678 ;;		On exit  : 0/0
  2679 ;;		Unchanged: 0/0
  2680 ;; Data sizes:     COMRAM   BANK0   BANK1   BANK2   BANK3   BANK4   BANK5
  2681 ;;      Params:         2       0       0       0       0       0       0
  2682 ;;      Locals:         0       0       0       0       0       0       0
  2683 ;;      Temps:          0       0       0       0       0       0       0
  2684 ;;      Totals:         2       0       0       0       0       0       0
  2685 ;;Total ram usage:        2 bytes
  2686 ;; Hardware stack levels used: 1
  2687 ;; Hardware stack levels required when called: 3
  2688 ;; This function calls:
  2689 ;;		___lwdiv
  2690 ;;		___lwmod
  2691 ;;		_clcd_putch
  2692 ;; This function is called by:
  2693 ;;		_display_dashboard
  2694 ;; This function uses a non-reentrant model
  2695 ;;
  2696                           
  2697                           	psect	text14
  2698   001696                     __ptext14:
  2699                           	callstack 0
  2700   001696                     _display_speed:
  2701                           	callstack 26
  2702   001696                     
  2703                           ;car_black_box.c: 48:     clcd_putch((speed / 10) + 48, (0xC0 + (13)));
  2704   001696  0ECD               	movlw	205
  2705   001698  6E08               	movwf	clcd_putch@addr^0,c
  2706   00169A  C00A  F001         	movff	display_speed@speed,___lwdiv@dividend
  2707   00169E  C00B  F002         	movff	display_speed@speed+1,___lwdiv@dividend+1
  2708   0016A2  0E00               	movlw	0
  2709   0016A4  6E04               	movwf	(___lwdiv@divisor+1)^0,c
  2710   0016A6  0E0A               	movlw	10
  2711   0016A8  6E03               	movwf	___lwdiv@divisor^0,c
  2712   0016AA  EC3D  F00A         	call	___lwdiv	;wreg free
  2713   0016AE  5001               	movf	?___lwdiv^0,w,c
  2714   0016B0  0F30               	addlw	48
  2715   0016B2  ECDC  F00B         	call	_clcd_putch
  2716                           
  2717                           ;car_black_box.c: 49:     clcd_putch((speed % 10) + 48, (0xC0 + (14)));
  2718   0016B6  0ECE               	movlw	206
  2719   0016B8  6E08               	movwf	clcd_putch@addr^0,c
  2720   0016BA  C00A  F001         	movff	display_speed@speed,___lwmod@dividend
  2721   0016BE  C00B  F002         	movff	display_speed@speed+1,___lwmod@dividend+1
  2722   0016C2  0E00               	movlw	0
  2723   0016C4  6E04               	movwf	(___lwmod@divisor+1)^0,c
  2724   0016C6  0E0A               	movlw	10
  2725   0016C8  6E03               	movwf	___lwmod@divisor^0,c
  2726   0016CA  ECB0  F00A         	call	___lwmod	;wreg free
  2727   0016CE  5001               	movf	?___lwmod^0,w,c
  2728   0016D0  0F30               	addlw	48
  2729   0016D2  ECDC  F00B         	call	_clcd_putch
  2730   0016D6  0012               	return		;funcret
  2731   0016D8                     __end_of_display_speed:
  2732                           	callstack 0
  2733                           
  2734 ;; *************** function _clcd_putch *****************
  2735 ;; Defined at:
  2736 ;;		line 74 in file "clcd.c"
  2737 ;; Parameters:    Size  Location     Type
  2738 ;;  data            1    wreg     const unsigned char 
  2739 ;;  addr            1    7[COMRAM] unsigned char 
  2740 ;; Auto vars:     Size  Location     Type
  2741 ;;  data            1    8[COMRAM] const unsigned char 
  2742 ;; Return value:  Size  Location     Type
  2743 ;;                  1    wreg      void 
  2744 ;; Registers used:
  2745 ;;		wreg, status,2, cstack
  2746 ;; Tracked objects:
  2747 ;;		On entry : 0/0
  2748 ;;		On exit  : 0/0
  2749 ;;		Unchanged: 0/0
  2750 ;; Data sizes:     COMRAM   BANK0   BANK1   BANK2   BANK3   BANK4   BANK5
  2751 ;;      Params:         1       0       0       0       0       0       0
  2752 ;;      Locals:         1       0       0       0       0       0       0
  2753 ;;      Temps:          0       0       0       0       0       0       0
  2754 ;;      Totals:         2       0       0       0       0       0       0
  2755 ;;Total ram usage:        2 bytes
  2756 ;; Hardware stack levels used: 1
  2757 ;; Hardware stack levels required when called: 2
  2758 ;; This function calls:
  2759 ;;		_clcd_write
  2760 ;; This function is called by:
  2761 ;;		_display_speed
  2762 ;;		_read_password
  2763 ;; This function uses a non-reentrant model
  2764 ;;
  2765                           
  2766                           	psect	text15
  2767   0017B8                     __ptext15:
  2768                           	callstack 0
  2769   0017B8                     _clcd_putch:
  2770                           	callstack 27
  2771                           
  2772                           ;incstack = 0
  2773                           ;clcd_putch@data stored from wreg
  2774   0017B8  6E09               	movwf	clcd_putch@data^0,c
  2775   0017BA                     
  2776                           ;clcd.c: 74: void clcd_putch(const unsigned char data, unsigned char addr);clcd.c: 75: {
      +                          ;clcd.c: 76:  clcd_write(addr, 0);
  2777   0017BA  0E00               	movlw	0
  2778   0017BC  6E01               	movwf	clcd_write@control_bit^0,c
  2779   0017BE  5008               	movf	clcd_putch@addr^0,w,c
  2780   0017C0  EC8B  F00B         	call	_clcd_write
  2781                           
  2782                           ;clcd.c: 77:  clcd_write(data, 1);
  2783   0017C4  0E01               	movlw	1
  2784   0017C6  6E01               	movwf	clcd_write@control_bit^0,c
  2785   0017C8  5009               	movf	clcd_putch@data^0,w,c
  2786   0017CA  EC8B  F00B         	call	_clcd_write
  2787   0017CE  0012               	return		;funcret
  2788   0017D0                     __end_of_clcd_putch:
  2789                           	callstack 0
  2790                           
  2791 ;; *************** function _clcd_write *****************
  2792 ;; Defined at:
  2793 ;;		line 11 in file "clcd.c"
  2794 ;; Parameters:    Size  Location     Type
  2795 ;;  byte            1    wreg     unsigned char 
  2796 ;;  control_bit     1    0[COMRAM] unsigned char 
  2797 ;; Auto vars:     Size  Location     Type
  2798 ;;  byte            1    1[COMRAM] unsigned char 
  2799 ;; Return value:  Size  Location     Type
  2800 ;;                  1    wreg      void 
  2801 ;; Registers used:
  2802 ;;		wreg
  2803 ;; Tracked objects:
  2804 ;;		On entry : 0/0
  2805 ;;		On exit  : 0/0
  2806 ;;		Unchanged: 0/0
  2807 ;; Data sizes:     COMRAM   BANK0   BANK1   BANK2   BANK3   BANK4   BANK5
  2808 ;;      Params:         1       0       0       0       0       0       0
  2809 ;;      Locals:         1       0       0       0       0       0       0
  2810 ;;      Temps:          0       0       0       0       0       0       0
  2811 ;;      Totals:         2       0       0       0       0       0       0
  2812 ;;Total ram usage:        2 bytes
  2813 ;; Hardware stack levels used: 1
  2814 ;; Hardware stack levels required when called: 1
  2815 ;; This function calls:
  2816 ;;		Nothing
  2817 ;; This function is called by:
  2818 ;;		_init_clcd
  2819 ;;		_clcd_print
  2820 ;;		_clcd_putch
  2821 ;; This function uses a non-reentrant model
  2822 ;;
  2823                           
  2824                           	psect	text16
  2825   001716                     __ptext16:
  2826                           	callstack 0
  2827   001716                     _clcd_write:
  2828                           	callstack 27
  2829                           
  2830                           ;incstack = 0
  2831                           ;clcd_write@byte stored from wreg
  2832   001716  6E02               	movwf	clcd_write@byte^0,c
  2833   001718                     
  2834                           ;clcd.c: 11: void clcd_write(unsigned char byte, unsigned char control_bit);clcd.c: 12: 
      +                          {;clcd.c: 13:  RC1 = control_bit;
  2835   001718  B001               	btfsc	clcd_write@control_bit^0,0,c
  2836   00171A  EF91  F00B         	goto	u971
  2837   00171E  EF94  F00B         	goto	u970
  2838   001722                     u971:
  2839   001722  8282               	bsf	3970,1,c	;volatile
  2840   001724  EF95  F00B         	goto	u985
  2841   001728                     u970:
  2842   001728  9282               	bcf	3970,1,c	;volatile
  2843   00172A                     u985:
  2844   00172A                     
  2845                           ;clcd.c: 14:  PORTD = byte;
  2846   00172A  C002  FF83         	movff	clcd_write@byte,3971	;volatile
  2847   00172E                     
  2848                           ;clcd.c: 17:  RC2 = 1;
  2849   00172E  8482               	bsf	3970,2,c	;volatile
  2850   001730                     
  2851                           ;clcd.c: 18:  RC2 = 0;
  2852   001730  9482               	bcf	3970,2,c	;volatile
  2853   001732                     
  2854                           ;clcd.c: 20:  TRISD7 = 0xFF;
  2855   001732  8E95               	bsf	3989,7,c	;volatile
  2856   001734                     
  2857                           ;clcd.c: 21:  RC0 = 1;
  2858   001734  8082               	bsf	3970,0,c	;volatile
  2859   001736                     
  2860                           ;clcd.c: 22:  RC1 = 0;
  2861   001736  9282               	bcf	3970,1,c	;volatile
  2862   001738                     l1608:
  2863                           
  2864                           ;clcd.c: 25:  {;clcd.c: 26:   RC2 = 1;
  2865   001738  8482               	bsf	3970,2,c	;volatile
  2866   00173A                     
  2867                           ;clcd.c: 27:   RC2 = 0;
  2868   00173A  9482               	bcf	3970,2,c	;volatile
  2869   00173C                     
  2870                           ;clcd.c: 28:  } while (RD7);
  2871   00173C  BE83               	btfsc	3971,7,c	;volatile
  2872   00173E  EFA3  F00B         	goto	u991
  2873   001742  EFA5  F00B         	goto	u990
  2874   001746                     u991:
  2875   001746  EF9C  F00B         	goto	l1608
  2876   00174A                     u990:
  2877   00174A                     
  2878                           ;clcd.c: 30:  RC0 = 0;
  2879   00174A  9082               	bcf	3970,0,c	;volatile
  2880                           
  2881                           ;clcd.c: 31:  TRISD7 = 0x00;
  2882   00174C  9E95               	bcf	3989,7,c	;volatile
  2883   00174E  0012               	return		;funcret
  2884   001750                     __end_of_clcd_write:
  2885                           	callstack 0
  2886                           
  2887 ;; *************** function ___lwmod *****************
  2888 ;; Defined at:
  2889 ;;		line 7 in file "C:\Program Files\Microchip\xc8\v2.41\pic\sources\c99\common\lwmod.c"
  2890 ;; Parameters:    Size  Location     Type
  2891 ;;  dividend        2    0[COMRAM] unsigned int 
  2892 ;;  divisor         2    2[COMRAM] unsigned int 
  2893 ;; Auto vars:     Size  Location     Type
  2894 ;;  counter         1    4[COMRAM] unsigned char 
  2895 ;; Return value:  Size  Location     Type
  2896 ;;                  2    0[COMRAM] unsigned int 
  2897 ;; Registers used:
  2898 ;;		wreg, status,2, status,0
  2899 ;; Tracked objects:
  2900 ;;		On entry : 0/0
  2901 ;;		On exit  : 0/0
  2902 ;;		Unchanged: 0/0
  2903 ;; Data sizes:     COMRAM   BANK0   BANK1   BANK2   BANK3   BANK4   BANK5
  2904 ;;      Params:         4       0       0       0       0       0       0
  2905 ;;      Locals:         1       0       0       0       0       0       0
  2906 ;;      Temps:          0       0       0       0       0       0       0
  2907 ;;      Totals:         5       0       0       0       0       0       0
  2908 ;;Total ram usage:        5 bytes
  2909 ;; Hardware stack levels used: 1
  2910 ;; Hardware stack levels required when called: 1
  2911 ;; This function calls:
  2912 ;;		Nothing
  2913 ;; This function is called by:
  2914 ;;		_display_speed
  2915 ;;		_read_password
  2916 ;; This function uses a non-reentrant model
  2917 ;;
  2918                           
  2919                           	psect	text17
  2920   001560                     __ptext17:
  2921                           	callstack 0
  2922   001560                     ___lwmod:
  2923                           	callstack 28
  2924   001560  5003               	movf	___lwmod@divisor^0,w,c
  2925   001562  1004               	iorwf	(___lwmod@divisor+1)^0,w,c
  2926   001564  B4D8               	btfsc	status,2,c
  2927   001566  EFB7  F00A         	goto	u1161
  2928   00156A  EFB9  F00A         	goto	u1160
  2929   00156E                     u1161:
  2930   00156E  EFDD  F00A         	goto	l780
  2931   001572                     u1160:
  2932   001572  0E01               	movlw	1
  2933   001574  6E05               	movwf	___lwmod@counter^0,c
  2934   001576  EFC1  F00A         	goto	l1724
  2935   00157A                     l1722:
  2936   00157A  90D8               	bcf	status,0,c
  2937   00157C  3603               	rlcf	___lwmod@divisor^0,f,c
  2938   00157E  3604               	rlcf	(___lwmod@divisor+1)^0,f,c
  2939   001580  2A05               	incf	___lwmod@counter^0,f,c
  2940   001582                     l1724:
  2941   001582  AE04               	btfss	(___lwmod@divisor+1)^0,7,c
  2942   001584  EFC6  F00A         	goto	u1171
  2943   001588  EFC8  F00A         	goto	u1170
  2944   00158C                     u1171:
  2945   00158C  EFBD  F00A         	goto	l1722
  2946   001590                     u1170:
  2947   001590                     l1726:
  2948   001590  5003               	movf	___lwmod@divisor^0,w,c
  2949   001592  5C01               	subwf	___lwmod@dividend^0,w,c
  2950   001594  5004               	movf	(___lwmod@divisor+1)^0,w,c
  2951   001596  5802               	subwfb	(___lwmod@dividend+1)^0,w,c
  2952   001598  A0D8               	btfss	status,0,c
  2953   00159A  EFD1  F00A         	goto	u1181
  2954   00159E  EFD3  F00A         	goto	u1180
  2955   0015A2                     u1181:
  2956   0015A2  EFD7  F00A         	goto	l1730
  2957   0015A6                     u1180:
  2958   0015A6  5003               	movf	___lwmod@divisor^0,w,c
  2959   0015A8  5E01               	subwf	___lwmod@dividend^0,f,c
  2960   0015AA  5004               	movf	(___lwmod@divisor+1)^0,w,c
  2961   0015AC  5A02               	subwfb	(___lwmod@dividend+1)^0,f,c
  2962   0015AE                     l1730:
  2963   0015AE  90D8               	bcf	status,0,c
  2964   0015B0  3204               	rrcf	(___lwmod@divisor+1)^0,f,c
  2965   0015B2  3203               	rrcf	___lwmod@divisor^0,f,c
  2966   0015B4  2E05               	decfsz	___lwmod@counter^0,f,c
  2967   0015B6  EFC8  F00A         	goto	l1726
  2968   0015BA                     l780:
  2969   0015BA  C001  F001         	movff	___lwmod@dividend,?___lwmod
  2970   0015BE  C002  F002         	movff	___lwmod@dividend+1,?___lwmod+1
  2971   0015C2  0012               	return		;funcret
  2972   0015C4                     __end_of___lwmod:
  2973                           	callstack 0
  2974                           
  2975 ;; *************** function ___lwdiv *****************
  2976 ;; Defined at:
  2977 ;;		line 7 in file "C:\Program Files\Microchip\xc8\v2.41\pic\sources\c99\common\lwdiv.c"
  2978 ;; Parameters:    Size  Location     Type
  2979 ;;  dividend        2    0[COMRAM] unsigned int 
  2980 ;;  divisor         2    2[COMRAM] unsigned int 
  2981 ;; Auto vars:     Size  Location     Type
  2982 ;;  quotient        2    4[COMRAM] unsigned int 
  2983 ;;  counter         1    6[COMRAM] unsigned char 
  2984 ;; Return value:  Size  Location     Type
  2985 ;;                  2    0[COMRAM] unsigned int 
  2986 ;; Registers used:
  2987 ;;		wreg, status,2, status,0
  2988 ;; Tracked objects:
  2989 ;;		On entry : 0/0
  2990 ;;		On exit  : 0/0
  2991 ;;		Unchanged: 0/0
  2992 ;; Data sizes:     COMRAM   BANK0   BANK1   BANK2   BANK3   BANK4   BANK5
  2993 ;;      Params:         4       0       0       0       0       0       0
  2994 ;;      Locals:         3       0       0       0       0       0       0
  2995 ;;      Temps:          0       0       0       0       0       0       0
  2996 ;;      Totals:         7       0       0       0       0       0       0
  2997 ;;Total ram usage:        7 bytes
  2998 ;; Hardware stack levels used: 1
  2999 ;; Hardware stack levels required when called: 1
  3000 ;; This function calls:
  3001 ;;		Nothing
  3002 ;; This function is called by:
  3003 ;;		_display_speed
  3004 ;;		_read_password
  3005 ;; This function uses a non-reentrant model
  3006 ;;
  3007                           
  3008                           	psect	text18
  3009   00147A                     __ptext18:
  3010                           	callstack 0
  3011   00147A                     ___lwdiv:
  3012                           	callstack 28
  3013   00147A  0E00               	movlw	0
  3014   00147C  6E06               	movwf	(___lwdiv@quotient+1)^0,c
  3015   00147E  0E00               	movlw	0
  3016   001480  6E05               	movwf	___lwdiv@quotient^0,c
  3017   001482  5003               	movf	___lwdiv@divisor^0,w,c
  3018   001484  1004               	iorwf	(___lwdiv@divisor+1)^0,w,c
  3019   001486  B4D8               	btfsc	status,2,c
  3020   001488  EF48  F00A         	goto	u1131
  3021   00148C  EF4A  F00A         	goto	u1130
  3022   001490                     u1131:
  3023   001490  EF72  F00A         	goto	l770
  3024   001494                     u1130:
  3025   001494  0E01               	movlw	1
  3026   001496  6E07               	movwf	___lwdiv@counter^0,c
  3027   001498  EF52  F00A         	goto	l1704
  3028   00149C                     l1702:
  3029   00149C  90D8               	bcf	status,0,c
  3030   00149E  3603               	rlcf	___lwdiv@divisor^0,f,c
  3031   0014A0  3604               	rlcf	(___lwdiv@divisor+1)^0,f,c
  3032   0014A2  2A07               	incf	___lwdiv@counter^0,f,c
  3033   0014A4                     l1704:
  3034   0014A4  AE04               	btfss	(___lwdiv@divisor+1)^0,7,c
  3035   0014A6  EF57  F00A         	goto	u1141
  3036   0014AA  EF59  F00A         	goto	u1140
  3037   0014AE                     u1141:
  3038   0014AE  EF4E  F00A         	goto	l1702
  3039   0014B2                     u1140:
  3040   0014B2                     l1706:
  3041   0014B2  90D8               	bcf	status,0,c
  3042   0014B4  3605               	rlcf	___lwdiv@quotient^0,f,c
  3043   0014B6  3606               	rlcf	(___lwdiv@quotient+1)^0,f,c
  3044   0014B8  5003               	movf	___lwdiv@divisor^0,w,c
  3045   0014BA  5C01               	subwf	___lwdiv@dividend^0,w,c
  3046   0014BC  5004               	movf	(___lwdiv@divisor+1)^0,w,c
  3047   0014BE  5802               	subwfb	(___lwdiv@dividend+1)^0,w,c
  3048   0014C0  A0D8               	btfss	status,0,c
  3049   0014C2  EF65  F00A         	goto	u1151
  3050   0014C6  EF67  F00A         	goto	u1150
  3051   0014CA                     u1151:
  3052   0014CA  EF6C  F00A         	goto	l1714
  3053   0014CE                     u1150:
  3054   0014CE  5003               	movf	___lwdiv@divisor^0,w,c
  3055   0014D0  5E01               	subwf	___lwdiv@dividend^0,f,c
  3056   0014D2  5004               	movf	(___lwdiv@divisor+1)^0,w,c
  3057   0014D4  5A02               	subwfb	(___lwdiv@dividend+1)^0,f,c
  3058   0014D6  8005               	bsf	___lwdiv@quotient^0,0,c
  3059   0014D8                     l1714:
  3060   0014D8  90D8               	bcf	status,0,c
  3061   0014DA  3204               	rrcf	(___lwdiv@divisor+1)^0,f,c
  3062   0014DC  3203               	rrcf	___lwdiv@divisor^0,f,c
  3063   0014DE  2E07               	decfsz	___lwdiv@counter^0,f,c
  3064   0014E0  EF59  F00A         	goto	l1706
  3065   0014E4                     l770:
  3066   0014E4  C005  F001         	movff	___lwdiv@quotient,?___lwdiv
  3067   0014E8  C006  F002         	movff	___lwdiv@quotient+1,?___lwdiv+1
  3068   0014EC  0012               	return		;funcret
  3069   0014EE                     __end_of___lwdiv:
  3070                           	callstack 0
  3071                           
  3072 ;; *************** function ___xxtofl *****************
  3073 ;; Defined at:
  3074 ;;		line 10 in file "C:\Program Files\Microchip\xc8\v2.41\pic\sources\c99\common\xxtofl.c"
  3075 ;; Parameters:    Size  Location     Type
  3076 ;;  sign            1    wreg     unsigned char 
  3077 ;;  val             4    8[COMRAM] long 
  3078 ;; Auto vars:     Size  Location     Type
  3079 ;;  sign            1   16[COMRAM] unsigned char 
  3080 ;;  arg             4   18[COMRAM] unsigned long 
  3081 ;;  exp             1   17[COMRAM] unsigned char 
  3082 ;; Return value:  Size  Location     Type
  3083 ;;                  4    8[COMRAM] unsigned char 
  3084 ;; Registers used:
  3085 ;;		wreg, status,2, status,0
  3086 ;; Tracked objects:
  3087 ;;		On entry : 0/0
  3088 ;;		On exit  : 0/0
  3089 ;;		Unchanged: 0/0
  3090 ;; Data sizes:     COMRAM   BANK0   BANK1   BANK2   BANK3   BANK4   BANK5
  3091 ;;      Params:         4       0       0       0       0       0       0
  3092 ;;      Locals:         6       0       0       0       0       0       0
  3093 ;;      Temps:          4       0       0       0       0       0       0
  3094 ;;      Totals:        14       0       0       0       0       0       0
  3095 ;;Total ram usage:       14 bytes
  3096 ;; Hardware stack levels used: 1
  3097 ;; Hardware stack levels required when called: 1
  3098 ;; This function calls:
  3099 ;;		Nothing
  3100 ;; This function is called by:
  3101 ;;		_display_dashboard
  3102 ;; This function uses a non-reentrant model
  3103 ;;
  3104                           
  3105                           	psect	text19
  3106   000E6A                     __ptext19:
  3107                           	callstack 0
  3108   000E6A                     ___xxtofl:
  3109                           	callstack 28
  3110                           
  3111                           ;incstack = 0
  3112                           ;___xxtofl@sign stored from wreg
  3113   000E6A  6E11               	movwf	___xxtofl@sign^0,c
  3114   000E6C  5011               	movf	___xxtofl@sign^0,w,c
  3115   000E6E  B4D8               	btfsc	status,2,c
  3116   000E70  EF3C  F007         	goto	u1651
  3117   000E74  EF3E  F007         	goto	u1650
  3118   000E78                     u1651:
  3119   000E78  EF60  F007         	goto	l934
  3120   000E7C                     u1650:
  3121   000E7C  BE0C               	btfsc	(___xxtofl@val+3)^0,7,c
  3122   000E7E  EF45  F007         	goto	u1660
  3123   000E82  EF43  F007         	goto	u1661
  3124   000E86                     u1661:
  3125   000E86  EF60  F007         	goto	l934
  3126   000E8A                     u1660:
  3127   000E8A  C009  F00D         	movff	___xxtofl@val,??___xxtofl
  3128   000E8E  C00A  F00E         	movff	___xxtofl@val+1,??___xxtofl+1
  3129   000E92  C00B  F00F         	movff	___xxtofl@val+2,??___xxtofl+2
  3130   000E96  C00C  F010         	movff	___xxtofl@val+3,??___xxtofl+3
  3131   000E9A  1E0D               	comf	??___xxtofl^0,f,c
  3132   000E9C  1E0E               	comf	(??___xxtofl+1)^0,f,c
  3133   000E9E  1E0F               	comf	(??___xxtofl+2)^0,f,c
  3134   000EA0  1E10               	comf	(??___xxtofl+3)^0,f,c
  3135   000EA2  2A0D               	incf	??___xxtofl^0,f,c
  3136   000EA4  0E00               	movlw	0
  3137   000EA6  220E               	addwfc	(??___xxtofl+1)^0,f,c
  3138   000EA8  220F               	addwfc	(??___xxtofl+2)^0,f,c
  3139   000EAA  2210               	addwfc	(??___xxtofl+3)^0,f,c
  3140   000EAC  C00D  F013         	movff	??___xxtofl,___xxtofl@arg
  3141   000EB0  C00E  F014         	movff	??___xxtofl+1,___xxtofl@arg+1
  3142   000EB4  C00F  F015         	movff	??___xxtofl+2,___xxtofl@arg+2
  3143   000EB8  C010  F016         	movff	??___xxtofl+3,___xxtofl@arg+3
  3144   000EBC  EF68  F007         	goto	l2030
  3145   000EC0                     l934:
  3146   000EC0  C009  F013         	movff	___xxtofl@val,___xxtofl@arg
  3147   000EC4  C00A  F014         	movff	___xxtofl@val+1,___xxtofl@arg+1
  3148   000EC8  C00B  F015         	movff	___xxtofl@val+2,___xxtofl@arg+2
  3149   000ECC  C00C  F016         	movff	___xxtofl@val+3,___xxtofl@arg+3
  3150   000ED0                     l2030:
  3151   000ED0  5009               	movf	___xxtofl@val^0,w,c
  3152   000ED2  100A               	iorwf	(___xxtofl@val+1)^0,w,c
  3153   000ED4  100B               	iorwf	(___xxtofl@val+2)^0,w,c
  3154   000ED6  100C               	iorwf	(___xxtofl@val+3)^0,w,c
  3155   000ED8  A4D8               	btfss	status,2,c
  3156   000EDA  EF71  F007         	goto	u1671
  3157   000EDE  EF73  F007         	goto	u1670
  3158   000EE2                     u1671:
  3159   000EE2  EF7D  F007         	goto	l2036
  3160   000EE6                     u1670:
  3161   000EE6  0E00               	movlw	0
  3162   000EE8  6E09               	movwf	?___xxtofl^0,c
  3163   000EEA  0E00               	movlw	0
  3164   000EEC  6E0A               	movwf	(?___xxtofl+1)^0,c
  3165   000EEE  0E00               	movlw	0
  3166   000EF0  6E0B               	movwf	(?___xxtofl+2)^0,c
  3167   000EF2  0E00               	movlw	0
  3168   000EF4  6E0C               	movwf	(?___xxtofl+3)^0,c
  3169   000EF6  EF0E  F008         	goto	l937
  3170   000EFA                     l2036:
  3171   000EFA  0E96               	movlw	150
  3172   000EFC  6E12               	movwf	___xxtofl@exp^0,c
  3173   000EFE  EF87  F007         	goto	l2040
  3174   000F02                     l2038:
  3175   000F02  2A12               	incf	___xxtofl@exp^0,f,c
  3176   000F04  90D8               	bcf	status,0,c
  3177   000F06  3216               	rrcf	(___xxtofl@arg+3)^0,f,c
  3178   000F08  3215               	rrcf	(___xxtofl@arg+2)^0,f,c
  3179   000F0A  3214               	rrcf	(___xxtofl@arg+1)^0,f,c
  3180   000F0C  3213               	rrcf	___xxtofl@arg^0,f,c
  3181   000F0E                     l2040:
  3182   000F0E  0E00               	movlw	0
  3183   000F10  1413               	andwf	___xxtofl@arg^0,w,c
  3184   000F12  6E0D               	movwf	??___xxtofl^0,c
  3185   000F14  0E00               	movlw	0
  3186   000F16  1414               	andwf	(___xxtofl@arg+1)^0,w,c
  3187   000F18  6E0E               	movwf	(??___xxtofl+1)^0,c
  3188   000F1A  0E00               	movlw	0
  3189   000F1C  1415               	andwf	(___xxtofl@arg+2)^0,w,c
  3190   000F1E  6E0F               	movwf	(??___xxtofl+2)^0,c
  3191   000F20  0EFE               	movlw	254
  3192   000F22  1416               	andwf	(___xxtofl@arg+3)^0,w,c
  3193   000F24  6E10               	movwf	(??___xxtofl+3)^0,c
  3194   000F26  500D               	movf	??___xxtofl^0,w,c
  3195   000F28  100E               	iorwf	(??___xxtofl+1)^0,w,c
  3196   000F2A  100F               	iorwf	(??___xxtofl+2)^0,w,c
  3197   000F2C  1010               	iorwf	(??___xxtofl+3)^0,w,c
  3198   000F2E  A4D8               	btfss	status,2,c
  3199   000F30  EF9C  F007         	goto	u1681
  3200   000F34  EF9E  F007         	goto	u1680
  3201   000F38                     u1681:
  3202   000F38  EF81  F007         	goto	l2038
  3203   000F3C                     u1680:
  3204   000F3C  EFAC  F007         	goto	l941
  3205   000F40                     l2042:
  3206   000F40  2A12               	incf	___xxtofl@exp^0,f,c
  3207   000F42  0E01               	movlw	1
  3208   000F44  2613               	addwf	___xxtofl@arg^0,f,c
  3209   000F46  0E00               	movlw	0
  3210   000F48  2214               	addwfc	(___xxtofl@arg+1)^0,f,c
  3211   000F4A  2215               	addwfc	(___xxtofl@arg+2)^0,f,c
  3212   000F4C  2216               	addwfc	(___xxtofl@arg+3)^0,f,c
  3213   000F4E  90D8               	bcf	status,0,c
  3214   000F50  3216               	rrcf	(___xxtofl@arg+3)^0,f,c
  3215   000F52  3215               	rrcf	(___xxtofl@arg+2)^0,f,c
  3216   000F54  3214               	rrcf	(___xxtofl@arg+1)^0,f,c
  3217   000F56  3213               	rrcf	___xxtofl@arg^0,f,c
  3218   000F58                     l941:
  3219   000F58  0E00               	movlw	0
  3220   000F5A  1413               	andwf	___xxtofl@arg^0,w,c
  3221   000F5C  6E0D               	movwf	??___xxtofl^0,c
  3222   000F5E  0E00               	movlw	0
  3223   000F60  1414               	andwf	(___xxtofl@arg+1)^0,w,c
  3224   000F62  6E0E               	movwf	(??___xxtofl+1)^0,c
  3225   000F64  0E00               	movlw	0
  3226   000F66  1415               	andwf	(___xxtofl@arg+2)^0,w,c
  3227   000F68  6E0F               	movwf	(??___xxtofl+2)^0,c
  3228   000F6A  0EFF               	movlw	255
  3229   000F6C  1416               	andwf	(___xxtofl@arg+3)^0,w,c
  3230   000F6E  6E10               	movwf	(??___xxtofl+3)^0,c
  3231   000F70  500D               	movf	??___xxtofl^0,w,c
  3232   000F72  100E               	iorwf	(??___xxtofl+1)^0,w,c
  3233   000F74  100F               	iorwf	(??___xxtofl+2)^0,w,c
  3234   000F76  1010               	iorwf	(??___xxtofl+3)^0,w,c
  3235   000F78  A4D8               	btfss	status,2,c
  3236   000F7A  EFC1  F007         	goto	u1691
  3237   000F7E  EFC3  F007         	goto	u1690
  3238   000F82                     u1691:
  3239   000F82  EFA0  F007         	goto	l2042
  3240   000F86                     u1690:
  3241   000F86  EFCB  F007         	goto	l2050
  3242   000F8A                     l2048:
  3243   000F8A  0612               	decf	___xxtofl@exp^0,f,c
  3244   000F8C  90D8               	bcf	status,0,c
  3245   000F8E  3613               	rlcf	___xxtofl@arg^0,f,c
  3246   000F90  3614               	rlcf	(___xxtofl@arg+1)^0,f,c
  3247   000F92  3615               	rlcf	(___xxtofl@arg+2)^0,f,c
  3248   000F94  3616               	rlcf	(___xxtofl@arg+3)^0,f,c
  3249   000F96                     l2050:
  3250   000F96  BE15               	btfsc	(___xxtofl@arg+2)^0,7,c
  3251   000F98  EFD0  F007         	goto	u1701
  3252   000F9C  EFD2  F007         	goto	u1700
  3253   000FA0                     u1701:
  3254   000FA0  EFDA  F007         	goto	l948
  3255   000FA4                     u1700:
  3256   000FA4  0E02               	movlw	2
  3257   000FA6  6012               	cpfslt	___xxtofl@exp^0,c
  3258   000FA8  EFD8  F007         	goto	u1711
  3259   000FAC  EFDA  F007         	goto	u1710
  3260   000FB0                     u1711:
  3261   000FB0  EFC5  F007         	goto	l2048
  3262   000FB4                     u1710:
  3263   000FB4                     l948:
  3264   000FB4  B012               	btfsc	___xxtofl@exp^0,0,c
  3265   000FB6  EFDF  F007         	goto	u1721
  3266   000FBA  EFE1  F007         	goto	u1720
  3267   000FBE                     u1721:
  3268   000FBE  EFE2  F007         	goto	l2056
  3269   000FC2                     u1720:
  3270   000FC2  9E15               	bcf	(___xxtofl@arg+2)^0,7,c
  3271   000FC4                     l2056:
  3272   000FC4  90D8               	bcf	status,0,c
  3273   000FC6  3212               	rrcf	___xxtofl@exp^0,f,c
  3274   000FC8  C012  F00D         	movff	___xxtofl@exp,??___xxtofl
  3275   000FCC  6A0E               	clrf	(??___xxtofl+1)^0,c
  3276   000FCE  6A0F               	clrf	(??___xxtofl+2)^0,c
  3277   000FD0  6A10               	clrf	(??___xxtofl+3)^0,c
  3278   000FD2  C00D  F010         	movff	??___xxtofl,??___xxtofl+3
  3279   000FD6  6A0F               	clrf	(??___xxtofl+2)^0,c
  3280   000FD8  6A0E               	clrf	(??___xxtofl+1)^0,c
  3281   000FDA  6A0D               	clrf	??___xxtofl^0,c
  3282   000FDC  500D               	movf	??___xxtofl^0,w,c
  3283   000FDE  1213               	iorwf	___xxtofl@arg^0,f,c
  3284   000FE0  500E               	movf	(??___xxtofl+1)^0,w,c
  3285   000FE2  1214               	iorwf	(___xxtofl@arg+1)^0,f,c
  3286   000FE4  500F               	movf	(??___xxtofl+2)^0,w,c
  3287   000FE6  1215               	iorwf	(___xxtofl@arg+2)^0,f,c
  3288   000FE8  5010               	movf	(??___xxtofl+3)^0,w,c
  3289   000FEA  1216               	iorwf	(___xxtofl@arg+3)^0,f,c
  3290   000FEC  5011               	movf	___xxtofl@sign^0,w,c
  3291   000FEE  B4D8               	btfsc	status,2,c
  3292   000FF0  EFFC  F007         	goto	u1731
  3293   000FF4  EFFE  F007         	goto	u1730
  3294   000FF8                     u1731:
  3295   000FF8  EF06  F008         	goto	l2066
  3296   000FFC                     u1730:
  3297   000FFC  BE0C               	btfsc	(___xxtofl@val+3)^0,7,c
  3298   000FFE  EF05  F008         	goto	u1740
  3299   001002  EF03  F008         	goto	u1741
  3300   001006                     u1741:
  3301   001006  EF06  F008         	goto	l2066
  3302   00100A                     u1740:
  3303   00100A  8E16               	bsf	(___xxtofl@arg+3)^0,7,c
  3304   00100C                     l2066:
  3305   00100C  C013  F009         	movff	___xxtofl@arg,?___xxtofl
  3306   001010  C014  F00A         	movff	___xxtofl@arg+1,?___xxtofl+1
  3307   001014  C015  F00B         	movff	___xxtofl@arg+2,?___xxtofl+2
  3308   001018  C016  F00C         	movff	___xxtofl@arg+3,?___xxtofl+3
  3309   00101C                     l937:
  3310   00101C  0012               	return		;funcret
  3311   00101E                     __end_of___xxtofl:
  3312                           	callstack 0
  3313                           
  3314 ;; *************** function ___fltol *****************
  3315 ;; Defined at:
  3316 ;;		line 43 in file "C:\Program Files\Microchip\xc8\v2.41\pic\sources\c99\common\fltol.c"
  3317 ;; Parameters:    Size  Location     Type
  3318 ;;  f1              4   47[COMRAM] unsigned char 
  3319 ;; Auto vars:     Size  Location     Type
  3320 ;;  exp1            1   56[COMRAM] unsigned char 
  3321 ;;  sign1           1   55[COMRAM] unsigned char 
  3322 ;; Return value:  Size  Location     Type
  3323 ;;                  4   47[COMRAM] long 
  3324 ;; Registers used:
  3325 ;;		wreg, status,2, status,0
  3326 ;; Tracked objects:
  3327 ;;		On entry : 0/0
  3328 ;;		On exit  : 0/0
  3329 ;;		Unchanged: 0/0
  3330 ;; Data sizes:     COMRAM   BANK0   BANK1   BANK2   BANK3   BANK4   BANK5
  3331 ;;      Params:         4       0       0       0       0       0       0
  3332 ;;      Locals:         2       0       0       0       0       0       0
  3333 ;;      Temps:          4       0       0       0       0       0       0
  3334 ;;      Totals:        10       0       0       0       0       0       0
  3335 ;;Total ram usage:       10 bytes
  3336 ;; Hardware stack levels used: 1
  3337 ;; Hardware stack levels required when called: 1
  3338 ;; This function calls:
  3339 ;;		Nothing
  3340 ;; This function is called by:
  3341 ;;		_display_dashboard
  3342 ;; This function uses a non-reentrant model
  3343 ;;
  3344                           
  3345                           	psect	text20
  3346   001232                     __ptext20:
  3347                           	callstack 0
  3348   001232                     ___fltol:
  3349                           	callstack 28
  3350   001232  3432               	rlcf	(___fltol@f1+2)^0,w,c
  3351   001234  3433               	rlcf	(___fltol@f1+3)^0,w,c
  3352   001236  6E39               	movwf	___fltol@exp1^0,c
  3353   001238  5039               	movf	___fltol@exp1^0,w,c
  3354   00123A  A4D8               	btfss	status,2,c
  3355   00123C  EF22  F009         	goto	u1581
  3356   001240  EF24  F009         	goto	u1580
  3357   001244                     u1581:
  3358   001244  EF2E  F009         	goto	l1986
  3359   001248                     u1580:
  3360   001248                     l1982:
  3361   001248  0E00               	movlw	0
  3362   00124A  6E30               	movwf	?___fltol^0,c
  3363   00124C  0E00               	movlw	0
  3364   00124E  6E31               	movwf	(?___fltol+1)^0,c
  3365   001250  0E00               	movlw	0
  3366   001252  6E32               	movwf	(?___fltol+2)^0,c
  3367   001254  0E00               	movlw	0
  3368   001256  6E33               	movwf	(?___fltol+3)^0,c
  3369   001258  EF9B  F009         	goto	l576
  3370   00125C                     l1986:
  3371   00125C  C030  F034         	movff	___fltol@f1,??___fltol
  3372   001260  C031  F035         	movff	___fltol@f1+1,??___fltol+1
  3373   001264  C032  F036         	movff	___fltol@f1+2,??___fltol+2
  3374   001268  C033  F037         	movff	___fltol@f1+3,??___fltol+3
  3375   00126C  0E20               	movlw	32
  3376   00126E  EF3E  F009         	goto	u1590
  3377   001272                     u1595:
  3378   001272  90D8               	bcf	status,0,c
  3379   001274  3237               	rrcf	(??___fltol+3)^0,f,c
  3380   001276  3236               	rrcf	(??___fltol+2)^0,f,c
  3381   001278  3235               	rrcf	(??___fltol+1)^0,f,c
  3382   00127A  3234               	rrcf	??___fltol^0,f,c
  3383   00127C                     u1590:
  3384   00127C  2EE8               	decfsz	wreg,f,c
  3385   00127E  EF39  F009         	goto	u1595
  3386   001282  5034               	movf	??___fltol^0,w,c
  3387   001284  6E38               	movwf	___fltol@sign1^0,c
  3388   001286  8E32               	bsf	(___fltol@f1+2)^0,7,c
  3389   001288  0EFF               	movlw	255
  3390   00128A  1630               	andwf	___fltol@f1^0,f,c
  3391   00128C  0EFF               	movlw	255
  3392   00128E  1631               	andwf	(___fltol@f1+1)^0,f,c
  3393   001290  0EFF               	movlw	255
  3394   001292  1632               	andwf	(___fltol@f1+2)^0,f,c
  3395   001294  0E00               	movlw	0
  3396   001296  1633               	andwf	(___fltol@f1+3)^0,f,c
  3397   001298  0E96               	movlw	150
  3398   00129A  5E39               	subwf	___fltol@exp1^0,f,c
  3399   00129C  BE39               	btfsc	___fltol@exp1^0,7,c
  3400   00129E  EF55  F009         	goto	u1600
  3401   0012A2  EF53  F009         	goto	u1601
  3402   0012A6                     u1601:
  3403   0012A6  EF6B  F009         	goto	l2006
  3404   0012AA                     u1600:
  3405   0012AA  5039               	movf	___fltol@exp1^0,w,c
  3406   0012AC  0A80               	xorlw	128
  3407   0012AE  0F97               	addlw	151
  3408   0012B0  B0D8               	btfsc	status,0,c
  3409   0012B2  EF5D  F009         	goto	u1611
  3410   0012B6  EF5F  F009         	goto	u1610
  3411   0012BA                     u1611:
  3412   0012BA  EF61  F009         	goto	l2002
  3413   0012BE                     u1610:
  3414   0012BE  EF24  F009         	goto	l1982
  3415   0012C2                     l2002:
  3416   0012C2  90D8               	bcf	status,0,c
  3417   0012C4  3233               	rrcf	(___fltol@f1+3)^0,f,c
  3418   0012C6  3232               	rrcf	(___fltol@f1+2)^0,f,c
  3419   0012C8  3231               	rrcf	(___fltol@f1+1)^0,f,c
  3420   0012CA  3230               	rrcf	___fltol@f1^0,f,c
  3421   0012CC  3E39               	incfsz	___fltol@exp1^0,f,c
  3422   0012CE  EF61  F009         	goto	l2002
  3423   0012D2  EF83  F009         	goto	l2016
  3424   0012D6                     l2006:
  3425   0012D6  0E1F               	movlw	31
  3426   0012D8  6439               	cpfsgt	___fltol@exp1^0,c
  3427   0012DA  EF71  F009         	goto	u1621
  3428   0012DE  EF73  F009         	goto	u1620
  3429   0012E2                     u1621:
  3430   0012E2  EF7B  F009         	goto	l2014
  3431   0012E6                     u1620:
  3432   0012E6  EF24  F009         	goto	l1982
  3433   0012EA                     l2012:
  3434   0012EA  90D8               	bcf	status,0,c
  3435   0012EC  3630               	rlcf	___fltol@f1^0,f,c
  3436   0012EE  3631               	rlcf	(___fltol@f1+1)^0,f,c
  3437   0012F0  3632               	rlcf	(___fltol@f1+2)^0,f,c
  3438   0012F2  3633               	rlcf	(___fltol@f1+3)^0,f,c
  3439   0012F4  0639               	decf	___fltol@exp1^0,f,c
  3440   0012F6                     l2014:
  3441   0012F6  5039               	movf	___fltol@exp1^0,w,c
  3442   0012F8  A4D8               	btfss	status,2,c
  3443   0012FA  EF81  F009         	goto	u1631
  3444   0012FE  EF83  F009         	goto	u1630
  3445   001302                     u1631:
  3446   001302  EF75  F009         	goto	l2012
  3447   001306                     u1630:
  3448   001306                     l2016:
  3449   001306  5038               	movf	___fltol@sign1^0,w,c
  3450   001308  B4D8               	btfsc	status,2,c
  3451   00130A  EF89  F009         	goto	u1641
  3452   00130E  EF8B  F009         	goto	u1640
  3453   001312                     u1641:
  3454   001312  EF93  F009         	goto	l2020
  3455   001316                     u1640:
  3456   001316  1E33               	comf	(___fltol@f1+3)^0,f,c
  3457   001318  1E32               	comf	(___fltol@f1+2)^0,f,c
  3458   00131A  1E31               	comf	(___fltol@f1+1)^0,f,c
  3459   00131C  6C30               	negf	___fltol@f1^0,c
  3460   00131E  0E00               	movlw	0
  3461   001320  2231               	addwfc	(___fltol@f1+1)^0,f,c
  3462   001322  2232               	addwfc	(___fltol@f1+2)^0,f,c
  3463   001324  2233               	addwfc	(___fltol@f1+3)^0,f,c
  3464   001326                     l2020:
  3465   001326  C030  F030         	movff	___fltol@f1,?___fltol
  3466   00132A  C031  F031         	movff	___fltol@f1+1,?___fltol+1
  3467   00132E  C032  F032         	movff	___fltol@f1+2,?___fltol+2
  3468   001332  C033  F033         	movff	___fltol@f1+3,?___fltol+3
  3469   001336                     l576:
  3470   001336  0012               	return		;funcret
  3471   001338                     __end_of___fltol:
  3472                           	callstack 0
  3473                           
  3474 ;; *************** function ___fldiv *****************
  3475 ;; Defined at:
  3476 ;;		line 11 in file "C:\Program Files\Microchip\xc8\v2.41\pic\sources\c99\common\sprcdiv.c"
  3477 ;; Parameters:    Size  Location     Type
  3478 ;;  b               4   22[COMRAM] long 
  3479 ;;  a               4   26[COMRAM] long 
  3480 ;; Auto vars:     Size  Location     Type
  3481 ;;  grs             4   41[COMRAM] unsigned long 
  3482 ;;  rem             4   34[COMRAM] unsigned long 
  3483 ;;  new_exp         2   39[COMRAM] short 
  3484 ;;  aexp            1   46[COMRAM] unsigned char 
  3485 ;;  bexp            1   45[COMRAM] unsigned char 
  3486 ;;  sign            1   38[COMRAM] unsigned char 
  3487 ;; Return value:  Size  Location     Type
  3488 ;;                  4   22[COMRAM] unsigned char 
  3489 ;; Registers used:
  3490 ;;		wreg, status,2, status,0
  3491 ;; Tracked objects:
  3492 ;;		On entry : 0/0
  3493 ;;		On exit  : 0/0
  3494 ;;		Unchanged: 0/0
  3495 ;; Data sizes:     COMRAM   BANK0   BANK1   BANK2   BANK3   BANK4   BANK5
  3496 ;;      Params:         8       0       0       0       0       0       0
  3497 ;;      Locals:        13       0       0       0       0       0       0
  3498 ;;      Temps:          4       0       0       0       0       0       0
  3499 ;;      Totals:        25       0       0       0       0       0       0
  3500 ;;Total ram usage:       25 bytes
  3501 ;; Hardware stack levels used: 1
  3502 ;; Hardware stack levels required when called: 1
  3503 ;; This function calls:
  3504 ;;		Nothing
  3505 ;; This function is called by:
  3506 ;;		_display_dashboard
  3507 ;; This function uses a non-reentrant model
  3508 ;;
  3509                           
  3510                           	psect	text21
  3511   000AD0                     __ptext21:
  3512                           	callstack 0
  3513   000AD0                     ___fldiv:
  3514                           	callstack 28
  3515   000AD0  501A               	movf	(___fldiv@b+3)^0,w,c
  3516   000AD2  0B80               	andlw	128
  3517   000AD4  6E27               	movwf	___fldiv@sign^0,c
  3518   000AD6  501A               	movf	(___fldiv@b+3)^0,w,c
  3519   000AD8  241A               	addwf	(___fldiv@b+3)^0,w,c
  3520   000ADA  6E2E               	movwf	___fldiv@bexp^0,c
  3521   000ADC  AE19               	btfss	(___fldiv@b+2)^0,7,c
  3522   000ADE  EF73  F005         	goto	u1351
  3523   000AE2  EF75  F005         	goto	u1350
  3524   000AE6                     u1351:
  3525   000AE6  EF76  F005         	goto	l1848
  3526   000AEA                     u1350:
  3527   000AEA  802E               	bsf	___fldiv@bexp^0,0,c
  3528   000AEC                     l1848:
  3529   000AEC  502E               	movf	___fldiv@bexp^0,w,c
  3530   000AEE  B4D8               	btfsc	status,2,c
  3531   000AF0  EF7C  F005         	goto	u1361
  3532   000AF4  EF7E  F005         	goto	u1360
  3533   000AF8                     u1361:
  3534   000AF8  EF93  F005         	goto	l1858
  3535   000AFC                     u1360:
  3536   000AFC  282E               	incf	___fldiv@bexp^0,w,c
  3537   000AFE  A4D8               	btfss	status,2,c
  3538   000B00  EF84  F005         	goto	u1371
  3539   000B04  EF86  F005         	goto	u1370
  3540   000B08                     u1371:
  3541   000B08  EF8E  F005         	goto	l1854
  3542   000B0C                     u1370:
  3543   000B0C  0E00               	movlw	0
  3544   000B0E  6E17               	movwf	___fldiv@b^0,c
  3545   000B10  0E00               	movlw	0
  3546   000B12  6E18               	movwf	(___fldiv@b+1)^0,c
  3547   000B14  0E00               	movlw	0
  3548   000B16  6E19               	movwf	(___fldiv@b+2)^0,c
  3549   000B18  0E00               	movlw	0
  3550   000B1A  6E1A               	movwf	(___fldiv@b+3)^0,c
  3551   000B1C                     l1854:
  3552   000B1C  8E19               	bsf	(___fldiv@b+2)^0,7,c
  3553   000B1E  0E00               	movlw	0
  3554   000B20  6E1A               	movwf	(___fldiv@b+3)^0,c
  3555   000B22  EF9B  F005         	goto	l1860
  3556   000B26                     l1858:
  3557   000B26  0E00               	movlw	0
  3558   000B28  6E17               	movwf	___fldiv@b^0,c
  3559   000B2A  0E00               	movlw	0
  3560   000B2C  6E18               	movwf	(___fldiv@b+1)^0,c
  3561   000B2E  0E00               	movlw	0
  3562   000B30  6E19               	movwf	(___fldiv@b+2)^0,c
  3563   000B32  0E00               	movlw	0
  3564   000B34  6E1A               	movwf	(___fldiv@b+3)^0,c
  3565   000B36                     l1860:
  3566   000B36  501E               	movf	(___fldiv@a+3)^0,w,c
  3567   000B38  0B80               	andlw	128
  3568   000B3A  1A27               	xorwf	___fldiv@sign^0,f,c
  3569   000B3C  501E               	movf	(___fldiv@a+3)^0,w,c
  3570   000B3E  241E               	addwf	(___fldiv@a+3)^0,w,c
  3571   000B40  6E2F               	movwf	___fldiv@aexp^0,c
  3572   000B42  AE1D               	btfss	(___fldiv@a+2)^0,7,c
  3573   000B44  EFA6  F005         	goto	u1381
  3574   000B48  EFA8  F005         	goto	u1380
  3575   000B4C                     u1381:
  3576   000B4C  EFA9  F005         	goto	l1868
  3577   000B50                     u1380:
  3578   000B50  802F               	bsf	___fldiv@aexp^0,0,c
  3579   000B52                     l1868:
  3580   000B52  502F               	movf	___fldiv@aexp^0,w,c
  3581   000B54  B4D8               	btfsc	status,2,c
  3582   000B56  EFAF  F005         	goto	u1391
  3583   000B5A  EFB1  F005         	goto	u1390
  3584   000B5E                     u1391:
  3585   000B5E  EFC6  F005         	goto	l1878
  3586   000B62                     u1390:
  3587   000B62  282F               	incf	___fldiv@aexp^0,w,c
  3588   000B64  A4D8               	btfss	status,2,c
  3589   000B66  EFB7  F005         	goto	u1401
  3590   000B6A  EFB9  F005         	goto	u1400
  3591   000B6E                     u1401:
  3592   000B6E  EFC1  F005         	goto	l1874
  3593   000B72                     u1400:
  3594   000B72  0E00               	movlw	0
  3595   000B74  6E1B               	movwf	___fldiv@a^0,c
  3596   000B76  0E00               	movlw	0
  3597   000B78  6E1C               	movwf	(___fldiv@a+1)^0,c
  3598   000B7A  0E00               	movlw	0
  3599   000B7C  6E1D               	movwf	(___fldiv@a+2)^0,c
  3600   000B7E  0E00               	movlw	0
  3601   000B80  6E1E               	movwf	(___fldiv@a+3)^0,c
  3602   000B82                     l1874:
  3603   000B82  8E1D               	bsf	(___fldiv@a+2)^0,7,c
  3604   000B84  0E00               	movlw	0
  3605   000B86  6E1E               	movwf	(___fldiv@a+3)^0,c
  3606   000B88  EFCE  F005         	goto	l1880
  3607   000B8C                     l1878:
  3608   000B8C  0E00               	movlw	0
  3609   000B8E  6E1B               	movwf	___fldiv@a^0,c
  3610   000B90  0E00               	movlw	0
  3611   000B92  6E1C               	movwf	(___fldiv@a+1)^0,c
  3612   000B94  0E00               	movlw	0
  3613   000B96  6E1D               	movwf	(___fldiv@a+2)^0,c
  3614   000B98  0E00               	movlw	0
  3615   000B9A  6E1E               	movwf	(___fldiv@a+3)^0,c
  3616   000B9C                     l1880:
  3617   000B9C  501B               	movf	___fldiv@a^0,w,c
  3618   000B9E  101C               	iorwf	(___fldiv@a+1)^0,w,c
  3619   000BA0  101D               	iorwf	(___fldiv@a+2)^0,w,c
  3620   000BA2  101E               	iorwf	(___fldiv@a+3)^0,w,c
  3621   000BA4  A4D8               	btfss	status,2,c
  3622   000BA6  EFD7  F005         	goto	u1411
  3623   000BAA  EFD9  F005         	goto	u1410
  3624   000BAE                     u1411:
  3625   000BAE  EFF1  F005         	goto	l1892
  3626   000BB2                     u1410:
  3627   000BB2  0E00               	movlw	0
  3628   000BB4  6E17               	movwf	___fldiv@b^0,c
  3629   000BB6  0E00               	movlw	0
  3630   000BB8  6E18               	movwf	(___fldiv@b+1)^0,c
  3631   000BBA  0E00               	movlw	0
  3632   000BBC  6E19               	movwf	(___fldiv@b+2)^0,c
  3633   000BBE  0E00               	movlw	0
  3634   000BC0  6E1A               	movwf	(___fldiv@b+3)^0,c
  3635   000BC2  0E80               	movlw	128
  3636   000BC4  1219               	iorwf	(___fldiv@b+2)^0,f,c
  3637   000BC6  0E7F               	movlw	127
  3638   000BC8  121A               	iorwf	(___fldiv@b+3)^0,f,c
  3639   000BCA                     l1886:
  3640   000BCA  5027               	movf	___fldiv@sign^0,w,c
  3641   000BCC  121A               	iorwf	(___fldiv@b+3)^0,f,c
  3642   000BCE  C017  F017         	movff	___fldiv@b,?___fldiv
  3643   000BD2  C018  F018         	movff	___fldiv@b+1,?___fldiv+1
  3644   000BD6  C019  F019         	movff	___fldiv@b+2,?___fldiv+2
  3645   000BDA  C01A  F01A         	movff	___fldiv@b+3,?___fldiv+3
  3646   000BDE  EF34  F007         	goto	l861
  3647   000BE2                     l1892:
  3648   000BE2  502E               	movf	___fldiv@bexp^0,w,c
  3649   000BE4  A4D8               	btfss	status,2,c
  3650   000BE6  EFF7  F005         	goto	u1421
  3651   000BEA  EFF9  F005         	goto	u1420
  3652   000BEE                     u1421:
  3653   000BEE  EF03  F006         	goto	l1900
  3654   000BF2                     u1420:
  3655   000BF2  0E00               	movlw	0
  3656   000BF4  6E17               	movwf	?___fldiv^0,c
  3657   000BF6  0E00               	movlw	0
  3658   000BF8  6E18               	movwf	(?___fldiv+1)^0,c
  3659   000BFA  0E00               	movlw	0
  3660   000BFC  6E19               	movwf	(?___fldiv+2)^0,c
  3661   000BFE  0E00               	movlw	0
  3662   000C00  6E1A               	movwf	(?___fldiv+3)^0,c
  3663   000C02  EF34  F007         	goto	l861
  3664   000C06                     l1900:
  3665   000C06  502F               	movf	___fldiv@aexp^0,w,c
  3666   000C08  C02E  F01F         	movff	___fldiv@bexp,??___fldiv
  3667   000C0C  6A20               	clrf	(??___fldiv+1)^0,c
  3668   000C0E  5E1F               	subwf	??___fldiv^0,f,c
  3669   000C10  0E00               	movlw	0
  3670   000C12  5A20               	subwfb	(??___fldiv+1)^0,f,c
  3671   000C14  0E7F               	movlw	127
  3672   000C16  241F               	addwf	??___fldiv^0,w,c
  3673   000C18  6E28               	movwf	___fldiv@new_exp^0,c
  3674   000C1A  0E00               	movlw	0
  3675   000C1C  2020               	addwfc	(??___fldiv+1)^0,w,c
  3676   000C1E  6E29               	movwf	(___fldiv@new_exp+1)^0,c
  3677   000C20  C017  F023         	movff	___fldiv@b,___fldiv@rem
  3678   000C24  C018  F024         	movff	___fldiv@b+1,___fldiv@rem+1
  3679   000C28  C019  F025         	movff	___fldiv@b+2,___fldiv@rem+2
  3680   000C2C  C01A  F026         	movff	___fldiv@b+3,___fldiv@rem+3
  3681   000C30  0E00               	movlw	0
  3682   000C32  6E17               	movwf	___fldiv@b^0,c
  3683   000C34  0E00               	movlw	0
  3684   000C36  6E18               	movwf	(___fldiv@b+1)^0,c
  3685   000C38  0E00               	movlw	0
  3686   000C3A  6E19               	movwf	(___fldiv@b+2)^0,c
  3687   000C3C  0E00               	movlw	0
  3688   000C3E  6E1A               	movwf	(___fldiv@b+3)^0,c
  3689   000C40  0E00               	movlw	0
  3690   000C42  6E2A               	movwf	___fldiv@grs^0,c
  3691   000C44  0E00               	movlw	0
  3692   000C46  6E2B               	movwf	(___fldiv@grs+1)^0,c
  3693   000C48  0E00               	movlw	0
  3694   000C4A  6E2C               	movwf	(___fldiv@grs+2)^0,c
  3695   000C4C  0E00               	movlw	0
  3696   000C4E  6E2D               	movwf	(___fldiv@grs+3)^0,c
  3697   000C50  0E00               	movlw	0
  3698   000C52  6E2F               	movwf	___fldiv@aexp^0,c
  3699   000C54  EF64  F006         	goto	l863
  3700   000C58                     l1910:
  3701   000C58  502F               	movf	___fldiv@aexp^0,w,c
  3702   000C5A  B4D8               	btfsc	status,2,c
  3703   000C5C  EF32  F006         	goto	u1431
  3704   000C60  EF34  F006         	goto	u1430
  3705   000C64                     u1431:
  3706   000C64  EF4B  F006         	goto	l1918
  3707   000C68                     u1430:
  3708   000C68  90D8               	bcf	status,0,c
  3709   000C6A  3623               	rlcf	___fldiv@rem^0,f,c
  3710   000C6C  3624               	rlcf	(___fldiv@rem+1)^0,f,c
  3711   000C6E  3625               	rlcf	(___fldiv@rem+2)^0,f,c
  3712   000C70  3626               	rlcf	(___fldiv@rem+3)^0,f,c
  3713   000C72  90D8               	bcf	status,0,c
  3714   000C74  3617               	rlcf	___fldiv@b^0,f,c
  3715   000C76  3618               	rlcf	(___fldiv@b+1)^0,f,c
  3716   000C78  3619               	rlcf	(___fldiv@b+2)^0,f,c
  3717   000C7A  361A               	rlcf	(___fldiv@b+3)^0,f,c
  3718   000C7C  AE2D               	btfss	(___fldiv@grs+3)^0,7,c
  3719   000C7E  EF43  F006         	goto	u1441
  3720   000C82  EF45  F006         	goto	u1440
  3721   000C86                     u1441:
  3722   000C86  EF46  F006         	goto	l866
  3723   000C8A                     u1440:
  3724   000C8A  8017               	bsf	___fldiv@b^0,0,c
  3725   000C8C                     l866:
  3726   000C8C  90D8               	bcf	status,0,c
  3727   000C8E  362A               	rlcf	___fldiv@grs^0,f,c
  3728   000C90  362B               	rlcf	(___fldiv@grs+1)^0,f,c
  3729   000C92  362C               	rlcf	(___fldiv@grs+2)^0,f,c
  3730   000C94  362D               	rlcf	(___fldiv@grs+3)^0,f,c
  3731   000C96                     l1918:
  3732   000C96  501B               	movf	___fldiv@a^0,w,c
  3733   000C98  5C23               	subwf	___fldiv@rem^0,w,c
  3734   000C9A  501C               	movf	(___fldiv@a+1)^0,w,c
  3735   000C9C  5824               	subwfb	(___fldiv@rem+1)^0,w,c
  3736   000C9E  501D               	movf	(___fldiv@a+2)^0,w,c
  3737   000CA0  5825               	subwfb	(___fldiv@rem+2)^0,w,c
  3738   000CA2  501E               	movf	(___fldiv@a+3)^0,w,c
  3739   000CA4  5826               	subwfb	(___fldiv@rem+3)^0,w,c
  3740   000CA6  A0D8               	btfss	status,0,c
  3741   000CA8  EF58  F006         	goto	u1451
  3742   000CAC  EF5A  F006         	goto	u1450
  3743   000CB0                     u1451:
  3744   000CB0  EF63  F006         	goto	l1924
  3745   000CB4                     u1450:
  3746   000CB4  8C2D               	bsf	(___fldiv@grs+3)^0,6,c
  3747   000CB6  501B               	movf	___fldiv@a^0,w,c
  3748   000CB8  5E23               	subwf	___fldiv@rem^0,f,c
  3749   000CBA  501C               	movf	(___fldiv@a+1)^0,w,c
  3750   000CBC  5A24               	subwfb	(___fldiv@rem+1)^0,f,c
  3751   000CBE  501D               	movf	(___fldiv@a+2)^0,w,c
  3752   000CC0  5A25               	subwfb	(___fldiv@rem+2)^0,f,c
  3753   000CC2  501E               	movf	(___fldiv@a+3)^0,w,c
  3754   000CC4  5A26               	subwfb	(___fldiv@rem+3)^0,f,c
  3755   000CC6                     l1924:
  3756   000CC6  2A2F               	incf	___fldiv@aexp^0,f,c
  3757   000CC8                     l863:
  3758   000CC8  0E19               	movlw	25
  3759   000CCA  642F               	cpfsgt	___fldiv@aexp^0,c
  3760   000CCC  EF6A  F006         	goto	u1461
  3761   000CD0  EF6C  F006         	goto	u1460
  3762   000CD4                     u1461:
  3763   000CD4  EF2C  F006         	goto	l1910
  3764   000CD8                     u1460:
  3765   000CD8  5023               	movf	___fldiv@rem^0,w,c
  3766   000CDA  1024               	iorwf	(___fldiv@rem+1)^0,w,c
  3767   000CDC  1025               	iorwf	(___fldiv@rem+2)^0,w,c
  3768   000CDE  1026               	iorwf	(___fldiv@rem+3)^0,w,c
  3769   000CE0  B4D8               	btfsc	status,2,c
  3770   000CE2  EF75  F006         	goto	u1471
  3771   000CE6  EF77  F006         	goto	u1470
  3772   000CEA                     u1471:
  3773   000CEA  EF8F  F006         	goto	l1936
  3774   000CEE                     u1470:
  3775   000CEE  802A               	bsf	___fldiv@grs^0,0,c
  3776   000CF0  EF8F  F006         	goto	l1936
  3777   000CF4                     l1930:
  3778   000CF4  90D8               	bcf	status,0,c
  3779   000CF6  3617               	rlcf	___fldiv@b^0,f,c
  3780   000CF8  3618               	rlcf	(___fldiv@b+1)^0,f,c
  3781   000CFA  3619               	rlcf	(___fldiv@b+2)^0,f,c
  3782   000CFC  361A               	rlcf	(___fldiv@b+3)^0,f,c
  3783   000CFE  AE2D               	btfss	(___fldiv@grs+3)^0,7,c
  3784   000D00  EF84  F006         	goto	u1481
  3785   000D04  EF86  F006         	goto	u1480
  3786   000D08                     u1481:
  3787   000D08  EF87  F006         	goto	l872
  3788   000D0C                     u1480:
  3789   000D0C  8017               	bsf	___fldiv@b^0,0,c
  3790   000D0E                     l872:
  3791   000D0E  90D8               	bcf	status,0,c
  3792   000D10  362A               	rlcf	___fldiv@grs^0,f,c
  3793   000D12  362B               	rlcf	(___fldiv@grs+1)^0,f,c
  3794   000D14  362C               	rlcf	(___fldiv@grs+2)^0,f,c
  3795   000D16  362D               	rlcf	(___fldiv@grs+3)^0,f,c
  3796   000D18  0628               	decf	___fldiv@new_exp^0,f,c
  3797   000D1A  A0D8               	btfss	status,0,c
  3798   000D1C  0629               	decf	(___fldiv@new_exp+1)^0,f,c
  3799   000D1E                     l1936:
  3800   000D1E  AE19               	btfss	(___fldiv@b+2)^0,7,c
  3801   000D20  EF94  F006         	goto	u1491
  3802   000D24  EF96  F006         	goto	u1490
  3803   000D28                     u1491:
  3804   000D28  EF7A  F006         	goto	l1930
  3805   000D2C                     u1490:
  3806   000D2C  0E00               	movlw	0
  3807   000D2E  6E2F               	movwf	___fldiv@aexp^0,c
  3808   000D30  AE2D               	btfss	(___fldiv@grs+3)^0,7,c
  3809   000D32  EF9D  F006         	goto	u1501
  3810   000D36  EF9F  F006         	goto	u1500
  3811   000D3A                     u1501:
  3812   000D3A  EFC3  F006         	goto	l874
  3813   000D3E                     u1500:
  3814   000D3E  0EFF               	movlw	255
  3815   000D40  142A               	andwf	___fldiv@grs^0,w,c
  3816   000D42  6E1F               	movwf	??___fldiv^0,c
  3817   000D44  0EFF               	movlw	255
  3818   000D46  142B               	andwf	(___fldiv@grs+1)^0,w,c
  3819   000D48  6E20               	movwf	(??___fldiv+1)^0,c
  3820   000D4A  0EFF               	movlw	255
  3821   000D4C  142C               	andwf	(___fldiv@grs+2)^0,w,c
  3822   000D4E  6E21               	movwf	(??___fldiv+2)^0,c
  3823   000D50  0E7F               	movlw	127
  3824   000D52  142D               	andwf	(___fldiv@grs+3)^0,w,c
  3825   000D54  6E22               	movwf	(??___fldiv+3)^0,c
  3826   000D56  501F               	movf	??___fldiv^0,w,c
  3827   000D58  1020               	iorwf	(??___fldiv+1)^0,w,c
  3828   000D5A  1021               	iorwf	(??___fldiv+2)^0,w,c
  3829   000D5C  1022               	iorwf	(??___fldiv+3)^0,w,c
  3830   000D5E  B4D8               	btfsc	status,2,c
  3831   000D60  EFB4  F006         	goto	u1511
  3832   000D64  EFB6  F006         	goto	u1510
  3833   000D68                     u1511:
  3834   000D68  EFBA  F006         	goto	l875
  3835   000D6C                     u1510:
  3836   000D6C                     l1944:
  3837   000D6C  0E01               	movlw	1
  3838   000D6E  6E2F               	movwf	___fldiv@aexp^0,c
  3839   000D70  EFC3  F006         	goto	l874
  3840   000D74                     l875:
  3841   000D74  A017               	btfss	___fldiv@b^0,0,c
  3842   000D76  EFBF  F006         	goto	u1521
  3843   000D7A  EFC1  F006         	goto	u1520
  3844   000D7E                     u1521:
  3845   000D7E  EFC3  F006         	goto	l874
  3846   000D82                     u1520:
  3847   000D82  EFB6  F006         	goto	l1944
  3848   000D86                     l874:
  3849   000D86  502F               	movf	___fldiv@aexp^0,w,c
  3850   000D88  B4D8               	btfsc	status,2,c
  3851   000D8A  EFC9  F006         	goto	u1531
  3852   000D8E  EFCB  F006         	goto	u1530
  3853   000D92                     u1531:
  3854   000D92  EFEF  F006         	goto	l1956
  3855   000D96                     u1530:
  3856   000D96  0E01               	movlw	1
  3857   000D98  2617               	addwf	___fldiv@b^0,f,c
  3858   000D9A  0E00               	movlw	0
  3859   000D9C  2218               	addwfc	(___fldiv@b+1)^0,f,c
  3860   000D9E  2219               	addwfc	(___fldiv@b+2)^0,f,c
  3861   000DA0  221A               	addwfc	(___fldiv@b+3)^0,f,c
  3862   000DA2  A01A               	btfss	(___fldiv@b+3)^0,0,c
  3863   000DA4  EFD6  F006         	goto	u1541
  3864   000DA8  EFD8  F006         	goto	u1540
  3865   000DAC                     u1541:
  3866   000DAC  EFEF  F006         	goto	l1956
  3867   000DB0                     u1540:
  3868   000DB0  C017  F01F         	movff	___fldiv@b,??___fldiv
  3869   000DB4  C018  F020         	movff	___fldiv@b+1,??___fldiv+1
  3870   000DB8  C019  F021         	movff	___fldiv@b+2,??___fldiv+2
  3871   000DBC  C01A  F022         	movff	___fldiv@b+3,??___fldiv+3
  3872   000DC0  3422               	rlcf	(??___fldiv+3)^0,w,c
  3873   000DC2  3222               	rrcf	(??___fldiv+3)^0,f,c
  3874   000DC4  3221               	rrcf	(??___fldiv+2)^0,f,c
  3875   000DC6  3220               	rrcf	(??___fldiv+1)^0,f,c
  3876   000DC8  321F               	rrcf	??___fldiv^0,f,c
  3877   000DCA  C01F  F017         	movff	??___fldiv,___fldiv@b
  3878   000DCE  C020  F018         	movff	??___fldiv+1,___fldiv@b+1
  3879   000DD2  C021  F019         	movff	??___fldiv+2,___fldiv@b+2
  3880   000DD6  C022  F01A         	movff	??___fldiv+3,___fldiv@b+3
  3881   000DDA  4A28               	infsnz	___fldiv@new_exp^0,f,c
  3882   000DDC  2A29               	incf	(___fldiv@new_exp+1)^0,f,c
  3883   000DDE                     l1956:
  3884   000DDE  BE29               	btfsc	(___fldiv@new_exp+1)^0,7,c
  3885   000DE0  EFFA  F006         	goto	u1551
  3886   000DE4  5029               	movf	(___fldiv@new_exp+1)^0,w,c
  3887   000DE6  E108               	bnz	u1550
  3888   000DE8  2828               	incf	___fldiv@new_exp^0,w,c
  3889   000DEA  A0D8               	btfss	status,0,c
  3890   000DEC  EFFA  F006         	goto	u1551
  3891   000DF0  EFFC  F006         	goto	u1550
  3892   000DF4                     u1551:
  3893   000DF4  EF07  F007         	goto	l1960
  3894   000DF8                     u1550:
  3895   000DF8  0E00               	movlw	0
  3896   000DFA  6E29               	movwf	(___fldiv@new_exp+1)^0,c
  3897   000DFC  6828               	setf	___fldiv@new_exp^0,c
  3898   000DFE  0E00               	movlw	0
  3899   000E00  6E17               	movwf	___fldiv@b^0,c
  3900   000E02  0E00               	movlw	0
  3901   000E04  6E18               	movwf	(___fldiv@b+1)^0,c
  3902   000E06  0E00               	movlw	0
  3903   000E08  6E19               	movwf	(___fldiv@b+2)^0,c
  3904   000E0A  0E00               	movlw	0
  3905   000E0C  6E1A               	movwf	(___fldiv@b+3)^0,c
  3906   000E0E                     l1960:
  3907   000E0E  BE29               	btfsc	(___fldiv@new_exp+1)^0,7,c
  3908   000E10  EF14  F007         	goto	u1560
  3909   000E14  5029               	movf	(___fldiv@new_exp+1)^0,w,c
  3910   000E16  E106               	bnz	u1561
  3911   000E18  0428               	decf	___fldiv@new_exp^0,w,c
  3912   000E1A  B0D8               	btfsc	status,0,c
  3913   000E1C  EF12  F007         	goto	u1561
  3914   000E20  EF14  F007         	goto	u1560
  3915   000E24                     u1561:
  3916   000E24  EF22  F007         	goto	l1964
  3917   000E28                     u1560:
  3918   000E28  0E00               	movlw	0
  3919   000E2A  6E29               	movwf	(___fldiv@new_exp+1)^0,c
  3920   000E2C  0E00               	movlw	0
  3921   000E2E  6E28               	movwf	___fldiv@new_exp^0,c
  3922   000E30  0E00               	movlw	0
  3923   000E32  6E17               	movwf	___fldiv@b^0,c
  3924   000E34  0E00               	movlw	0
  3925   000E36  6E18               	movwf	(___fldiv@b+1)^0,c
  3926   000E38  0E00               	movlw	0
  3927   000E3A  6E19               	movwf	(___fldiv@b+2)^0,c
  3928   000E3C  0E00               	movlw	0
  3929   000E3E  6E1A               	movwf	(___fldiv@b+3)^0,c
  3930   000E40  0E00               	movlw	0
  3931   000E42  6E27               	movwf	___fldiv@sign^0,c
  3932   000E44                     l1964:
  3933   000E44  C028  F02E         	movff	___fldiv@new_exp,___fldiv@bexp
  3934   000E48  A02E               	btfss	___fldiv@bexp^0,0,c
  3935   000E4A  EF29  F007         	goto	u1571
  3936   000E4E  EF2B  F007         	goto	u1570
  3937   000E52                     u1571:
  3938   000E52  EF2E  F007         	goto	l1970
  3939   000E56                     u1570:
  3940   000E56  8E19               	bsf	(___fldiv@b+2)^0,7,c
  3941   000E58  EF2F  F007         	goto	l1972
  3942   000E5C                     l1970:
  3943   000E5C  9E19               	bcf	(___fldiv@b+2)^0,7,c
  3944   000E5E                     l1972:
  3945   000E5E  90D8               	bcf	status,0,c
  3946   000E60  302E               	rrcf	___fldiv@bexp^0,w,c
  3947   000E62  6E1A               	movwf	(___fldiv@b+3)^0,c
  3948   000E64  EFE5  F005         	goto	l1886
  3949   000E68                     l861:
  3950   000E68  0012               	return		;funcret
  3951   000E6A                     __end_of___fldiv:
  3952                           	callstack 0
  3953                           
  3954 ;; *************** function _isr *****************
  3955 ;; Defined at:
  3956 ;;		line 13 in file "isr.c"
  3957 ;; Parameters:    Size  Location     Type
  3958 ;;		None
  3959 ;; Auto vars:     Size  Location     Type
  3960 ;;		None
  3961 ;; Return value:  Size  Location     Type
  3962 ;;                  1    wreg      void 
  3963 ;; Registers used:
  3964 ;;		wreg, status,2, status,0
  3965 ;; Tracked objects:
  3966 ;;		On entry : 0/0
  3967 ;;		On exit  : 0/0
  3968 ;;		Unchanged: 0/0
  3969 ;; Data sizes:     COMRAM   BANK0   BANK1   BANK2   BANK3   BANK4   BANK5
  3970 ;;      Params:         0       0       0       0       0       0       0
  3971 ;;      Locals:         0       0       0       0       0       0       0
  3972 ;;      Temps:          0       0       0       0       0       0       0
  3973 ;;      Totals:         0       0       0       0       0       0       0
  3974 ;;Total ram usage:        0 bytes
  3975 ;; Hardware stack levels used: 1
  3976 ;; This function calls:
  3977 ;;		Nothing
  3978 ;; This function is called by:
  3979 ;;		Interrupt level 2
  3980 ;; This function uses a non-reentrant model
  3981 ;;
  3982                           
  3983                           	psect	intcode
  3984   000008                     __pintcode:
  3985                           	callstack 0
  3986   000008                     _isr:
  3987                           	callstack 26
  3988                           
  3989                           ;incstack = 0
  3990   000008  8255               	bsf	int$flags,1,c	;set compiler interrupt flag (level 2)
  3991   00000A  ED06  F00B         	call	int_func,f	;refresh shadow registers
  3992                           
  3993                           	psect	intcode_body
  3994   00160C                     __pintcode_body:
  3995                           	callstack 26
  3996   00160C                     int_func:
  3997                           	callstack 26
  3998   00160C  0006               	pop		; remove dummy address from shadow register refresh
  3999   00160E                     
  4000                           ;isr.c: 16:     TMR0 = TMR0 + 3038;
  4001   00160E  0EDE               	movlw	222
  4002   001610  24D6               	addwf	214,w,c	;volatile
  4003   001612  6ED6               	movwf	214,c	;volatile
  4004   001614  0E0B               	movlw	11
  4005   001616  20D7               	addwfc	215,w,c	;volatile
  4006   001618  6ED7               	movwf	215,c	;volatile
  4007   00161A                     
  4008                           ;isr.c: 17:     if(TMR0IF)
  4009   00161A  A4F2               	btfss	4082,2,c	;volatile
  4010   00161C  EF12  F00B         	goto	i2u191_41
  4011   001620  EF14  F00B         	goto	i2u191_40
  4012   001624                     i2u191_41:
  4013   001624  EF27  F00B         	goto	i2l276
  4014   001628                     i2u191_40:
  4015   001628                     
  4016                           ;isr.c: 18:     {;isr.c: 19:         if(count++ == 80)
  4017   001628  4A4D               	infsnz	_count^0,f,c
  4018   00162A  2A4E               	incf	(_count+1)^0,f,c
  4019   00162C  0E51               	movlw	81
  4020   00162E  184D               	xorwf	_count^0,w,c
  4021   001630  104E               	iorwf	(_count+1)^0,w,c
  4022   001632  A4D8               	btfss	status,2,c
  4023   001634  EF1E  F00B         	goto	i2u192_41
  4024   001638  EF20  F00B         	goto	i2u192_40
  4025   00163C                     i2u192_41:
  4026   00163C  EF26  F00B         	goto	i2l2214
  4027   001640                     i2u192_40:
  4028   001640                     
  4029                           ;isr.c: 20:         {;isr.c: 21:             count = 0;
  4030   001640  0E00               	movlw	0
  4031   001642  6E4E               	movwf	(_count+1)^0,c
  4032   001644  0E00               	movlw	0
  4033   001646  6E4D               	movwf	_count^0,c
  4034   001648                     
  4035                           ;isr.c: 22:             sec++;
  4036   001648  4A53               	infsnz	_sec^0,f,c
  4037   00164A  2A54               	incf	(_sec+1)^0,f,c
  4038   00164C                     i2l2214:
  4039                           
  4040                           ;isr.c: 24:         TMR0IF = 0;
  4041   00164C  94F2               	bcf	4082,2,c	;volatile
  4042   00164E                     i2l276:
  4043   00164E  9255               	bcf	int$flags,1,c	;clear compiler interrupt flag (level 2)
  4044   001650  0011               	retfie		f
  4045   001652                     __end_of_isr:
  4046                           	callstack 0
  4047                           
  4048                           	psect	rparam
  4049   000000                     
  4050                           	psect	temp
  4051   000055                     btemp:
  4052                           	callstack 0
  4053   000055                     	ds	1
  4054   000000                     int$flags	set	btemp
  4055   000000                     wtemp8	set	btemp+1
  4056   000000                     ttemp5	set	btemp+1
  4057   000000                     ttemp6	set	btemp+4
  4058   000000                     ttemp7	set	btemp+8
  4059                           
  4060                           	psect	idloc
  4061                           
  4062                           ;Config register IDLOC0 @ 0x200000
  4063                           ;	unspecified, using default values
  4064   200000                     	org	2097152
  4065   200000  FF                 	db	255
  4066                           
  4067                           ;Config register IDLOC1 @ 0x200001
  4068                           ;	unspecified, using default values
  4069   200001                     	org	2097153
  4070   200001  FF                 	db	255
  4071                           
  4072                           ;Config register IDLOC2 @ 0x200002
  4073                           ;	unspecified, using default values
  4074   200002                     	org	2097154
  4075   200002  FF                 	db	255
  4076                           
  4077                           ;Config register IDLOC3 @ 0x200003
  4078                           ;	unspecified, using default values
  4079   200003                     	org	2097155
  4080   200003  FF                 	db	255
  4081                           
  4082                           ;Config register IDLOC4 @ 0x200004
  4083                           ;	unspecified, using default values
  4084   200004                     	org	2097156
  4085   200004  FF                 	db	255
  4086                           
  4087                           ;Config register IDLOC5 @ 0x200005
  4088                           ;	unspecified, using default values
  4089   200005                     	org	2097157
  4090   200005  FF                 	db	255
  4091                           
  4092                           ;Config register IDLOC6 @ 0x200006
  4093                           ;	unspecified, using default values
  4094   200006                     	org	2097158
  4095   200006  FF                 	db	255
  4096                           
  4097                           ;Config register IDLOC7 @ 0x200007
  4098                           ;	unspecified, using default values
  4099   200007                     	org	2097159
  4100   200007  FF                 	db	255
  4101                           
  4102                           	psect	config
  4103                           
  4104                           ; Padding undefined space
  4105   300000                     	org	3145728
  4106   300000  FF                 	db	255
  4107                           
  4108                           ;Config register CONFIG1H @ 0x300001
  4109                           ;	unspecified, using default values
  4110                           ;	Oscillator Selection bits
  4111                           ;	OSC = 0x7, unprogrammed default
  4112                           ;	Fail-Safe Clock Monitor Enable bit
  4113                           ;	FCMEN = 0x0, unprogrammed default
  4114                           ;	Internal/External Oscillator Switchover bit
  4115                           ;	IESO = 0x0, unprogrammed default
  4116   300001                     	org	3145729
  4117   300001  07                 	db	7
  4118                           
  4119                           ;Config register CONFIG2L @ 0x300002
  4120                           ;	unspecified, using default values
  4121                           ;	Power-up Timer Enable bit
  4122                           ;	PWRT = 0x1, unprogrammed default
  4123                           ;	Brown-out Reset Enable bits
  4124                           ;	BOREN = 0x3, unprogrammed default
  4125                           ;	Brown-out Reset Voltage bits
  4126                           ;	BORV = 0x3, unprogrammed default
  4127   300002                     	org	3145730
  4128   300002  1F                 	db	31
  4129                           
  4130                           ;Config register CONFIG2H @ 0x300003
  4131                           ;	unspecified, using default values
  4132                           ;	Watchdog Timer Enable bit
  4133                           ;	WDT = 0x1, unprogrammed default
  4134                           ;	Watchdog Timer Postscale Select bits
  4135                           ;	WDTPS = 0xF, unprogrammed default
  4136   300003                     	org	3145731
  4137   300003  1F                 	db	31
  4138                           
  4139                           ; Padding undefined space
  4140   300004                     	org	3145732
  4141   300004  FF                 	db	255
  4142                           
  4143                           ;Config register CONFIG3H @ 0x300005
  4144                           ;	unspecified, using default values
  4145                           ;	PORTB A/D Enable bit
  4146                           ;	PBADEN = 0x1, unprogrammed default
  4147                           ;	Low-Power Timer 1 Oscillator Enable bit
  4148                           ;	LPT1OSC = 0x0, unprogrammed default
  4149                           ;	MCLR Pin Enable bit
  4150                           ;	MCLRE = 0x1, unprogrammed default
  4151   300005                     	org	3145733
  4152   300005  82                 	db	130
  4153                           
  4154                           ;Config register CONFIG4L @ 0x300006
  4155                           ;	unspecified, using default values
  4156                           ;	Stack Full/Underflow Reset Enable bit
  4157                           ;	STVREN = 0x1, unprogrammed default
  4158                           ;	Single-Supply ICSP Enable bit
  4159                           ;	LVP = 0x1, unprogrammed default
  4160                           ;	Boot Block Size Select bit
  4161                           ;	BBSIZ = 0x0, unprogrammed default
  4162                           ;	Extended Instruction Set Enable bit
  4163                           ;	XINST = 0x0, unprogrammed default
  4164                           ;	Background Debugger Enable bit
  4165                           ;	DEBUG = 0x1, unprogrammed default
  4166   300006                     	org	3145734
  4167   300006  85                 	db	133
  4168                           
  4169                           ; Padding undefined space
  4170   300007                     	org	3145735
  4171   300007  FF                 	db	255
  4172                           
  4173                           ;Config register CONFIG5L @ 0x300008
  4174                           ;	unspecified, using default values
  4175                           ;	Code Protection bit
  4176                           ;	CP0 = 0x1, unprogrammed default
  4177                           ;	Code Protection bit
  4178                           ;	CP1 = 0x1, unprogrammed default
  4179                           ;	Code Protection bit
  4180                           ;	CP2 = 0x1, unprogrammed default
  4181                           ;	Code Protection bit
  4182                           ;	CP3 = 0x1, unprogrammed default
  4183   300008                     	org	3145736
  4184   300008  0F                 	db	15
  4185                           
  4186                           ;Config register CONFIG5H @ 0x300009
  4187                           ;	unspecified, using default values
  4188                           ;	Boot Block Code Protection bit
  4189                           ;	CPB = 0x1, unprogrammed default
  4190                           ;	Data EEPROM Code Protection bit
  4191                           ;	CPD = 0x1, unprogrammed default
  4192   300009                     	org	3145737
  4193   300009  C0                 	db	192
  4194                           
  4195                           ;Config register CONFIG6L @ 0x30000A
  4196                           ;	unspecified, using default values
  4197                           ;	Write Protection bit
  4198                           ;	WRT0 = 0x1, unprogrammed default
  4199                           ;	Write Protection bit
  4200                           ;	WRT1 = 0x1, unprogrammed default
  4201                           ;	Write Protection bit
  4202                           ;	WRT2 = 0x1, unprogrammed default
  4203                           ;	Write Protection bit
  4204                           ;	WRT3 = 0x1, unprogrammed default
  4205   30000A                     	org	3145738
  4206   30000A  0F                 	db	15
  4207                           
  4208                           ;Config register CONFIG6H @ 0x30000B
  4209                           ;	unspecified, using default values
  4210                           ;	Configuration Register Write Protection bit
  4211                           ;	WRTC = 0x1, unprogrammed default
  4212                           ;	Boot Block Write Protection bit
  4213                           ;	WRTB = 0x1, unprogrammed default
  4214                           ;	Data EEPROM Write Protection bit
  4215                           ;	WRTD = 0x1, unprogrammed default
  4216   30000B                     	org	3145739
  4217   30000B  E0                 	db	224
  4218                           
  4219                           ;Config register CONFIG7L @ 0x30000C
  4220                           ;	unspecified, using default values
  4221                           ;	Table Read Protection bit
  4222                           ;	EBTR0 = 0x1, unprogrammed default
  4223                           ;	Table Read Protection bit
  4224                           ;	EBTR1 = 0x1, unprogrammed default
  4225                           ;	Table Read Protection bit
  4226                           ;	EBTR2 = 0x1, unprogrammed default
  4227                           ;	Table Read Protection bit
  4228                           ;	EBTR3 = 0x1, unprogrammed default
  4229   30000C                     	org	3145740
  4230   30000C  0F                 	db	15
  4231                           
  4232                           ;Config register CONFIG7H @ 0x30000D
  4233                           ;	unspecified, using default values
  4234                           ;	Boot Block Table Read Protection bit
  4235                           ;	EBTRB = 0x1, unprogrammed default
  4236   30000D                     	org	3145741
  4237   30000D  40                 	db	64
  4238                           tosu	equ	0xFFF
  4239                           tosh	equ	0xFFE
  4240                           tosl	equ	0xFFD
  4241                           stkptr	equ	0xFFC
  4242                           pclatu	equ	0xFFB
  4243                           pclath	equ	0xFFA
  4244                           pcl	equ	0xFF9
  4245                           tblptru	equ	0xFF8
  4246                           tblptrh	equ	0xFF7
  4247                           tblptrl	equ	0xFF6
  4248                           tablat	equ	0xFF5
  4249                           prodh	equ	0xFF4
  4250                           prodl	equ	0xFF3
  4251                           indf0	equ	0xFEF
  4252                           postinc0	equ	0xFEE
  4253                           postdec0	equ	0xFED
  4254                           preinc0	equ	0xFEC
  4255                           plusw0	equ	0xFEB
  4256                           fsr0h	equ	0xFEA
  4257                           fsr0l	equ	0xFE9
  4258                           wreg	equ	0xFE8
  4259                           indf1	equ	0xFE7
  4260                           postinc1	equ	0xFE6
  4261                           postdec1	equ	0xFE5
  4262                           preinc1	equ	0xFE4
  4263                           plusw1	equ	0xFE3
  4264                           fsr1h	equ	0xFE2
  4265                           fsr1l	equ	0xFE1
  4266                           bsr	equ	0xFE0
  4267                           indf2	equ	0xFDF
  4268                           postinc2	equ	0xFDE
  4269                           postdec2	equ	0xFDD
  4270                           preinc2	equ	0xFDC
  4271                           plusw2	equ	0xFDB
  4272                           fsr2h	equ	0xFDA
  4273                           fsr2l	equ	0xFD9
  4274                           status	equ	0xFD8

Data Sizes:
    Strings     223
    Constant    0
    Data        17
    BSS         8
    Persistent  0
    Stack       0

Auto Spaces:
    Space          Size  Autos    Used
    COMRAM           94     59      84
    BANK0           160      0       0
    BANK1           256      0       0
    BANK2           256      0       0
    BANK3           256      0       0
    BANK4           256      0       0
    BANK5           256      0       0

Pointer List with Targets:

    clcd_print@data	PTR const unsigned char  size(2) Largest target is 17
		 -> STR_23(CODE[17]), STR_22(CODE[17]), STR_21(CODE[17]), STR_20(CODE[17]), 
		 -> STR_19(CODE[17]), STR_18(CODE[17]), STR_17(CODE[17]), STR_16(CODE[16]), 
		 -> STR_15(CODE[16]), STR_14(CODE[16]), STR_13(CODE[17]), STR_11(CODE[10]), 
		 -> STR_10(CODE[17]), STR_9(CODE[17]), STR_8(CODE[3]), STR_7(CODE[3]), 
		 -> STR_6(CODE[3]), STR_5(CODE[3]), STR_4(CODE[3]), STR_3(CODE[3]), 
		 -> STR_2(CODE[3]), STR_1(CODE[3]), 

    read_password@original_password	PTR unsigned char  size(2) Largest target is 5
		 -> STR_12(CODE[5]), 

    gear_data	PTR unsigned char [8] size(2) Largest target is 3
		 -> STR_8(CODE[3]), STR_7(CODE[3]), STR_6(CODE[3]), STR_5(CODE[3]), 
		 -> STR_4(CODE[3]), STR_3(CODE[3]), STR_2(CODE[3]), STR_1(CODE[3]), 


Critical Paths under _main in COMRAM

    _main->_display_dashboard
    _read_password->_clcd_putch
    _init_config->_init_clcd
    _init_clcd->_clcd_write
    _display_dashboard->___fltol
    _gear_monitor->_clcd_print
    _display_time->_clcd_print
    _clcd_print->_clcd_write
    _display_speed->_clcd_putch
    _clcd_putch->___lwdiv
    ___xxtofl->_read_adc
    ___fltol->___fldiv
    ___fldiv->___xxtofl

Critical Paths under _isr in COMRAM

    None.

Critical Paths under _main in BANK0

    None.

Critical Paths under _isr in BANK0

    None.

Critical Paths under _main in BANK1

    None.

Critical Paths under _isr in BANK1

    None.

Critical Paths under _main in BANK2

    None.

Critical Paths under _isr in BANK2

    None.

Critical Paths under _main in BANK3

    None.

Critical Paths under _isr in BANK3

    None.

Critical Paths under _main in BANK4

    None.

Critical Paths under _isr in BANK4

    None.

Critical Paths under _main in BANK5

    None.

Critical Paths under _isr in BANK5

    None.

Call Graph Tables:

 ---------------------------------------------------------------------------------
 (Depth) Function   	        Calls       Base Space   Used Autos Params    Refs
 ---------------------------------------------------------------------------------
 (0) _main                                                 1     1      0   21994
                                             58 COMRAM     1     1      0
                  _display_dashboard
                        _init_config
                      _read_password
                      _read_switches
 ---------------------------------------------------------------------------------
 (1) _read_password                                       24    24      0    6418
                                              9 COMRAM    24    24      0
                            ___lwdiv
                            ___lwmod
                         _clcd_print
                         _clcd_putch
                      _read_switches
 ---------------------------------------------------------------------------------
 (1) _read_switches                                        2     2      0     111
                                              0 COMRAM     2     2      0
                           _scan_key
 ---------------------------------------------------------------------------------
 (2) _scan_key                                             0     0      0       0
 ---------------------------------------------------------------------------------
 (1) _init_config                                          0     0      0     880
                           _init_adc
                          _init_clcd
                 _init_matrix_keypad
                        _init_timer0
 ---------------------------------------------------------------------------------
 (2) _init_timer0                                          0     0      0       0
 ---------------------------------------------------------------------------------
 (2) _init_matrix_keypad                                   0     0      0       0
 ---------------------------------------------------------------------------------
 (2) _init_clcd                                            2     2      0     880
                                              2 COMRAM     2     2      0
                         _clcd_write
 ---------------------------------------------------------------------------------
 (2) _init_adc                                             0     0      0       0
 ---------------------------------------------------------------------------------
 (1) _display_dashboard                                    1     1      0   14540
                                             57 COMRAM     1     1      0
                            ___fldiv
                            ___fltol
                           ___xxtofl
                         _clcd_print
                      _display_speed
                       _display_time
                       _gear_monitor
                           _read_adc
 ---------------------------------------------------------------------------------
 (2) _read_adc                                             8     6      2      22
                                              0 COMRAM     8     6      2
 ---------------------------------------------------------------------------------
 (2) _gear_monitor                                         1     1      0    3359
                                              5 COMRAM     1     1      0
                         _clcd_print
 ---------------------------------------------------------------------------------
 (2) _display_time                                         0     0      0    3227
                         _clcd_print
 ---------------------------------------------------------------------------------
 (2) _clcd_print                                           3     0      3    3227
                                              2 COMRAM     3     0      3
                         _clcd_write
 ---------------------------------------------------------------------------------
 (2) _display_speed                                        2     0      2    2581
                                              9 COMRAM     2     0      2
                            ___lwdiv
                            ___lwmod
                         _clcd_putch
 ---------------------------------------------------------------------------------
 (2) _clcd_putch                                           2     1      1    1532
                                              7 COMRAM     2     1      1
                            ___lwdiv (ARG)
                            ___lwmod (ARG)
                         _clcd_write
 ---------------------------------------------------------------------------------
 (3) _clcd_write                                           2     1      1     880
                                              0 COMRAM     2     1      1
 ---------------------------------------------------------------------------------
 (2) ___lwmod                                              5     1      4     463
                                              0 COMRAM     5     1      4
 ---------------------------------------------------------------------------------
 (2) ___lwdiv                                              7     3      4     466
                                              0 COMRAM     7     3      4
 ---------------------------------------------------------------------------------
 (2) ___xxtofl                                            14    10      4     398
                                              8 COMRAM    14    10      4
                           _read_adc (ARG)
 ---------------------------------------------------------------------------------
 (2) ___fltol                                             10     6      4     305
                                             47 COMRAM    10     6      4
                            ___fldiv (ARG)
                           ___xxtofl (ARG)
                           _read_adc (ARG)
 ---------------------------------------------------------------------------------
 (2) ___fldiv                                             25    17      8    1399
                                             22 COMRAM    25    17      8
                           ___xxtofl (ARG)
                           _read_adc (ARG)
 ---------------------------------------------------------------------------------
 Estimated maximum stack depth 3
 ---------------------------------------------------------------------------------
 (Depth) Function   	        Calls       Base Space   Used Autos Params    Refs
 ---------------------------------------------------------------------------------
 (5) _isr                                                  0     0      0       0
 ---------------------------------------------------------------------------------
 Estimated maximum stack depth 5
 ---------------------------------------------------------------------------------

 Call Graph Graphs:

 _main (ROOT)
   _display_dashboard
     ___fldiv
       ___xxtofl (ARG)
         _read_adc (ARG)
       _read_adc (ARG)
     ___fltol
       ___fldiv (ARG)
       ___xxtofl (ARG)
       _read_adc (ARG)
     ___xxtofl
     _clcd_print
       _clcd_write
     _display_speed
       ___lwdiv
       ___lwmod
       _clcd_putch
         ___lwdiv (ARG)
         ___lwmod (ARG)
         _clcd_write (ARG)
     _display_time
       _clcd_print
     _gear_monitor
       _clcd_print
     _read_adc
   _init_config
     _init_adc
     _init_clcd
       _clcd_write
     _init_matrix_keypad
     _init_timer0
   _read_password
     ___lwdiv
     ___lwmod
     _clcd_print
     _clcd_putch
     _read_switches
       _scan_key
   _read_switches

 _isr (ROOT)

 Address spaces:
Name               Size   Autos  Total    Cost      Usage
BIGRAM             5FF      0       0      23        0.0%
BITBIGSFRll        281      0       0      21        0.0%
EEDATA             100      0       0       0        0.0%
BITBANK5           100      0       0      14        0.0%
BANK5              100      0       0      15        0.0%
BITBANK4           100      0       0      12        0.0%
BANK4              100      0       0      13        0.0%
BITBANK3           100      0       0      10        0.0%
BANK3              100      0       0      11        0.0%
BITBANK2           100      0       0       8        0.0%
BANK2              100      0       0       9        0.0%
BITBANK1           100      0       0       6        0.0%
BANK1              100      0       0       7        0.0%
BITBANK0            A0      0       0       4        0.0%
BANK0               A0      0       0       5        0.0%
BITCOMRAM           5E      0       0       0        0.0%
COMRAM              5E     3B      54       1       89.4%
BITBIGSFRhlhl       2A      0       0      19        0.0%
BITBIGSFRhlhhh      19      0       0      17        0.0%
BITBIGSFRhlhhl      10      0       0      18        0.0%
BITBIGSFRlh          F      0       0      20        0.0%
BITBIGSFRhh          D      0       0      16        0.0%
BIGSFR               0      0       0     200        0.0%
BITSFR_3             0      0       0     200        0.0%
SFR_3                0      0       0     200        0.0%
BITSFR_2             0      0       0     200        0.0%
SFR_2                0      0       0     200        0.0%
BITSFR_1             0      0       0     200        0.0%
SFR_1                0      0       0     200        0.0%
BITSFR               0      0       0     200        0.0%
SFR                  0      0       0     200        0.0%
STACK                0      0       0       2        0.0%
NULL                 0      0       0       0        0.0%
ABS                  0      0      54      22        0.0%
DATA                 0      0      54       3        0.0%
CODE                 0      0       0       0        0.0%


Microchip Technology PIC18 Macro Assembler V2.41 build 20230208172133 
Symbol Table                                                                                   Fri Dec 15 17:36:24 2023

                  ___fldiv@aexp 002F                    ___fldiv@bexp 002E                    ___fldiv@sign 0027  
                clcd_print@addr 0005                  clcd_print@data 0003                              l22 1754  
                            l23 1772                              l17 17E0                              l61 1106  
                            l53 1478                              l71 16D6                              l56 17F2  
                            l80 0ACE                              l68 1128                              _GO 7E11  
                            l99 0ACA              _init_matrix_keypad 1806                             l131 155E  
                           l140 1230                             l125 180C                             l141 1180  
                           l142 1158                             l151 11C2                             l240 160A  
                           l144 116C                             l234 179C                             l154 11F2  
                           l147 119A                             l139 1144                             l156 1206  
                           l148 11D6                             l237 15DC                             l261 17B6  
                           l157 122E                             l149 11AE                             l182 174A  
                           l158 121A                             l183 174E                             l192 1694  
                           l186 13E6                             l195 17CE                             l576 1336  
                           l770 14E4                             l780 15BA                             l861 0E68  
                           l941 0F58                             l934 0EC0                             l863 0CC8  
                           l872 0D0E                             l937 101C                             l777 14EC  
                           l874 0D86                             l866 0C8C                             l875 0D74  
                           l787 15C2                             l948 0FB4                             _GIE 7F97  
                           _RB1 7C09                             _RB2 7C0A                             _RC0 7C10  
                           _RC1 7C11                             _RB3 7C0B                             _RB4 7C0C  
                           _RC2 7C12                             _RB5 7C0D                             _RB6 7C0E  
                           _RB7 7C0F                             _RD7 7C1F                             _PSA 7EAB  
                           u970 1728                             u971 1722                             u990 174A  
                           u991 1746                             u985 172A                   ?_display_time 0001  
                           _sec 0053                             _isr 0008                  clcd_putch@addr 0008  
                clcd_putch@data 0009                             wreg 0FE8          read_switches@detection 0001  
           ?_init_matrix_keypad 0001                    ___fltol@exp1 0039                            l2002 12C2  
                          l2020 1326                            l2012 12EA                            l2004 12CC  
                          l1132 1780                            l1140 17B0                            l2100 0780  
                          l2014 12F6                            l2006 12D6                            l2030 0ED0  
                          l1142 17B2                            l1134 179E                            l2110 07AC  
                          l2016 1306                            l2040 0F0E                            l2032 0EE6  
                          l2024 0E6C                            l1144 17B4                            l1136 17A6  
                          l2120 0800                            l2112 07B8                            l2200 175C  
                          l2018 1316                            l2050 0F96                            l2042 0F40  
                          l2026 0E7C                            l1138 17AE                            l2130 0852  
                          l2122 0810                            l2114 07C4                            l2106 0794  
                          l2202 176E                            l2060 0FEC                            l2052 0FA4  
                          l2044 0F42                            l2036 0EFA                            l2028 0E8A  
                          l1092 1806                            l2140 0896                            l2132 0862  
                          l2124 0826                            l2116 07C8                            l2062 0FFC  
                          l2054 0FC2                            l2046 0F4E                            l2038 0F02  
                          l1094 180A                            l2070 17D0                            l2150 090E  
                          l2142 08A2                            l2134 0876                            l2126 0832  
                          l2118 07DE                            l2064 100A                            l2056 0FC4  
                          l2048 0F8A                            l1600 1730                            l2072 17D4  
                          l2152 0918                            l2144 08D6                            l2160 0958  
                          l2136 088C                            l2128 084A                            l2080 0706  
                          l2066 100C                            l2058 0FC8                            l1610 173A  
                          l1602 1732                            l2074 17D8                            l2170 09C2  
                          l2162 0980                            l2154 0928                            l2146 08E6  
                          l2138 088E                            l2090 073C                            l2082 070E  
                          l1700 1494                            l1612 173C                            l1604 1734  
                          l1620 1678                            l2076 17DC                            l2180 0A64  
                          l2164 0992                            l2172 09D6                            l2156 0940  
                          l2148 08FE                            l2092 074E                            l2084 0712  
                          l1710 14CE                            l1702 149C                            l1606 1736  
                          l1622 17BA                            l1614 1652                            l2190 13EA  
                          l2174 09E8                            l2166 099A                            l2158 0954  
                          l2094 075E                            l2182 0A7C                            l2086 0722  
                          l2078 06E2                            l1712 14D6                            l1704 14A4  
                          l1720 1572                            l1608 1738                            l1616 1660  
                          l1800 17E2                            l2192 140E                            l1632 1152  
                          l1624 112A                            l2184 0A8E                            l2176 0A08  
                          l2168 09B2                            l2096 0766                            l2088 0734  
                          l1714 14D8                            l1706 14B2                            l1730 15AE  
                          l1722 157A                            l1618 1674                            l1810 1060  
                          l1802 1020                            l2194 1414                            l1626 113E  
                          l2186 0AA6                            l2178 0A14                            l2098 076E  
                          l1900 0C06                            l1716 14DE                            l1708 14B8  
                          l1732 15B4                            l1724 1582                            l1820 10B6  
                          l1812 1074                            l1804 1030                            l2196 146C  
                          l1740 1344                            l1660 11BC                            l1644 117A  
                          l2188 0AB6                            l1910 0C58                            l1902 0C20  
                          l1726 1590                            l1718 1560                            l1822 10BE  
                          l1814 1086                            l1830 1106                            l1806 103C  
                          l1750 1388                            l1742 135C                            l1734 1338  
                          l1670 11EC                            l1654 11A8                            l1638 1166  
                          l2198 1750                            l1920 0CB4                            l1912 0C68  
                          l1904 0C30                            l1728 15A6                            l1840 1696  
                          l1824 10D0                            l1816 108E                            l1808 104E  
                          l1832 15C6                            l1760 13B4                            l1752 1392  
                          l1744 1366                            l1736 133C                            l1648 1194  
                          l1930 0CF4                            l1922 0CB6                            l1914 0C7C  
                          l1906 0C40                            l1850 0AFC                            l1842 0AD0  
                          l1594 1718                            l1826 10E6                            l1818 10A0  
                          l1834 15DA                            l1762 13BC                            l1754 1398  
                          l1746 1376                            l1738 1342                            l1682 1214  
                          l1666 11D0                            l1770 14F0                            l1940 0D30  
                          l1932 0CFE                            l1924 0CC6                            l1916 0C8A  
                          l1908 0C50                            l1860 0B36                            l1852 0B0C  
                          l1844 0ADC                            l1596 172A                            l1828 10FC  
                          l1836 15EA                            l1764 13C6                            l1756 13A2  
                          l1748 1380                            l1692 122E                            l1676 1200  
                          l1780 1518                            l1772 1500                            l1950 0DA2  
                          l1942 0D3E                            l1934 0D0C                            l1926 0CD8  
                          l1918 0C96                            l1870 0B62                            l1862 0B3C  
                          l1854 0B1C                            l1846 0AEA                            l1598 172E  
                          l1766 13D4                            l1758 13AA                            l1782 151E  
                          l1960 0E0E                            l1952 0DB0                            l1944 0D6C  
                          l1928 0CEE                            l1936 0D1E                            l1880 0B9C  
                          l1872 0B72                            l1864 0B42                            l1856 0B1E  
                          l1848 0AEC                            l1696 147A                            l1768 13DE  
                          l1688 1228                            l1784 152E                            l1792 1548  
                          l1970 0E5C                            l1962 0E28                            l1954 0DDA  
                          l1938 0D2C                            l1882 0BB2                            l1874 0B82  
                          l1866 0B50                            l1858 0B26                            l1698 1482  
                          l1794 1558                            l1786 153E                            l1778 1508  
                          l1972 0E5E                            l1964 0E44                            l1948 0D96  
                          l1956 0DDE                            l1884 0BC2                            l1892 0BE2  
                          l1876 0B84                            l1868 0B52                            l1980 1232  
                          l1796 155C                            l1966 0E48                            l1958 0DF8  
                          l1894 0BF2                            l1886 0BCA                            l1878 0B8C  
                          l1990 1288                            l1982 1248                            l1968 0E56  
                          l1896 0BF2                            l1888 0BCE                            l1992 1298  
                          l1994 129C                            l1986 125C                            l1996 12AA  
                          l1988 1286                            _ADFM 7E07                            ?_isr 0001  
                          _ADON 7E10                            STR_1 06DA                            STR_2 06D7  
                          STR_3 06CB                            STR_4 06CE                            STR_5 06D1  
                          STR_6 06D4                            STR_7 06DD                            STR_8 06C8  
                          STR_9 0656                            u1000 1694                            u1001 1690  
                          _T0CS 7EAD                            u1010 113E                            u1011 113A  
                          u1100 1200                            u1020 1152                            u1101 11FC  
                          u1021 114E                            u1110 1214                            u1030 1166  
                          u1111 1210                            u1031 1162                            u1120 1228  
                          u1040 117A                            u1200 1518                            u1121 1224  
                          u1041 1176                            u1201 1514                            u1130 1494  
                          u1050 1194                            u1210 152E                            u1131 1490  
                          u1051 1190                            u1211 152A                            u1140 14B2  
                          u1300 10B6                            u1060 11A8                            u1220 153E  
                          u1141 14AE                            u1301 10B2                            u1061 11A4  
                          u1221 153A                            u1150 14CE                            u1310 10D0  
                          u1070 11BC                            u1230 1558                            u1151 14CA  
                          u1311 10CC                            u2007 1382                            u1071 11B8  
                          u1231 1554                            u1400 0B72                            u1160 1572  
                          u1320 10E6                            u1240 1030                            u1080 11D0  
                          u1401 0B6E                            u1161 156E                            u1321 10E2  
                          u1241 102C                            u2017 13A4                            u1081 11CC  
                          u1410 0BB2                            u1170 1590                            u1330 10FC  
                          u1250 104E                            u1090 11EC                            u1411 0BAE  
                          u1171 158C                            u1331 10F8                            u1251 104A  
                          u2027 13B6                            u1091 11E8                            u1500 0D3E  
                          u1420 0BF2                            u1180 15A6                            u1260 1060  
                          u1340 15EA                            u1501 0D3A                            u1421 0BEE  
                          u1181 15A2                            u1261 105C                            u1341 15E6  
                          u2037 13CC                            u1510 0D6C                            u1430 0C68  
                          u1350 0AEA                            u1270 1074                            u1190 1500  
                          u1511 0D68                            u1431 0C64                            u1351 0AE6  
                          u1271 1070                            u2047 13E0                            u1191 14FC  
                          u1520 0D82                            u1440 0C8A                            u1360 0AFC  
                          u1600 12AA                            u1280 1086                            u1521 0D7E  
                          u1441 0C86                            u1361 0AF8                            u1601 12A6  
                          u1281 1082                            u1530 0D96                            u1450 0CB4  
                          u1370 0B0C                            u1610 12BE                            u1290 10A0  
                          u1531 0D92                            u1451 0CB0                            u1371 0B08  
                          u1611 12BA                            u1291 109C                            u1540 0DB0  
                          u1460 0CD8                            u1380 0B50                            u1620 12E6  
                          u1700 0FA4                            u1541 0DAC                            u1461 0CD4  
                          u1381 0B4C                            u1621 12E2                            u1701 0FA0  
                          u1550 0DF8                            u1470 0CEE                            u1390 0B62  
                          u1630 1306                            u1710 0FB4                            u1551 0DF4  
                          u1471 0CEA                            u1391 0B5E                            u1631 1302  
                          u1711 0FB0                            u1560 0E28                            u1480 0D0C  
                          u1640 1316                            u1720 0FC2                            u1800 0800  
                          u1561 0E24                            u1481 0D08                            u1641 1312  
                          u1721 0FBE                            u1801 07FC                            u1570 0E56  
                          u1490 0D2C                            u1730 0FFC                            u1650 0E7C  
                          u1810 0826                            u1571 0E52                            u1491 0D28  
                          u1731 0FF8                            u1651 0E78                            u1811 0822  
                          u1580 1248                            u1740 100A                            u1660 0E8A  
                          u1820 084A                            u1900 176E                            u1581 1244  
                          u1741 1006                            u1661 0E86                            u1821 0846  
                          u1901 176A                            u1590 127C                            u1670 0EE6  
                          u1830 0876                            u1750 0734                            u1671 0EE2  
                          u1831 0872                            u1751 0730                            u1680 0F3C  
                          u1840 08D6                            u1760 074E                            u1681 0F38  
                          u1841 08D2                            u1761 074A                            u1690 0F86  
                          u1850 0980                            u1770 0780                            u1595 1272  
                          u1691 0F82                            u1851 097C                            u1771 077C  
                          u1860 0992                            u1780 07A8                            u1861 098E  
                          u1781 07A4                            u1870 09E8                            u1790 07DE  
                          u1871 09E4                            u1791 07DA                            u1880 0A78  
                          u1881 0A74                            u1937 0880                            u1890 0A8E  
                          u1891 0A8A                            u1947 08F0                            _PEIE 7F96  
                          u1957 0932                            u1967 09A4                            u1977 0A98  
                          u1987 134E                            u1997 136C                            _RBPU 7F8F  
                          _TMR0 0FD6                  ?_display_speed 000A                            _main 1750  
                          fsr2h 0FDA                            indf2 0FDF                            fsr1l 0FE1  
                          fsr2l 0FD9                            btemp 0055                            start 000E  
               ___fldiv@new_exp 0028            ??_init_matrix_keypad 0001                    ___param_bank 0000  
                clcd_write@byte 0002                           ??_isr 0001                   ___fltol@sign1 0038  
                         _ADCS0 7E00                           _ADCS1 7E01                           _ADCS2 7E02  
                         ?_main 0001                  ??_display_time 0006                 __end_of___fldiv 0E6A  
                         _ACQT0 7E03                           _ACQT1 7E04                           _ACQT2 7E05  
                         STR_10 0601                           STR_11 06B9                           STR_12 06C3  
                         STR_20 0645                           STR_13 0601                           STR_21 0667  
                         STR_14 0699                           STR_22 0623                           STR_15 0689  
                         STR_23 0634                           STR_16 06A9                           STR_17 0601  
                         STR_18 0678                           STR_19 0612                 __end_of___fltol 1338  
                         _PCFG0 7E08                           _PCFG1 7E09                           _PCFG2 7E0A  
                         _PCFG3 7E0B                 __end_of___lwdiv 14EE                 __end_of___lwmod 15C4  
                  ?_init_config 0001                           i2l276 164E                           _VCFG0 7E0C  
                         _VCFG1 7E0D                           _PORTD 0F83                           _TRISB 0F93  
                         _TRISC 0F94                           _TRISD 0F95                    ?_init_timer0 0001  
                         _count 004D                           _speed 004F                           tablat 0FF5  
                         ttemp5 0056                           ttemp6 0059                           ttemp7 005D  
                         status 0FD8                           wtemp8 0056            __end_of_gear_monitor 112A  
               __initialization 16D8                    __end_of_main 1780                          ??_main 003B  
                 __activetblptr 0001                          _ADCON0 0FC2                read_switches@key 0002  
               ??_display_speed 000C                          _ADRESH 0FC4                          _ADRESL 0FC3  
                        _T08BIT 7EAE                          i2l2210 1640                          i2l2212 1648  
                        i2l2204 160E                          i2l2214 164C                          i2l2206 161A  
                        i2l2208 1628     read_password@enter_password 000D                          _TMR0IE 7F95  
                        _TMR0IF 7F92                          _TMR0ON 7EAF                          _TRISD7 7CAF  
              __end_of___xxtofl 101E                       ??___fldiv 001F                       ??___fltol 0034  
                     ??___lwdiv 0005                       ??___lwmod 0005                __end_of_init_adc 179E  
              __end_of_read_adc 160C                          clear_0 16FE                          isa$std 0001  
              __end_of_scan_key 1232                    __pdataCOMRAM 003C                    __mediumconst 0000  
                        tblptrh 0FF7                          tblptrl 0FF6                          tblptru 0FF8  
                  ___xxtofl@arg 0013                    ___xxtofl@exp 0012                    ___xxtofl@val 0009  
                    __accesstop 0060         __end_of__initialization 1704            __end_of_display_time 17F4  
                 ___rparam_used 0001                      ___fltol@f1 0030                  __pcstackCOMRAM 0001  
          read_password@attempt 0019              read_password@count 0012                      _clcd_print 1652  
            read_password@index 0020                      _clcd_putch 17B8                      _clcd_write 1716  
read_password@original_password 0014                      _gear_index 0051               read_switches@once 004C  
                 _read_password 06E2            display_dashboard@key 003A                       ?___xxtofl 0009  
                  _gear_monitor 101E                   _read_switches 14EE                       ?_init_adc 0001  
                     ?_read_adc 0001                       ?_scan_key 0001                         __Hparam 0000  
                       __Lparam 0000                         ___fldiv 0AD0                         ___fltol 1232  
                       ___lwdiv 147A                         ___lwmod 1560                    __psmallconst 0600  
                       __pcinit 16D8                         __ramtop 0600                  ?_read_password 0001  
                       __ptext0 1750                         __ptext1 06E2                         __ptext2 14EE  
                       __ptext3 112A                         __ptext4 17D0                         __ptext5 179E  
                       __ptext6 1806                         __ptext7 1338                         __ptext8 1780  
                       __ptext9 13E8               __end_of_init_clcd 13E8                      ??___xxtofl 000D  
                ?_read_switches 0001                         main@key 003B                  __pintcode_body 160C  
          end_of_initialization 1704                      ??_init_adc 0001                      ??_read_adc 0003  
                       int_func 160C                      ??_scan_key 0001                     ?_clcd_print 0003  
                   ?_clcd_putch 0008                     ?_clcd_write 0001                         postdec1 0FE5  
                       postdec2 0FDD                         postinc0 0FEE                         postinc2 0FDE  
               read_adc@channel 0008                    _display_time 17E2                   ___xxtofl@sign 0011  
                   ___fldiv@grs 002A                     ___fldiv@rem 0023           __end_of_display_speed 16D8  
               ??_read_password 000A                   __pidataCOMRAM 17F4             start_initialization 16D8  
               ??_read_switches 0001                     __end_of_isr 1652                   ??_init_config 0005  
                     ___fldiv@a 001B                       ___fldiv@b 0017                   ??_init_timer0 0001  
                   __pbssCOMRAM 004D           read_password@pass_key 0018              display_speed@speed 000A  
             read_password@flag 0016                ___lwdiv@dividend 0001               read_password@wait 001A  
                     _gear_data 003C                       __pintcode 0008                        ?___fldiv 0017  
                      ?___fltol 0030               _display_dashboard 13E8                        ?___lwdiv 0001  
                      ?___lwmod 0001              ?_display_dashboard 0001                     __smallconst 0600  
           ??_display_dashboard 003A                ___lwdiv@quotient 0005                       _init_clcd 1338  
           __end_of_init_config 17E2             __end_of_init_timer0 17B8                    ??_clcd_print 0006  
                  ??_clcd_putch 0009      __end_of_init_matrix_keypad 180E                    ??_clcd_write 0002  
                      i2u191_40 1628                        i2u191_41 1624                        i2u192_40 1640  
                      i2u192_41 163C       __end_of_display_dashboard 147A           clcd_write@control_bit 0001  
            __end_of_clcd_print 1696              __end_of_clcd_putch 17D0              __end_of_clcd_write 1750  
                    ?_init_clcd 0001                       copy_data0 16EC                        __Hrparam 0000  
                      __Lrparam 0000                    __Lsmallconst 0600                     _init_config 17D0  
                      ___xxtofl 0E6A                     _init_timer0 179E                read_password@ind 001E  
               ___lwdiv@divisor 0003                 ___lwdiv@counter 0007                        __ptext10 15C4  
                      __ptext11 101E                        __ptext20 1232                        __ptext12 17E2  
                      __ptext21 0AD0                        __ptext13 1652                        __ptext14 1696  
                      __ptext15 17B8                        __ptext16 1716                        __ptext17 1560  
                      __ptext18 147A                        __ptext19 0E6A                        _init_adc 1780  
                      _read_adc 15C4                        _scan_key 112A                        isa$xinst 0000  
                      int$flags 0055           __end_of_read_password 0AD0                   ?_gear_monitor 0001  
                   ??_init_clcd 0003           __end_of_read_switches 1560                        intlevel2 0000  
              ___lwmod@dividend 0001                 gear_monitor@key 0006        read_password@ind_compare 001C  
                ??_gear_monitor 0006                 ___lwmod@divisor 0003                 ___lwmod@counter 0005  
                 _display_speed 1696  
