

Microchip MPLAB XC8 Assembler V2.41 build 20230208172133 
                                                                                               Wed Jan 03 16:56:39 2024

Microchip MPLAB XC8 C Compiler v2.41 (Free license) build 20230208172133 Og1 
     1                           	processor	18F4580
     2                           	fnconf	rparam,??,?,0
     3                           	pagewidth 120
     4                           	opt	flic
     5                           	psect	idataCOMRAM,global,class=CODE,delta=1,noexec
     6                           	psect	idataBANK0,global,class=CODE,delta=1,noexec
     7                           	psect	mediumconst,global,reloc=2,class=MEDIUMCONST,delta=1,noexec
     8                           	psect	cinit,global,reloc=2,class=CODE,delta=1
     9                           	psect	bssCOMRAM,global,class=COMRAM,space=1,delta=1,lowdata,noexec
    10                           	psect	dataCOMRAM,global,class=COMRAM,space=1,delta=1,lowdata,noexec
    11                           	psect	bssBANK0,global,class=BANK0,space=1,delta=1,lowdata,noexec
    12                           	psect	dataBANK0,global,class=BANK0,space=1,delta=1,lowdata,noexec
    13                           	psect	cstackCOMRAM,global,class=COMRAM,space=1,delta=1,lowdata,noexec
    14                           	psect	text0,global,reloc=2,class=CODE,delta=1
    15                           	psect	text1,global,reloc=2,class=CODE,delta=1
    16                           	psect	text2,global,reloc=2,class=CODE,delta=1
    17                           	psect	text3,global,reloc=2,class=CODE,delta=1
    18                           	psect	text4,global,reloc=2,class=CODE,delta=1
    19                           	psect	text5,global,reloc=2,class=CODE,delta=1
    20                           	psect	text6,global,reloc=2,class=CODE,delta=1
    21                           	psect	text7,global,reloc=2,class=CODE,delta=1
    22                           	psect	text8,global,reloc=2,class=CODE,delta=1
    23                           	psect	text9,global,reloc=2,class=CODE,delta=1
    24                           	psect	text10,global,reloc=2,class=CODE,delta=1
    25                           	psect	text11,global,reloc=2,class=CODE,delta=1
    26                           	psect	text12,global,reloc=2,class=CODE,delta=1
    27                           	psect	text13,global,reloc=2,class=CODE,delta=1
    28                           	psect	text14,global,reloc=2,class=CODE,delta=1
    29                           	psect	text15,global,reloc=2,class=CODE,delta=1
    30                           	psect	text16,global,reloc=2,class=CODE,delta=1
    31                           	psect	text17,global,reloc=2,class=CODE,delta=1
    32                           	psect	text18,global,reloc=2,class=CODE,delta=1
    33                           	psect	text19,global,reloc=2,class=CODE,delta=1
    34                           	psect	text20,global,reloc=2,class=CODE,delta=1
    35                           	psect	text21,global,reloc=2,class=CODE,delta=1
    36                           	psect	text22,global,reloc=2,class=CODE,delta=1
    37                           	psect	text23,global,reloc=2,class=CODE,delta=1,group=1
    38                           	psect	text24,global,reloc=2,class=CODE,delta=1,group=1
    39                           	psect	text25,global,reloc=2,class=CODE,delta=1
    40                           	psect	text26,global,reloc=2,class=CODE,delta=1
    41                           	psect	text27,global,reloc=2,class=CODE,delta=1
    42                           	psect	text28,global,reloc=2,class=CODE,delta=1
    43                           	psect	text29,global,reloc=2,class=CODE,delta=1
    44                           	psect	text30,global,reloc=2,class=CODE,delta=1
    45                           	psect	text31,global,reloc=2,class=CODE,delta=1
    46                           	psect	text32,global,reloc=2,class=CODE,delta=1
    47                           	psect	text33,global,reloc=2,class=CODE,delta=1
    48                           	psect	text34,global,reloc=2,class=CODE,delta=1
    49                           	psect	text35,global,reloc=2,class=CODE,delta=1
    50                           	psect	text36,global,reloc=2,class=CODE,delta=1
    51                           	psect	text37,global,reloc=2,class=CODE,delta=1
    52                           	psect	text38,global,reloc=2,class=CODE,delta=1
    53                           	psect	text39,global,reloc=2,class=CODE,delta=1
    54                           	psect	text40,global,reloc=2,class=CODE,delta=1,group=1
    55                           	psect	text41,global,reloc=2,class=CODE,delta=1,group=1
    56                           	psect	text42,global,reloc=2,class=CODE,delta=1,group=1
    57                           	psect	intcode,global,reloc=2,class=CODE,delta=1
    58                           	psect	intcode_body,global,reloc=2,class=CODE,delta=1
    59                           	psect	intsave_regs,global,class=BIGRAM,space=1,delta=1,noexec
    60                           	psect	rparam,global,class=COMRAM,space=1,delta=1,noexec
    61                           	psect	temp,global,ovrld,common,class=COMRAM,space=1,delta=1
    62                           	psect	idloc,global,abs,ovrld,class=IDLOC,space=5,delta=1,noexec
    63                           	psect	config,global,abs,ovrld,class=CONFIG,space=4,delta=1,noexec
    64   000000                     
    65                           ; Version 2.20
    66                           ; Generated 12/02/2020 GMT
    67                           ; 
    68                           ; Copyright © 2020, Microchip Technology Inc. and its subsidiaries ("Microchip")
    69                           ; All rights reserved.
    70                           ; 
    71                           ; This software is developed by Microchip Technology Inc. and its subsidiaries ("Microch
      +                          ip").
    72                           ; 
    73                           ; Redistribution and use in source and binary forms, with or without modification, are
    74                           ; permitted provided that the following conditions are met:
    75                           ; 
    76                           ;     1. Redistributions of source code must retain the above copyright notice, this lis
      +                          t of
    77                           ;        conditions and the following disclaimer.
    78                           ; 
    79                           ;     2. Redistributions in binary form must reproduce the above copyright notice, this 
      +                          list
    80                           ;        of conditions and the following disclaimer in the documentation and/or other
    81                           ;        materials provided with the distribution.
    82                           ; 
    83                           ;     3. Microchip's name may not be used to endorse or promote products derived from th
      +                          is
    84                           ;        software without specific prior written permission.
    85                           ; 
    86                           ; THIS SOFTWARE IS PROVIDED BY MICROCHIP "AS IS" AND ANY EXPRESS OR IMPLIED WARRANTIES,
    87                           ; INCLUDING, BUT NOT LIMITED TO, THE IMPLIED WARRANTIES OF MERCHANTABILITY AND FITNESS F
      +                          OR
    88                           ; PURPOSE ARE DISCLAIMED.  IN NO EVENT SHALL MICROCHIP BE LIABLE FOR ANY DIRECT, INDIREC
      +                          T,
    89                           ; INCIDENTAL, SPECIAL, EXEMPLARY, OR CONSEQUENTIAL DAMAGES (INCLUDING BUT NOT LIMITED TO
    90                           ; PROCUREMENT OF SUBSTITUTE GOODS OR SERVICES; LOSS OF USE, DATA OR PROFITS; OR BUSINESS
    91                           ; INTERRUPTION) HOWSOEVER CAUSED AND ON ANY THEORY OF LIABILITY, WHETHER IN CONTRACT, ST
      +                          RICT
    92                           ; LIABILITY, OR TORT (INCLUDING NEGLIGENCE OR OTHERWISE) ARISING IN ANY WAY OUT OF THE U
      +                          SE OF
    93                           ; THIS SOFTWARE, EVEN IF ADVISED OF THE POSSIBILITY OF SUCH DAMAGE.
    94                           ; 
    95                           ; 
    96                           ; Code-generator required, PIC18F4580 Definitions
    97                           ; 
    98                           ; SFR Addresses
    99   000000                     
   100                           	psect	idataCOMRAM
   101   0025E0                     __pidataCOMRAM:
   102                           	callstack 0
   103                           
   104                           ;initializer for read_switches@once
   105   0025E0  01                 	db	1
   106                           
   107                           ;initializer for _attempt
   108   0025E1  33                 	db	51
   109                           
   110                           	psect	idataBANK0
   111   002398                     __pidataBANK0:
   112                           	callstack 0
   113                           
   114                           ;initializer for _gear_data
   115   002398  F3                 	db	low STR_6
   116   002399  2F                 	db	high STR_6
   117   00239A  F0                 	db	low STR_7
   118   00239B  2F                 	db	high STR_7
   119   00239C  DE                 	db	low STR_8
   120   00239D  2F                 	db	high STR_8
   121   00239E  E1                 	db	low STR_9
   122   00239F  2F                 	db	high STR_9
   123   0023A0  E4                 	db	low STR_10
   124   0023A1  2F                 	db	high STR_10
   125   0023A2  E7                 	db	low STR_11
   126   0023A3  2F                 	db	high STR_11
   127   0023A4  F9                 	db	low STR_12
   128   0023A5  2F                 	db	high STR_12
   129   0023A6  DB                 	db	low STR_13
   130   0023A7  2F                 	db	high STR_13
   131                           
   132                           ;initializer for _menu
   133   0023A8  52                 	db	low STR_14
   134   0023A9  2E                 	db	high STR_14
   135   0023AA  41                 	db	low STR_15
   136   0023AB  2E                 	db	high STR_15
   137   0023AC  96                 	db	low STR_16
   138   0023AD  2E                 	db	high STR_16
   139   0023AE  63                 	db	low STR_17
   140   0023AF  2E                 	db	high STR_17
   141   0023B0  95                 	db	low STR_18
   142   0023B1  2F                 	db	high STR_18
   143                           
   144                           ;initializer for _menu_event
   145   0023B2  FC                 	db	low STR_28
   146   0023B3  2F                 	db	high STR_28
   147   0023B4  ED                 	db	low STR_29
   148   0023B5  2F                 	db	high STR_29
   149   0023B6  EA                 	db	low STR_30
   150   0023B7  2F                 	db	high STR_30
   151   0023B8  F6                 	db	low STR_31
   152   0023B9  2F                 	db	high STR_31
   153                           
   154                           ;initializer for _star_flag
   155   0023BA  0001               	dw	1
   156                           
   157                           ;initializer for _index_2
   158   0023BC  0001               	dw	1
   159                           
   160                           ;initializer for _event
   161   0023BE  20                 	db	32
   162   0023BF  20                 	db	32
   163   0023C0  20                 	db	32
   164   0023C1  20                 	db	32
   165   0023C2  20                 	db	32
   166   0023C3  20                 	db	32
   167   0023C4  20                 	db	32
   168   0023C5  20                 	db	32
   169   0023C6  20                 	db	32
   170   0023C7  20                 	db	32
   171   0023C8  4F                 	db	79
   172   0023C9  4E                 	db	78
   173   0023CA  20                 	db	32
   174   0023CB  20                 	db	32
   175   0023CC  20                 	db	32
   176   0023CD  20                 	db	32
   177   0023CE  20                 	db	32
   178                           
   179                           ;initializer for _time
   180   0023CF  30                 	db	48
   181   0023D0  30                 	db	48
   182   0023D1  3A                 	db	58
   183   0023D2  30                 	db	48
   184   0023D3  30                 	db	48
   185   0023D4  3A                 	db	58
   186   0023D5  30                 	db	48
   187   0023D6  30                 	db	48
   188   0023D7  00                 	db	0
   189                           
   190                           ;initializer for _original_password
   191   0023D8  31                 	db	49
   192   0023D9  31                 	db	49
   193   0023DA  30                 	db	48
   194   0023DB  30                 	db	48
   195   0023DC  00                 	db	0
   196   000000                     _TMR0	set	4054
   197   000000                     _SSPADD	set	4040
   198   000000                     _SSPCON1	set	4038
   199   000000                     _ADRESH	set	4036
   200   000000                     _ADRESL	set	4035
   201   000000                     _TRISC	set	3988
   202   000000                     _ACKSTAT	set	32302
   203   000000                     _CKE	set	32318
   204   000000                     _TMR0ON	set	32431
   205   000000                     _TRISD7	set	31919
   206   000000                     _RBPU	set	32655
   207   000000                     _ADCON0	set	4034
   208   000000                     _TRISD	set	3989
   209   000000                     _ACKEN	set	32300
   210   000000                     _ACKDT	set	32301
   211   000000                     _RCEN	set	32299
   212   000000                     _RSEN	set	32297
   213   000000                     _PEN	set	32298
   214   000000                     _SEN	set	32296
   215   000000                     _SMP	set	32319
   216   000000                     _TRISC4	set	31908
   217   000000                     _TRISC3	set	31907
   218   000000                     _PSA	set	32427
   219   000000                     _T0CS	set	32429
   220   000000                     _T08BIT	set	32430
   221   000000                     _TMR0IF	set	32658
   222   000000                     _TMR0IE	set	32661
   223   000000                     _PEIE	set	32662
   224   000000                     _GO	set	32273
   225   000000                     _ADFM	set	32263
   226   000000                     _ADCS0	set	32256
   227   000000                     _ADCS1	set	32257
   228   000000                     _ADCS2	set	32258
   229   000000                     _ACQT0	set	32259
   230   000000                     _ACQT1	set	32260
   231   000000                     _PCFG0	set	32264
   232   000000                     _PCFG1	set	32265
   233   000000                     _PCFG2	set	32266
   234   000000                     _PCFG3	set	32267
   235   000000                     _VCFG0	set	32268
   236   000000                     _RD7	set	31775
   237   000000                     _RC0	set	31760
   238   000000                     _RC2	set	31762
   239   000000                     _RB4	set	31756
   240   000000                     _RB3	set	31755
   241   000000                     _RB2	set	31754
   242   000000                     _RB1	set	31753
   243   000000                     _RB7	set	31759
   244   000000                     _RB6	set	31758
   245   000000                     _TRISB	set	3987
   246   000000                     _RB5	set	31757
   247   000000                     _GIE	set	32663
   248   000000                     _PORTD	set	3971
   249   000000                     _RC1	set	31761
   250   000000                     _SSPIF	set	31987
   251   000000                     _ACQT2	set	32261
   252   000000                     _VCFG1	set	32269
   253   000000                     _ADON	set	32272
   254   000000                     _SSPBUF	set	4041
   255   000000                     _BCLIF	set	32011
   256                           
   257                           	psect	mediumconst
   258   002E1C                     __pmediumconst:
   259                           	callstack 0
   260   002E1C  00                 	db	0
   261   002E1D                     STR_48:
   262   002E1D  20                 	db	32
   263   002E1E  20                 	db	32
   264   002E1F  20                 	db	32
   265   002E20  4E                 	db	78	;'N'
   266   002E21  6F                 	db	111	;'o'
   267   002E22  74                 	db	116	;'t'
   268   002E23  20                 	db	32
   269   002E24  4D                 	db	77	;'M'
   270   002E25  61                 	db	97	;'a'
   271   002E26  74                 	db	116	;'t'
   272   002E27  63                 	db	99	;'c'
   273   002E28  68                 	db	104	;'h'
   274   002E29  65                 	db	101	;'e'
   275   002E2A  64                 	db	100	;'d'
   276   002E2B  20                 	db	32
   277   002E2C  20                 	db	32
   278   002E2D  20                 	db	32
   279   002E2E  00                 	db	0
   280   002E2F                     STR_35:
   281   002E2F  20                 	db	32
   282   002E30  20                 	db	32
   283   002E31  20                 	db	32
   284   002E32  4C                 	db	76	;'L'
   285   002E33  6F                 	db	111	;'o'
   286   002E34  67                 	db	103	;'g'
   287   002E35  20                 	db	32
   288   002E36  43                 	db	67	;'C'
   289   002E37  6C                 	db	108	;'l'
   290   002E38  65                 	db	101	;'e'
   291   002E39  61                 	db	97	;'a'
   292   002E3A  72                 	db	114	;'r'
   293   002E3B  65                 	db	101	;'e'
   294   002E3C  64                 	db	100	;'d'
   295   002E3D  20                 	db	32
   296   002E3E  20                 	db	32
   297   002E3F  20                 	db	32
   298   002E40  00                 	db	0
   299   002E41                     STR_15:
   300   002E41  53                 	db	83	;'S'
   301   002E42  65                 	db	101	;'e'
   302   002E43  74                 	db	116	;'t'
   303   002E44  20                 	db	32
   304   002E45  54                 	db	84	;'T'
   305   002E46  69                 	db	105	;'i'
   306   002E47  6D                 	db	109	;'m'
   307   002E48  65                 	db	101	;'e'
   308   002E49  20                 	db	32
   309   002E4A  20                 	db	32
   310   002E4B  20                 	db	32
   311   002E4C  20                 	db	32
   312   002E4D  20                 	db	32
   313   002E4E  20                 	db	32
   314   002E4F  20                 	db	32
   315   002E50  20                 	db	32
   316   002E51  00                 	db	0
   317   002E52                     STR_14:
   318   002E52  56                 	db	86	;'V'
   319   002E53  69                 	db	105	;'i'
   320   002E54  65                 	db	101	;'e'
   321   002E55  77                 	db	119	;'w'
   322   002E56  20                 	db	32
   323   002E57  4C                 	db	76	;'L'
   324   002E58  6F                 	db	111	;'o'
   325   002E59  67                 	db	103	;'g'
   326   002E5A  20                 	db	32
   327   002E5B  20                 	db	32
   328   002E5C  20                 	db	32
   329   002E5D  20                 	db	32
   330   002E5E  20                 	db	32
   331   002E5F  20                 	db	32
   332   002E60  20                 	db	32
   333   002E61  20                 	db	32
   334   002E62  00                 	db	0
   335   002E63                     STR_17:
   336   002E63  43                 	db	67	;'C'
   337   002E64  6C                 	db	108	;'l'
   338   002E65  65                 	db	101	;'e'
   339   002E66  61                 	db	97	;'a'
   340   002E67  72                 	db	114	;'r'
   341   002E68  20                 	db	32
   342   002E69  6C                 	db	108	;'l'
   343   002E6A  6F                 	db	111	;'o'
   344   002E6B  67                 	db	103	;'g'
   345   002E6C  20                 	db	32
   346   002E6D  20                 	db	32
   347   002E6E  20                 	db	32
   348   002E6F  20                 	db	32
   349   002E70  20                 	db	32
   350   002E71  20                 	db	32
   351   002E72  20                 	db	32
   352   002E73  00                 	db	0
   353   002E74                     STR_47:
   354   002E74  20                 	db	32
   355   002E75  20                 	db	32
   356   002E76  20                 	db	32
   357   002E77  20                 	db	32
   358   002E78  50                 	db	80	;'P'
   359   002E79  61                 	db	97	;'a'
   360   002E7A  73                 	db	115	;'s'
   361   002E7B  73                 	db	115	;'s'
   362   002E7C  77                 	db	119	;'w'
   363   002E7D  6F                 	db	111	;'o'
   364   002E7E  72                 	db	114	;'r'
   365   002E7F  64                 	db	100	;'d'
   366   002E80  20                 	db	32
   367   002E81  20                 	db	32
   368   002E82  20                 	db	32
   369   002E83  20                 	db	32
   370   002E84  00                 	db	0
   371   002E85                     STR_25:
   372   002E85  20                 	db	32
   373   002E86  20                 	db	32
   374   002E87  20                 	db	32
   375   002E88  4D                 	db	77	;'M'
   376   002E89  65                 	db	101	;'e'
   377   002E8A  6E                 	db	110	;'n'
   378   002E8B  75                 	db	117	;'u'
   379   002E8C  20                 	db	32
   380   002E8D  50                 	db	80	;'P'
   381   002E8E  61                 	db	97	;'a'
   382   002E8F  67                 	db	103	;'g'
   383   002E90  65                 	db	101	;'e'
   384   002E91  20                 	db	32
   385   002E92  20                 	db	32
   386   002E93  20                 	db	32
   387   002E94  20                 	db	32
   388   002E95  00                 	db	0
   389   002E96                     STR_16:
   390   002E96  44                 	db	68	;'D'
   391   002E97  6F                 	db	111	;'o'
   392   002E98  77                 	db	119	;'w'
   393   002E99  6E                 	db	110	;'n'
   394   002E9A  6C                 	db	108	;'l'
   395   002E9B  6F                 	db	111	;'o'
   396   002E9C  61                 	db	97	;'a'
   397   002E9D  64                 	db	100	;'d'
   398   002E9E  20                 	db	32
   399   002E9F  4C                 	db	76	;'L'
   400   002EA0  6F                 	db	111	;'o'
   401   002EA1  67                 	db	103	;'g'
   402   002EA2  20                 	db	32
   403   002EA3  20                 	db	32
   404   002EA4  20                 	db	32
   405   002EA5  20                 	db	32
   406   002EA6  00                 	db	0
   407   002EA7                     STR_42:
   408   002EA7  20                 	db	32
   409   002EA8  20                 	db	32
   410   002EA9  4E                 	db	78	;'N'
   411   002EAA  65                 	db	101	;'e'
   412   002EAB  77                 	db	119	;'w'
   413   002EAC  20                 	db	32
   414   002EAD  50                 	db	80	;'P'
   415   002EAE  61                 	db	97	;'a'
   416   002EAF  73                 	db	115	;'s'
   417   002EB0  73                 	db	115	;'s'
   418   002EB1  77                 	db	119	;'w'
   419   002EB2  6F                 	db	111	;'o'
   420   002EB3  72                 	db	114	;'r'
   421   002EB4  64                 	db	100	;'d'
   422   002EB5  20                 	db	32
   423   002EB6  20                 	db	32
   424   002EB7  00                 	db	0
   425   002EB8                     STR_26:
   426   002EB8  20                 	db	32
   427   002EB9  20                 	db	32
   428   002EBA  41                 	db	65	;'A'
   429   002EBB  74                 	db	116	;'t'
   430   002EBC  74                 	db	116	;'t'
   431   002EBD  65                 	db	101	;'e'
   432   002EBE  6D                 	db	109	;'m'
   433   002EBF  70                 	db	112	;'p'
   434   002EC0  74                 	db	116	;'t'
   435   002EC1  20                 	db	32
   436   002EC2  4F                 	db	79	;'O'
   437   002EC3  76                 	db	118	;'v'
   438   002EC4  65                 	db	101	;'e'
   439   002EC5  72                 	db	114	;'r'
   440   002EC6  20                 	db	32
   441   002EC7  20                 	db	32
   442   002EC8  00                 	db	0
   443   002EC9                     STR_36:
   444   002EC9  20                 	db	32
   445   002ECA  20                 	db	32
   446   002ECB  53                 	db	83	;'S'
   447   002ECC  75                 	db	117	;'u'
   448   002ECD  63                 	db	99	;'c'
   449   002ECE  63                 	db	99	;'c'
   450   002ECF  65                 	db	101	;'e'
   451   002ED0  73                 	db	115	;'s'
   452   002ED1  73                 	db	115	;'s'
   453   002ED2  66                 	db	102	;'f'
   454   002ED3  75                 	db	117	;'u'
   455   002ED4  6C                 	db	108	;'l'
   456   002ED5  6C                 	db	108	;'l'
   457   002ED6  79                 	db	121	;'y'
   458   002ED7  20                 	db	32
   459   002ED8  20                 	db	32
   460   002ED9  00                 	db	0
   461   002EDA                     STR_38:
   462   002EDA  20                 	db	32
   463   002EDB  57                 	db	87	;'W'
   464   002EDC  72                 	db	114	;'r'
   465   002EDD  6F                 	db	111	;'o'
   466   002EDE  6E                 	db	110	;'n'
   467   002EDF  67                 	db	103	;'g'
   468   002EE0  20                 	db	32
   469   002EE1  50                 	db	80	;'P'
   470   002EE2  61                 	db	97	;'a'
   471   002EE3  73                 	db	115	;'s'
   472   002EE4  73                 	db	115	;'s'
   473   002EE5  77                 	db	119	;'w'
   474   002EE6  6F                 	db	111	;'o'
   475   002EE7  72                 	db	114	;'r'
   476   002EE8  64                 	db	100	;'d'
   477   002EE9  20                 	db	32
   478   002EEA  00                 	db	0
   479   002EEB                     STR_37:
   480   002EEB  20                 	db	32
   481   002EEC  45                 	db	69	;'E'
   482   002EED  6E                 	db	110	;'n'
   483   002EEE  74                 	db	116	;'t'
   484   002EEF  65                 	db	101	;'e'
   485   002EF0  72                 	db	114	;'r'
   486   002EF1  20                 	db	32
   487   002EF2  50                 	db	80	;'P'
   488   002EF3  61                 	db	97	;'a'
   489   002EF4  73                 	db	115	;'s'
   490   002EF5  73                 	db	115	;'s'
   491   002EF6  77                 	db	119	;'w'
   492   002EF7  6F                 	db	111	;'o'
   493   002EF8  72                 	db	114	;'r'
   494   002EF9  64                 	db	100	;'d'
   495   002EFA  20                 	db	32
   496   002EFB  00                 	db	0
   497   002EFC                     STR_20:
   498   002EFC  20                 	db	32
   499   002EFD  45                 	db	69	;'E'
   500   002EFE  6E                 	db	110	;'n'
   501   002EFF  74                 	db	116	;'t'
   502   002F00  65                 	db	101	;'e'
   503   002F01  72                 	db	114	;'r'
   504   002F02  20                 	db	32
   505   002F03  70                 	db	112	;'p'
   506   002F04  61                 	db	97	;'a'
   507   002F05  73                 	db	115	;'s'
   508   002F06  73                 	db	115	;'s'
   509   002F07  77                 	db	119	;'w'
   510   002F08  6F                 	db	111	;'o'
   511   002F09  72                 	db	114	;'r'
   512   002F0A  64                 	db	100	;'d'
   513   002F0B  20                 	db	32
   514   002F0C  00                 	db	0
   515   002F0D                     STR_19:
   516   002F0D  20                 	db	32
   517   002F0E  20                 	db	32
   518   002F0F  54                 	db	84	;'T'
   519   002F10  49                 	db	73	;'I'
   520   002F11  4D                 	db	77	;'M'
   521   002F12  45                 	db	69	;'E'
   522   002F13  20                 	db	32
   523   002F14  20                 	db	32
   524   002F15  20                 	db	32
   525   002F16  20                 	db	32
   526   002F17  45                 	db	69	;'E'
   527   002F18  56                 	db	86	;'V'
   528   002F19  20                 	db	32
   529   002F1A  20                 	db	32
   530   002F1B  53                 	db	83	;'S'
   531   002F1C  50                 	db	80	;'P'
   532   002F1D  00                 	db	0
   533   002F1E                     STR_27:
   534   002F1E  20                 	db	32
   535   002F1F  57                 	db	87	;'W'
   536   002F20  61                 	db	97	;'a'
   537   002F21  69                 	db	105	;'i'
   538   002F22  74                 	db	116	;'t'
   539   002F23  20                 	db	32
   540   002F24  46                 	db	70	;'F'
   541   002F25  6F                 	db	111	;'o'
   542   002F26  72                 	db	114	;'r'
   543   002F27  20                 	db	32
   544   002F28  20                 	db	32
   545   002F29  20                 	db	32
   546   002F2A  20                 	db	32
   547   002F2B  53                 	db	83	;'S'
   548   002F2C  65                 	db	101	;'e'
   549   002F2D  63                 	db	99	;'c'
   550   002F2E  00                 	db	0
   551   002F2F                     STR_45:
   552   002F2F  50                 	db	80	;'P'
   553   002F30  61                 	db	97	;'a'
   554   002F31  73                 	db	115	;'s'
   555   002F32  73                 	db	115	;'s'
   556   002F33  77                 	db	119	;'w'
   557   002F34  6F                 	db	111	;'o'
   558   002F35  72                 	db	114	;'r'
   559   002F36  64                 	db	100	;'d'
   560   002F37  20                 	db	32
   561   002F38  63                 	db	99	;'c'
   562   002F39  68                 	db	104	;'h'
   563   002F3A  61                 	db	97	;'a'
   564   002F3B  6E                 	db	110	;'n'
   565   002F3C  67                 	db	103	;'g'
   566   002F3D  65                 	db	101	;'e'
   567   002F3E  64                 	db	100	;'d'
   568   002F3F  00                 	db	0
   569   002F40                     STR_44:
   570   002F40  43                 	db	67	;'C'
   571   002F41  6F                 	db	111	;'o'
   572   002F42  6E                 	db	110	;'n'
   573   002F43  66                 	db	102	;'f'
   574   002F44  69                 	db	105	;'i'
   575   002F45  72                 	db	114	;'r'
   576   002F46  6D                 	db	109	;'m'
   577   002F47  20                 	db	32
   578   002F48  50                 	db	80	;'P'
   579   002F49  61                 	db	97	;'a'
   580   002F4A  73                 	db	115	;'s'
   581   002F4B  73                 	db	115	;'s'
   582   002F4C  77                 	db	119	;'w'
   583   002F4D  6F                 	db	111	;'o'
   584   002F4E  72                 	db	114	;'r'
   585   002F4F  64                 	db	100	;'d'
   586   002F50  00                 	db	0
   587   002F51                     STR_24:
   588   002F51  43                 	db	67	;'C'
   589   002F52  6F                 	db	111	;'o'
   590   002F53  72                 	db	114	;'r'
   591   002F54  72                 	db	114	;'r'
   592   002F55  65                 	db	101	;'e'
   593   002F56  63                 	db	99	;'c'
   594   002F57  74                 	db	116	;'t'
   595   002F58  20                 	db	32
   596   002F59  50                 	db	80	;'P'
   597   002F5A  61                 	db	97	;'a'
   598   002F5B  73                 	db	115	;'s'
   599   002F5C  73                 	db	115	;'s'
   600   002F5D  77                 	db	119	;'w'
   601   002F5E  6F                 	db	111	;'o'
   602   002F5F  72                 	db	114	;'r'
   603   002F60  64                 	db	100	;'d'
   604   002F61  00                 	db	0
   605   002F62                     STR_1:
   606   002F62  20                 	db	32
   607   002F63  20                 	db	32
   608   002F64  20                 	db	32
   609   002F65  20                 	db	32
   610   002F66  20                 	db	32
   611   002F67  20                 	db	32
   612   002F68  20                 	db	32
   613   002F69  20                 	db	32
   614   002F6A  20                 	db	32
   615   002F6B  20                 	db	32
   616   002F6C  20                 	db	32
   617   002F6D  20                 	db	32
   618   002F6E  20                 	db	32
   619   002F6F  20                 	db	32
   620   002F70  20                 	db	32
   621   002F71  20                 	db	32
   622   002F72  00                 	db	0
   623   002F73                     STR_3:
   624   002F73  20                 	db	32
   625   002F74  20                 	db	32
   626   002F75  53                 	db	83	;'S'
   627   002F76  65                 	db	101	;'e'
   628   002F77  74                 	db	116	;'t'
   629   002F78  20                 	db	32
   630   002F79  54                 	db	84	;'T'
   631   002F7A  69                 	db	105	;'i'
   632   002F7B  6D                 	db	109	;'m'
   633   002F7C  65                 	db	101	;'e'
   634   002F7D  20                 	db	32
   635   002F7E  20                 	db	32
   636   002F7F  20                 	db	32
   637   002F80  20                 	db	32
   638   002F81  20                 	db	32
   639   002F82  20                 	db	32
   640   002F83  00                 	db	0
   641   002F84                     STR_5:
   642   002F84  20                 	db	32
   643   002F85  20                 	db	32
   644   002F86  20                 	db	32
   645   002F87  68                 	db	104	;'h'
   646   002F88  65                 	db	101	;'e'
   647   002F89  6C                 	db	108	;'l'
   648   002F8A  6C                 	db	108	;'l'
   649   002F8B  6F                 	db	111	;'o'
   650   002F8C  2D                 	db	45
   651   002F8D  6D                 	db	109	;'m'
   652   002F8E  65                 	db	101	;'e'
   653   002F8F  6E                 	db	110	;'n'
   654   002F90  75                 	db	117	;'u'
   655   002F91  20                 	db	32
   656   002F92  20                 	db	32
   657   002F93  20                 	db	32
   658   002F94  00                 	db	0
   659   002F95                     STR_18:
   660   002F95  52                 	db	82	;'R'
   661   002F96  65                 	db	101	;'e'
   662   002F97  73                 	db	115	;'s'
   663   002F98  65                 	db	101	;'e'
   664   002F99  74                 	db	116	;'t'
   665   002F9A  20                 	db	32
   666   002F9B  50                 	db	80	;'P'
   667   002F9C  61                 	db	97	;'a'
   668   002F9D  73                 	db	115	;'s'
   669   002F9E  73                 	db	115	;'s'
   670   002F9F  77                 	db	119	;'w'
   671   002FA0  6F                 	db	111	;'o'
   672   002FA1  72                 	db	114	;'r'
   673   002FA2  64                 	db	100	;'d'
   674   002FA3  20                 	db	32
   675   002FA4  00                 	db	0
   676   002FA5                     STR_21:
   677   002FA5  20                 	db	32
   678   002FA6  57                 	db	87	;'W'
   679   002FA7  72                 	db	114	;'r'
   680   002FA8  6F                 	db	111	;'o'
   681   002FA9  6E                 	db	110	;'n'
   682   002FAA  67                 	db	103	;'g'
   683   002FAB  20                 	db	32
   684   002FAC  50                 	db	80	;'P'
   685   002FAD  61                 	db	97	;'a'
   686   002FAE  73                 	db	115	;'s'
   687   002FAF  73                 	db	115	;'s'
   688   002FB0  77                 	db	119	;'w'
   689   002FB1  6F                 	db	111	;'o'
   690   002FB2  72                 	db	114	;'r'
   691   002FB3  64                 	db	100	;'d'
   692   002FB4  00                 	db	0
   693   002FB5                     STR_22:
   694   002FB5  2D                 	db	45
   695   002FB6  41                 	db	65	;'A'
   696   002FB7  74                 	db	116	;'t'
   697   002FB8  74                 	db	116	;'t'
   698   002FB9  65                 	db	101	;'e'
   699   002FBA  6D                 	db	109	;'m'
   700   002FBB  70                 	db	112	;'p'
   701   002FBC  74                 	db	116	;'t'
   702   002FBD  20                 	db	32
   703   002FBE  52                 	db	82	;'R'
   704   002FBF  65                 	db	101	;'e'
   705   002FC0  6D                 	db	109	;'m'
   706   002FC1  61                 	db	97	;'a'
   707   002FC2  69                 	db	105	;'i'
   708   002FC3  6E                 	db	110	;'n'
   709   002FC4  00                 	db	0
   710   002FC5                     STR_33:
   711   002FC5  5D                 	db	93	;']'
   712   002FC6  20                 	db	32
   713   002FC7  20                 	db	32
   714   002FC8  20                 	db	32
   715   002FC9  20                 	db	32
   716   002FCA  20                 	db	32
   717   002FCB  20                 	db	32
   718   002FCC  20                 	db	32
   719   002FCD  20                 	db	32
   720   002FCE  20                 	db	32
   721   002FCF  20                 	db	32
   722   002FD0  00                 	db	0
   723   002FD1                     STR_32:
   724   002FD1  4C                 	db	76	;'L'
   725   002FD2  6F                 	db	111	;'o'
   726   002FD3  67                 	db	103	;'g'
   727   002FD4  73                 	db	115	;'s'
   728   002FD5  3A                 	db	58	;':'
   729   002FD6  2D                 	db	45
   730   002FD7  2D                 	db	45
   731   002FD8  3E                 	db	62	;'>'
   732   002FD9  5B                 	db	91	;'['
   733   002FDA  00                 	db	0
   734   002FDB                     STR_13:
   735   002FDB  43                 	db	67	;'C'
   736   002FDC  20                 	db	32
   737   002FDD  00                 	db	0
   738   002FDE                     STR_8:
   739   002FDE  47                 	db	71	;'G'
   740   002FDF  31                 	db	49	;'1'
   741   002FE0  00                 	db	0
   742   002FE1                     STR_9:
   743   002FE1  47                 	db	71	;'G'
   744   002FE2  32                 	db	50	;'2'
   745   002FE3  00                 	db	0
   746   002FE4                     STR_10:
   747   002FE4  47                 	db	71	;'G'
   748   002FE5  33                 	db	51	;'3'
   749   002FE6  00                 	db	0
   750   002FE7                     STR_11:
   751   002FE7  47                 	db	71	;'G'
   752   002FE8  34                 	db	52	;'4'
   753   002FE9  00                 	db	0
   754   002FEA                     STR_30:
   755   002FEA  43                 	db	67	;'C'
   756   002FEB  4C                 	db	76	;'L'
   757   002FEC  00                 	db	0
   758   002FED                     STR_29:
   759   002FED  44                 	db	68	;'D'
   760   002FEE  4C                 	db	76	;'L'
   761   002FEF  00                 	db	0
   762   002FF0                     STR_7:
   763   002FF0  47                 	db	71	;'G'
   764   002FF1  4E                 	db	78	;'N'
   765   002FF2  00                 	db	0
   766   002FF3                     STR_6:
   767   002FF3  4F                 	db	79	;'O'
   768   002FF4  4E                 	db	78	;'N'
   769   002FF5  00                 	db	0
   770   002FF6                     STR_31:
   771   002FF6  43                 	db	67	;'C'
   772   002FF7  50                 	db	80	;'P'
   773   002FF8  00                 	db	0
   774   002FF9                     STR_12:
   775   002FF9  47                 	db	71	;'G'
   776   002FFA  52                 	db	82	;'R'
   777   002FFB  00                 	db	0
   778   002FFC                     STR_28:
   779   002FFC  53                 	db	83	;'S'
   780   002FFD  54                 	db	84	;'T'
   781   002FFE  00                 	db	0
   782   002FFF  00                 	db	0	; dummy byte at the end
   783   000000                     
   784                           ; #config settings
   785                           
   786                           	psect	cinit
   787   0021AA                     __pcinit:
   788                           	callstack 0
   789   0021AA                     start_initialization:
   790                           	callstack 0
   791   0021AA                     __initialization:
   792                           	callstack 0
   793                           
   794                           ; Initialize objects allocated to BANK0 (69 bytes)
   795                           ; load TBLPTR registers with __pidataBANK0
   796   0021AA  0E98               	movlw	low __pidataBANK0
   797   0021AC  6EF6               	movwf	tblptrl,c
   798   0021AE  0E23               	movlw	high __pidataBANK0
   799   0021B0  6EF7               	movwf	tblptrh,c
   800   0021B2  0E00               	movlw	low (__pidataBANK0 shr (0+16))
   801   0021B4  6EF8               	movwf	tblptru,c
   802   0021B6  EE00  F060         	lfsr	0,__pdataBANK0
   803   0021BA  EE10 F045          	lfsr	1,69
   804   0021BE                     copy_data0:
   805   0021BE  0009               	tblrd		*+
   806   0021C0  CFF5 FFEE          	movff	tablat,postinc0
   807   0021C4  50E5               	movf	postdec1,w,c
   808   0021C6  50E1               	movf	fsr1l,w,c
   809   0021C8  E1FA               	bnz	copy_data0
   810                           
   811                           ; Initialize objects allocated to COMRAM (2 bytes)
   812                           ; load TBLPTR registers with __pidataCOMRAM
   813   0021CA  0EE0               	movlw	low __pidataCOMRAM
   814   0021CC  6EF6               	movwf	tblptrl,c
   815   0021CE  0E25               	movlw	high __pidataCOMRAM
   816   0021D0  6EF7               	movwf	tblptrh,c
   817   0021D2  0E00               	movlw	low (__pidataCOMRAM shr (0+16))
   818   0021D4  6EF8               	movwf	tblptru,c
   819   0021D6  0009               	tblrd		*+	;fetch initializer
   820   0021D8  CFF5 F05B          	movff	tablat,__pdataCOMRAM
   821   0021DC  0009               	tblrd		*+	;fetch initializer
   822   0021DE  CFF5 F05C          	movff	tablat,__pdataCOMRAM+1
   823                           
   824                           ; Clear objects allocated to BANK0 (42 bytes)
   825   0021E2  EE00  F0A5         	lfsr	0,__pbssBANK0
   826   0021E6  0E2A               	movlw	42
   827   0021E8                     clear_0:
   828   0021E8  6AEE               	clrf	postinc0,c
   829   0021EA  06E8               	decf	wreg,f,c
   830   0021EC  E1FD               	bnz	clear_0
   831                           
   832                           ; Clear objects allocated to COMRAM (24 bytes)
   833   0021EE  EE00  F043         	lfsr	0,__pbssCOMRAM
   834   0021F2  0E18               	movlw	24
   835   0021F4                     clear_1:
   836   0021F4  6AEE               	clrf	postinc0,c
   837   0021F6  06E8               	decf	wreg,f,c
   838   0021F8  E1FD               	bnz	clear_1
   839   0021FA                     end_of_initialization:
   840                           	callstack 0
   841   0021FA                     __end_of__initialization:
   842                           	callstack 0
   843   0021FA  905D               	bcf	int$flags,0,c	;clear compiler interrupt flag (level 1)
   844   0021FC  925D               	bcf	int$flags,1,c	;clear compiler interrupt flag (level 2)
   845   0021FE  0E00               	movlw	low (__Lmediumconst shr (0+16))
   846   002200  6EF8               	movwf	tblptru,c
   847   002202  0100               	movlb	0
   848   002204  EF5B  F002         	goto	_main	;jump to C main() function
   849                           
   850                           	psect	bssCOMRAM
   851   000043                     __pbssCOMRAM:
   852                           	callstack 0
   853   000043                     _count_event:
   854                           	callstack 0
   855   000043                     	ds	2
   856   000045                     _wait1:
   857                           	callstack 0
   858   000045                     	ds	2
   859   000047                     _menu_index:
   860                           	callstack 0
   861   000047                     	ds	2
   862   000049                     _index_1:
   863                           	callstack 0
   864   000049                     	ds	2
   865   00004B                     _previous_key:
   866                           	callstack 0
   867   00004B                     	ds	2
   868   00004D                     _wait:
   869                           	callstack 0
   870   00004D                     	ds	2
   871   00004F                     _index:
   872                           	callstack 0
   873   00004F                     	ds	2
   874   000051                     _gear_index:
   875                           	callstack 0
   876   000051                     	ds	2
   877   000053                     _sec:
   878                           	callstack 0
   879   000053                     	ds	2
   880   000055                     _pass_flag:
   881                           	callstack 0
   882   000055                     	ds	1
   883   000056                     _wait2:
   884                           	callstack 0
   885   000056                     	ds	1
   886   000057                     _gear_flag:
   887                           	callstack 0
   888   000057                     	ds	1
   889   000058                     _total_index:
   890                           	callstack 0
   891   000058                     	ds	1
   892   000059                     _pass_key:
   893                           	callstack 0
   894   000059                     	ds	1
   895   00005A                     _enter_flag:
   896                           	callstack 0
   897   00005A                     	ds	1
   898                           
   899                           	psect	dataCOMRAM
   900   00005B                     __pdataCOMRAM:
   901                           	callstack 0
   902   00005B                     read_switches@once:
   903                           	callstack 0
   904   00005B                     	ds	1
   905   00005C                     _attempt:
   906                           	callstack 0
   907   00005C                     	ds	1
   908                           
   909                           	psect	bssBANK0
   910   0000A5                     __pbssBANK0:
   911                           	callstack 0
   912   0000A5                     _clock_reg:
   913                           	callstack 0
   914   0000A5                     	ds	3
   915   0000A8                     _count:
   916                           	callstack 0
   917   0000A8                     	ds	2
   918   0000AA                     _address:
   919                           	callstack 0
   920   0000AA                     	ds	2
   921   0000AC                     _view_flag:
   922                           	callstack 0
   923   0000AC                     	ds	2
   924   0000AE                     _key:
   925                           	callstack 0
   926   0000AE                     	ds	2
   927   0000B0                     _index_eeprom:
   928                           	callstack 0
   929   0000B0                     	ds	2
   930   0000B2                     _speed:
   931                           	callstack 0
   932   0000B2                     	ds	2
   933   0000B4                     _view_event:
   934                           	callstack 0
   935   0000B4                     	ds	17
   936   0000C5                     _confirm_password:
   937                           	callstack 0
   938   0000C5                     	ds	5
   939   0000CA                     _enter_password:
   940                           	callstack 0
   941   0000CA                     	ds	5
   942                           
   943                           	psect	dataBANK0
   944   000060                     __pdataBANK0:
   945                           	callstack 0
   946   000060                     _gear_data:
   947                           	callstack 0
   948   000060                     	ds	16
   949   000070                     _menu:
   950                           	callstack 0
   951   000070                     	ds	10
   952   00007A                     _menu_event:
   953                           	callstack 0
   954   00007A                     	ds	8
   955   000082                     _star_flag:
   956                           	callstack 0
   957   000082                     	ds	2
   958   000084                     _index_2:
   959                           	callstack 0
   960   000084                     	ds	2
   961   000086                     _event:
   962                           	callstack 0
   963   000086                     	ds	17
   964   000097                     _time:
   965                           	callstack 0
   966   000097                     	ds	9
   967   0000A0                     _original_password:
   968                           	callstack 0
   969   0000A0                     	ds	5
   970                           
   971                           	psect	cstackCOMRAM
   972   000001                     __pcstackCOMRAM:
   973                           	callstack 0
   974   000001                     ?_read_adc:
   975                           	callstack 0
   976   000001                     ?_validate_password:
   977                           	callstack 0
   978   000001                     ?___lwdiv:
   979                           	callstack 0
   980   000001                     ?___lwmod:
   981                           	callstack 0
   982   000001                     read_switches@detection:
   983                           	callstack 0
   984   000001                     clcd_write@control_bit:
   985                           	callstack 0
   986   000001                     i2c_write@data:
   987                           	callstack 0
   988   000001                     validate_password@original_password:
   989                           	callstack 0
   990   000001                     ___lwdiv@dividend:
   991                           	callstack 0
   992   000001                     ___lwmod@dividend:
   993                           	callstack 0
   994                           
   995                           ; 2 bytes @ 0x0
   996   000001                     	ds	1
   997   000002                     read_switches@key:
   998                           	callstack 0
   999   000002                     clcd_write@byte:
  1000                           	callstack 0
  1001   000002                     write_external_eeprom@data:
  1002                           	callstack 0
  1003   000002                     read_external_eeprom@address:
  1004                           	callstack 0
  1005   000002                     write_ds1307@data:
  1006                           	callstack 0
  1007   000002                     read_ds1307@address:
  1008                           	callstack 0
  1009                           
  1010                           ; 1 bytes @ 0x1
  1011   000002                     	ds	1
  1012   000003                     ??_init_clcd:
  1013   000003                     ??_read_adc:
  1014   000003                     read_external_eeprom@data:
  1015                           	callstack 0
  1016   000003                     write_ds1307@address:
  1017                           	callstack 0
  1018   000003                     read_ds1307@data:
  1019                           	callstack 0
  1020   000003                     validate_password@enter_password:
  1021                           	callstack 0
  1022   000003                     clcd_print@data:
  1023                           	callstack 0
  1024   000003                     write_external_eeprom@i:
  1025                           	callstack 0
  1026   000003                     ___lwdiv@divisor:
  1027                           	callstack 0
  1028   000003                     ___lwmod@divisor:
  1029                           	callstack 0
  1030                           
  1031                           ; 2 bytes @ 0x2
  1032   000003                     	ds	1
  1033   000004                     init_ds1307@dummy:
  1034                           	callstack 0
  1035                           
  1036                           ; 1 bytes @ 0x3
  1037   000004                     	ds	1
  1038   000005                     ??_validate_password:
  1039   000005                     clcd_print@addr:
  1040                           	callstack 0
  1041   000005                     write_external_eeprom@address:
  1042                           	callstack 0
  1043   000005                     ___lwmod@counter:
  1044                           	callstack 0
  1045   000005                     ___lwdiv@quotient:
  1046                           	callstack 0
  1047                           
  1048                           ; 2 bytes @ 0x4
  1049   000005                     	ds	1
  1050   000006                     store_event@event:
  1051                           	callstack 0
  1052                           
  1053                           ; 2 bytes @ 0x5
  1054   000006                     	ds	1
  1055   000007                     ___lwdiv@counter:
  1056                           	callstack 0
  1057                           
  1058                           ; 1 bytes @ 0x6
  1059   000007                     	ds	1
  1060   000008                     ??_store_event:
  1061   000008                     clcd_putch@addr:
  1062                           	callstack 0
  1063   000008                     read_adc@channel:
  1064                           	callstack 0
  1065   000008                     display_speed@speed:
  1066                           	callstack 0
  1067   000008                     validate_password@ind_compare:
  1068                           	callstack 0
  1069                           
  1070                           ; 2 bytes @ 0x7
  1071   000008                     	ds	1
  1072   000009                     ?___xxtofl:
  1073                           	callstack 0
  1074   000009                     clcd_putch@data:
  1075                           	callstack 0
  1076   000009                     ___xxtofl@val:
  1077                           	callstack 0
  1078                           
  1079                           ; 4 bytes @ 0x8
  1080   000009                     	ds	1
  1081   00000A                     ??_read_password:
  1082   00000A                     ??_view_log:
  1083   00000A                     ??_set_time:
  1084   00000A                     ??_change_password:
  1085   00000A                     store_event@address:
  1086                           	callstack 0
  1087                           
  1088                           ; 2 bytes @ 0x9
  1089   00000A                     	ds	2
  1090   00000C                     read_password@key:
  1091                           	callstack 0
  1092   00000C                     set_time@key:
  1093                           	callstack 0
  1094   00000C                     store_event@ind:
  1095                           	callstack 0
  1096   00000C                     view_log@i:
  1097                           	callstack 0
  1098   00000C                     change_password@i:
  1099                           	callstack 0
  1100                           
  1101                           ; 2 bytes @ 0xB
  1102   00000C                     	ds	1
  1103   00000D                     ??___xxtofl:
  1104                           
  1105                           ; 1 bytes @ 0xC
  1106   00000D                     	ds	1
  1107   00000E                     ??_car_menu:
  1108   00000E                     ??_clear_log:
  1109   00000E                     ??_gear_monitor:
  1110   00000E                     view_log@key:
  1111                           	callstack 0
  1112   00000E                     change_password@key:
  1113                           	callstack 0
  1114                           
  1115                           ; 1 bytes @ 0xD
  1116   00000E                     	ds	2
  1117   000010                     gear_monitor@key:
  1118                           	callstack 0
  1119   000010                     car_menu@key:
  1120                           	callstack 0
  1121                           
  1122                           ; 1 bytes @ 0xF
  1123   000010                     	ds	1
  1124   000011                     display_dashboard@key:
  1125                           	callstack 0
  1126   000011                     ___xxtofl@sign:
  1127                           	callstack 0
  1128                           
  1129                           ; 1 bytes @ 0x10
  1130   000011                     	ds	1
  1131   000012                     ___xxtofl@exp:
  1132                           	callstack 0
  1133                           
  1134                           ; 1 bytes @ 0x11
  1135   000012                     	ds	1
  1136   000013                     ___xxtofl@arg:
  1137                           	callstack 0
  1138                           
  1139                           ; 4 bytes @ 0x12
  1140   000013                     	ds	4
  1141   000017                     ?___fldiv:
  1142                           	callstack 0
  1143   000017                     ___fldiv@b:
  1144                           	callstack 0
  1145                           
  1146                           ; 4 bytes @ 0x16
  1147   000017                     	ds	4
  1148   00001B                     ___fldiv@a:
  1149                           	callstack 0
  1150                           
  1151                           ; 4 bytes @ 0x1A
  1152   00001B                     	ds	4
  1153   00001F                     ??___fldiv:
  1154                           
  1155                           ; 1 bytes @ 0x1E
  1156   00001F                     	ds	4
  1157   000023                     ___fldiv@rem:
  1158                           	callstack 0
  1159                           
  1160                           ; 4 bytes @ 0x22
  1161   000023                     	ds	4
  1162   000027                     ___fldiv@sign:
  1163                           	callstack 0
  1164                           
  1165                           ; 1 bytes @ 0x26
  1166   000027                     	ds	1
  1167   000028                     ___fldiv@new_exp:
  1168                           	callstack 0
  1169                           
  1170                           ; 2 bytes @ 0x27
  1171   000028                     	ds	2
  1172   00002A                     ___fldiv@grs:
  1173                           	callstack 0
  1174                           
  1175                           ; 4 bytes @ 0x29
  1176   00002A                     	ds	4
  1177   00002E                     ___fldiv@bexp:
  1178                           	callstack 0
  1179                           
  1180                           ; 1 bytes @ 0x2D
  1181   00002E                     	ds	1
  1182   00002F                     ___fldiv@aexp:
  1183                           	callstack 0
  1184                           
  1185                           ; 1 bytes @ 0x2E
  1186   00002F                     	ds	1
  1187   000030                     ?___fltol:
  1188                           	callstack 0
  1189   000030                     ___fltol@f1:
  1190                           	callstack 0
  1191                           
  1192                           ; 4 bytes @ 0x2F
  1193   000030                     	ds	4
  1194   000034                     ??___fltol:
  1195                           
  1196                           ; 1 bytes @ 0x33
  1197   000034                     	ds	4
  1198   000038                     ___fltol@sign1:
  1199                           	callstack 0
  1200                           
  1201                           ; 1 bytes @ 0x37
  1202   000038                     	ds	1
  1203   000039                     ___fltol@exp1:
  1204                           	callstack 0
  1205                           
  1206                           ; 1 bytes @ 0x38
  1207   000039                     	ds	1
  1208   00003A                     ??_main:
  1209                           
  1210                           ; 1 bytes @ 0x39
  1211   00003A                     	ds	2
  1212   00003C                     main@i:
  1213                           	callstack 0
  1214                           
  1215                           ; 2 bytes @ 0x3B
  1216   00003C                     	ds	2
  1217   00003E                     main@i_144:
  1218                           	callstack 0
  1219                           
  1220                           ; 2 bytes @ 0x3D
  1221   00003E                     	ds	2
  1222   000040                     main@i_148:
  1223                           	callstack 0
  1224                           
  1225                           ; 2 bytes @ 0x3F
  1226   000040                     	ds	2
  1227   000042                     main@key:
  1228                           	callstack 0
  1229                           
  1230                           ; 1 bytes @ 0x41
  1231   000042                     	ds	1
  1232                           
  1233 ;;
  1234 ;;Main: autosize = 0, tempsize = 2, incstack = 0, save=0
  1235 ;;
  1236 ;; *************** function _main *****************
  1237 ;; Defined at:
  1238 ;;		line 32 in file "main.c"
  1239 ;; Parameters:    Size  Location     Type
  1240 ;;		None
  1241 ;; Auto vars:     Size  Location     Type
  1242 ;;  i               2   63[COMRAM] int 
  1243 ;;  i               2   61[COMRAM] int 
  1244 ;;  i               2   59[COMRAM] int 
  1245 ;;  key             1   65[COMRAM] unsigned char 
  1246 ;; Return value:  Size  Location     Type
  1247 ;;                  1    wreg      void 
  1248 ;; Registers used:
  1249 ;;		wreg, fsr1l, fsr1h, fsr2l, fsr2h, status,2, status,0, tblptrl, tblptrh, tblptru, cstack
  1250 ;; Tracked objects:
  1251 ;;		On entry : 0/0
  1252 ;;		On exit  : 0/0
  1253 ;;		Unchanged: 0/0
  1254 ;; Data sizes:     COMRAM   BANK0   BANK1   BANK2   BANK3   BANK4   BANK5
  1255 ;;      Params:         0       0       0       0       0       0       0
  1256 ;;      Locals:         7       0       0       0       0       0       0
  1257 ;;      Temps:          2       0       0       0       0       0       0
  1258 ;;      Totals:         9       0       0       0       0       0       0
  1259 ;;Total ram usage:        9 bytes
  1260 ;; Hardware stack levels required when called: 7
  1261 ;; This function calls:
  1262 ;;		___fldiv
  1263 ;;		___fltol
  1264 ;;		___xxtofl
  1265 ;;		_car_menu
  1266 ;;		_change_password
  1267 ;;		_clcd_print
  1268 ;;		_clear_log
  1269 ;;		_display_dashboard
  1270 ;;		_display_speed
  1271 ;;		_get_time
  1272 ;;		_init_config
  1273 ;;		_read_adc
  1274 ;;		_read_external_eeprom
  1275 ;;		_read_password
  1276 ;;		_read_switches
  1277 ;;		_set_time
  1278 ;;		_store_event
  1279 ;;		_view_log
  1280 ;;		_write_external_eeprom
  1281 ;; This function is called by:
  1282 ;;		Startup code after reset
  1283 ;; This function uses a non-reentrant model
  1284 ;;
  1285                           
  1286                           	psect	text0
  1287   0004B6                     __ptext0:
  1288                           	callstack 0
  1289   0004B6                     _main:
  1290                           	callstack 24
  1291   0004B6                     
  1292                           ;main.c: 33:     init_config();
  1293   0004B6  EC93  F012         	call	_init_config	;wreg free
  1294   0004BA                     
  1295                           ;main.c: 34:     unsigned char key;;main.c: 36:     for(int i = 0; i < 4; i++)
  1296   0004BA  0E00               	movlw	0
  1297   0004BC  6E3D               	movwf	(main@i+1)^0,c
  1298   0004BE  0E00               	movlw	0
  1299   0004C0  6E3C               	movwf	main@i^0,c
  1300   0004C2                     l3964:
  1301                           
  1302                           ;main.c: 37:     {;main.c: 38:         write_external_eeprom(0x46+i, original_password[i
      +                          ]);
  1303   0004C2  0EA0               	movlw	low _original_password
  1304   0004C4  243C               	addwf	main@i^0,w,c
  1305   0004C6  6ED9               	movwf	fsr2l,c
  1306   0004C8  0E00               	movlw	high _original_password
  1307   0004CA  203D               	addwfc	(main@i+1)^0,w,c
  1308   0004CC  6EDA               	movwf	fsr2h,c
  1309   0004CE  50DF               	movf	indf2,w,c
  1310   0004D0  6E02               	movwf	write_external_eeprom@data^0,c
  1311   0004D2  503C               	movf	main@i^0,w,c
  1312   0004D4  0F46               	addlw	70
  1313   0004D6  ECEF  F011         	call	_write_external_eeprom
  1314   0004DA                     
  1315                           ;main.c: 39:     }
  1316   0004DA  4A3C               	infsnz	main@i^0,f,c
  1317   0004DC  2A3D               	incf	(main@i+1)^0,f,c
  1318   0004DE  BE3D               	btfsc	(main@i+1)^0,7,c
  1319   0004E0  EF7B  F002         	goto	u4091
  1320   0004E4  503D               	movf	(main@i+1)^0,w,c
  1321   0004E6  E109               	bnz	u4090
  1322   0004E8  0E04               	movlw	4
  1323   0004EA  5C3C               	subwf	main@i^0,w,c
  1324   0004EC  A0D8               	btfss	status,0,c
  1325   0004EE  EF7B  F002         	goto	u4091
  1326   0004F2  EF7D  F002         	goto	u4090
  1327   0004F6                     u4091:
  1328   0004F6  EF61  F002         	goto	l3964
  1329   0004FA                     u4090:
  1330   0004FA                     
  1331                           ;main.c: 40:     for(int i = 0; i < 4; i++)
  1332   0004FA  0E00               	movlw	0
  1333   0004FC  6E3F               	movwf	(main@i_144+1)^0,c
  1334   0004FE  0E00               	movlw	0
  1335   000500  6E3E               	movwf	main@i_144^0,c
  1336   000502                     l3976:
  1337                           
  1338                           ;main.c: 41:     {;main.c: 42:         original_password[i] = read_external_eeprom(0x46+
      +                          i);
  1339   000502  0EA0               	movlw	low _original_password
  1340   000504  243E               	addwf	main@i_144^0,w,c
  1341   000506  6ED9               	movwf	fsr2l,c
  1342   000508  0E00               	movlw	high _original_password
  1343   00050A  203F               	addwfc	(main@i_144+1)^0,w,c
  1344   00050C  6EDA               	movwf	fsr2h,c
  1345   00050E  503E               	movf	main@i_144^0,w,c
  1346   000510  0F46               	addlw	70
  1347   000512  EC4B  F012         	call	_read_external_eeprom
  1348   000516  6EDF               	movwf	indf2,c
  1349   000518                     
  1350                           ;main.c: 43:     }
  1351   000518  4A3E               	infsnz	main@i_144^0,f,c
  1352   00051A  2A3F               	incf	(main@i_144+1)^0,f,c
  1353   00051C  BE3F               	btfsc	(main@i_144+1)^0,7,c
  1354   00051E  EF9A  F002         	goto	u4101
  1355   000522  503F               	movf	(main@i_144+1)^0,w,c
  1356   000524  E109               	bnz	u4100
  1357   000526  0E04               	movlw	4
  1358   000528  5C3E               	subwf	main@i_144^0,w,c
  1359   00052A  A0D8               	btfss	status,0,c
  1360   00052C  EF9A  F002         	goto	u4101
  1361   000530  EF9C  F002         	goto	u4100
  1362   000534                     u4101:
  1363   000534  EF81  F002         	goto	l3976
  1364   000538                     u4100:
  1365   000538                     
  1366                           ;main.c: 44:     original_password[4] = '\0';
  1367   000538  0E00               	movlw	0
  1368   00053A  0100               	movlb	0	; () banked
  1369   00053C  6FA4               	movwf	(_original_password+4)& (0+255),b
  1370   00053E                     
  1371                           ; BSR set to: 0
  1372                           ;main.c: 46:     speed = (read_adc(4) / 10.23);
  1373   00053E  0E14               	movlw	20
  1374   000540  6E1B               	movwf	___fldiv@a^0,c
  1375   000542  0EAE               	movlw	174
  1376   000544  6E1C               	movwf	(___fldiv@a+1)^0,c
  1377   000546  0E23               	movlw	35
  1378   000548  6E1D               	movwf	(___fldiv@a+2)^0,c
  1379   00054A  0E41               	movlw	65
  1380   00054C  6E1E               	movwf	(___fldiv@a+3)^0,c
  1381   00054E  0E04               	movlw	4
  1382   000550  EC60  F011         	call	_read_adc
  1383   000554  C001  F009         	movff	?_read_adc,___xxtofl@val
  1384   000558  C002  F00A         	movff	?_read_adc+1,___xxtofl@val+1
  1385   00055C  6A0B               	clrf	(___xxtofl@val+2)^0,c
  1386   00055E  6A0C               	clrf	(___xxtofl@val+3)^0,c
  1387   000560  0E00               	movlw	0
  1388   000562  EC07  F00C         	call	___xxtofl
  1389   000566  C009  F017         	movff	?___xxtofl,___fldiv@b
  1390   00056A  C00A  F018         	movff	?___xxtofl+1,___fldiv@b+1
  1391   00056E  C00B  F019         	movff	?___xxtofl+2,___fldiv@b+2
  1392   000572  C00C  F01A         	movff	?___xxtofl+3,___fldiv@b+3
  1393   000576  EC15  F006         	call	___fldiv	;wreg free
  1394   00057A  C017  F030         	movff	?___fldiv,___fltol@f1
  1395   00057E  C018  F031         	movff	?___fldiv+1,___fltol@f1+1
  1396   000582  C019  F032         	movff	?___fldiv+2,___fltol@f1+2
  1397   000586  C01A  F033         	movff	?___fldiv+3,___fltol@f1+3
  1398   00058A  EC2E  F00E         	call	___fltol	;wreg free
  1399   00058E  C030  F0B2         	movff	?___fltol,_speed
  1400   000592  C031  F0B3         	movff	?___fltol+1,_speed+1
  1401   000596                     
  1402                           ;main.c: 47:     display_speed(speed);
  1403   000596  C0B2  F008         	movff	_speed,display_speed@speed
  1404   00059A  C0B3  F009         	movff	_speed+1,display_speed@speed+1
  1405   00059E  EC0F  F012         	call	_display_speed	;wreg free
  1406   0005A2                     
  1407                           ;main.c: 48:     get_time();
  1408   0005A2  ECB9  F00F         	call	_get_time	;wreg free
  1409   0005A6                     
  1410                           ;main.c: 49:     store_event(event);
  1411   0005A6  0E86               	movlw	low _event
  1412   0005A8  6E06               	movwf	store_event@event^0,c
  1413   0005AA  0E00               	movlw	high _event
  1414   0005AC  6E07               	movwf	(store_event@event+1)^0,c
  1415   0005AE  ECB1  F00E         	call	_store_event	;wreg free
  1416   0005B2                     l3992:
  1417                           
  1418                           ;main.c: 52:         if(enter_flag == 2 || enter_flag == 3 || enter_flag == 4)
  1419   0005B2  0E02               	movlw	2
  1420   0005B4  185A               	xorwf	_enter_flag^0,w,c
  1421   0005B6  B4D8               	btfsc	status,2,c
  1422   0005B8  EFE0  F002         	goto	u4111
  1423   0005BC  EFE2  F002         	goto	u4110
  1424   0005C0                     u4111:
  1425   0005C0  EFF4  F002         	goto	l3998
  1426   0005C4                     u4110:
  1427   0005C4  0E03               	movlw	3
  1428   0005C6  185A               	xorwf	_enter_flag^0,w,c
  1429   0005C8  B4D8               	btfsc	status,2,c
  1430   0005CA  EFE9  F002         	goto	u4121
  1431   0005CE  EFEB  F002         	goto	u4120
  1432   0005D2                     u4121:
  1433   0005D2  EFF4  F002         	goto	l3998
  1434   0005D6                     u4120:
  1435   0005D6  0E04               	movlw	4
  1436   0005D8  185A               	xorwf	_enter_flag^0,w,c
  1437   0005DA  A4D8               	btfss	status,2,c
  1438   0005DC  EFF2  F002         	goto	u4131
  1439   0005E0  EFF4  F002         	goto	u4130
  1440   0005E4                     u4131:
  1441   0005E4  EFFA  F002         	goto	l4000
  1442   0005E8                     u4130:
  1443   0005E8                     l3998:
  1444                           
  1445                           ;main.c: 53:         {;main.c: 54:             key = read_switches(0);
  1446   0005E8  0E00               	movlw	0
  1447   0005EA  EC34  F010         	call	_read_switches
  1448   0005EE  6E42               	movwf	main@key^0,c
  1449                           
  1450                           ;main.c: 55:         }
  1451   0005F0  EFFE  F002         	goto	l4002
  1452   0005F4                     l4000:
  1453                           
  1454                           ;main.c: 57:         {;main.c: 58:             key = read_switches(1);
  1455   0005F4  0E01               	movlw	1
  1456   0005F6  EC34  F010         	call	_read_switches
  1457   0005FA  6E42               	movwf	main@key^0,c
  1458   0005FC                     l4002:
  1459                           
  1460                           ;main.c: 60:         if(key == 10 && enter_flag == 0)
  1461   0005FC  0E0A               	movlw	10
  1462   0005FE  1842               	xorwf	main@key^0,w,c
  1463   000600  A4D8               	btfss	status,2,c
  1464   000602  EF05  F003         	goto	u4141
  1465   000606  EF07  F003         	goto	u4140
  1466   00060A                     u4141:
  1467   00060A  EFDD  F003         	goto	l4076
  1468   00060E                     u4140:
  1469   00060E  505A               	movf	_enter_flag^0,w,c
  1470   000610  A4D8               	btfss	status,2,c
  1471   000612  EF0D  F003         	goto	u4151
  1472   000616  EF0F  F003         	goto	u4150
  1473   00061A                     u4151:
  1474   00061A  EFDD  F003         	goto	l4076
  1475   00061E                     u4150:
  1476   00061E                     
  1477                           ;main.c: 61:         {;main.c: 62:             clcd_print("                ", (0xC0 + (0
      +                          )));
  1478   00061E  0E62               	movlw	low STR_1
  1479   000620  6E03               	movwf	clcd_print@data^0,c
  1480   000622  0E2F               	movlw	high STR_1
  1481   000624  6E04               	movwf	(clcd_print@data+1)^0,c
  1482   000626  0EC0               	movlw	192
  1483   000628  6E05               	movwf	clcd_print@addr^0,c
  1484   00062A  EC6D  F010         	call	_clcd_print	;wreg free
  1485   00062E                     
  1486                           ;main.c: 63:             enter_flag = 1;
  1487   00062E  0E01               	movlw	1
  1488   000630  6E5A               	movwf	_enter_flag^0,c
  1489   000632                     
  1490                           ;main.c: 64:             sec = 0;
  1491   000632  0E00               	movlw	0
  1492   000634  6E54               	movwf	(_sec+1)^0,c
  1493   000636  0E00               	movlw	0
  1494   000638  6E53               	movwf	_sec^0,c
  1495   00063A  EFDD  F003         	goto	l4076
  1496   00063E                     l4012:
  1497                           
  1498                           ;main.c: 70:             {;main.c: 71:                 display_dashboard(key);
  1499   00063E  5042               	movf	main@key^0,w,c
  1500   000640  EC04  F011         	call	_display_dashboard
  1501                           
  1502                           ;main.c: 72:                 break;
  1503   000644  EF06  F004         	goto	l4078
  1504   000648                     l4014:
  1505                           
  1506                           ;main.c: 75:             {;main.c: 76:                 read_password(key);
  1507   000648  5042               	movf	main@key^0,w,c
  1508   00064A  EC60  F009         	call	_read_password
  1509   00064E                     
  1510                           ;main.c: 77:                 if(enter_flag == 2)
  1511   00064E  0E02               	movlw	2
  1512   000650  185A               	xorwf	_enter_flag^0,w,c
  1513   000652  A4D8               	btfss	status,2,c
  1514   000654  EF2E  F003         	goto	u4161
  1515   000658  EF30  F003         	goto	u4160
  1516   00065C                     u4161:
  1517   00065C  EF06  F004         	goto	l4078
  1518   000660                     u4160:
  1519   000660                     l4018:
  1520                           
  1521                           ;main.c: 78:                     sec = 0;
  1522   000660  0E00               	movlw	0
  1523   000662  6E54               	movwf	(_sec+1)^0,c
  1524   000664  0E00               	movlw	0
  1525   000666  6E53               	movwf	_sec^0,c
  1526   000668  EF06  F004         	goto	l4078
  1527   00066C                     l4020:
  1528                           
  1529                           ;main.c: 82:             {;main.c: 83:                 car_menu(key);
  1530   00066C  5042               	movf	main@key^0,w,c
  1531   00066E  EC3E  F004         	call	_car_menu
  1532   000672                     
  1533                           ;main.c: 84:                 if(enter_flag == 7)
  1534   000672  0E07               	movlw	7
  1535   000674  185A               	xorwf	_enter_flag^0,w,c
  1536   000676  A4D8               	btfss	status,2,c
  1537   000678  EF40  F003         	goto	u4171
  1538   00067C  EF42  F003         	goto	u4170
  1539   000680                     u4171:
  1540   000680  EF4C  F003         	goto	l4028
  1541   000684                     u4170:
  1542   000684                     
  1543                           ;main.c: 85:                 {;main.c: 86:                     clcd_print("             
      +                             ", (0xC0 + (0)));
  1544   000684  0E62               	movlw	low STR_1
  1545   000686  6E03               	movwf	clcd_print@data^0,c
  1546   000688  0E2F               	movlw	high STR_1
  1547   00068A  6E04               	movwf	(clcd_print@data+1)^0,c
  1548   00068C  0EC0               	movlw	192
  1549   00068E  6E05               	movwf	clcd_print@addr^0,c
  1550   000690  EC6D  F010         	call	_clcd_print	;wreg free
  1551   000694  EF30  F003         	goto	l4018
  1552   000698                     l4028:
  1553   000698  0E04               	movlw	4
  1554   00069A  185A               	xorwf	_enter_flag^0,w,c
  1555   00069C  A4D8               	btfss	status,2,c
  1556   00069E  EF53  F003         	goto	u4181
  1557   0006A2  EF55  F003         	goto	u4180
  1558   0006A6                     u4181:
  1559   0006A6  EF06  F004         	goto	l4078
  1560   0006AA                     u4180:
  1561   0006AA                     
  1562                           ;main.c: 90:                 {;main.c: 91:                     clcd_print("  Set Time   
      +                             ", (0x80 + (0)));
  1563   0006AA  0E73               	movlw	low STR_3
  1564   0006AC  6E03               	movwf	clcd_print@data^0,c
  1565   0006AE  0E2F               	movlw	high STR_3
  1566   0006B0  6E04               	movwf	(clcd_print@data+1)^0,c
  1567   0006B2  0E80               	movlw	128
  1568   0006B4  6E05               	movwf	clcd_print@addr^0,c
  1569   0006B6  EC6D  F010         	call	_clcd_print	;wreg free
  1570   0006BA                     
  1571                           ;main.c: 93:                     for(int i = 0; i < 8; i++)
  1572   0006BA  0E00               	movlw	0
  1573   0006BC  6E41               	movwf	(main@i_148+1)^0,c
  1574   0006BE  0E00               	movlw	0
  1575   0006C0  6E40               	movwf	main@i_148^0,c
  1576   0006C2                     l4038:
  1577                           
  1578                           ;main.c: 94:                     {;main.c: 95:                         time[i] = event[i
      +                          ];
  1579   0006C2  0E86               	movlw	low _event
  1580   0006C4  2440               	addwf	main@i_148^0,w,c
  1581   0006C6  6ED9               	movwf	fsr2l,c
  1582   0006C8  0E00               	movlw	high _event
  1583   0006CA  2041               	addwfc	(main@i_148+1)^0,w,c
  1584   0006CC  6EDA               	movwf	fsr2h,c
  1585   0006CE  0E97               	movlw	low _time
  1586   0006D0  2440               	addwf	main@i_148^0,w,c
  1587   0006D2  6EE1               	movwf	fsr1l,c
  1588   0006D4  0E00               	movlw	high _time
  1589   0006D6  2041               	addwfc	(main@i_148+1)^0,w,c
  1590   0006D8  6EE2               	movwf	fsr1h,c
  1591   0006DA  CFDF FFE7          	movff	indf2,indf1
  1592   0006DE                     
  1593                           ;main.c: 96:                     }
  1594   0006DE  4A40               	infsnz	main@i_148^0,f,c
  1595   0006E0  2A41               	incf	(main@i_148+1)^0,f,c
  1596   0006E2  BE41               	btfsc	(main@i_148+1)^0,7,c
  1597   0006E4  EF7D  F003         	goto	u4191
  1598   0006E8  5041               	movf	(main@i_148+1)^0,w,c
  1599   0006EA  E109               	bnz	u4190
  1600   0006EC  0E08               	movlw	8
  1601   0006EE  5C40               	subwf	main@i_148^0,w,c
  1602   0006F0  A0D8               	btfss	status,0,c
  1603   0006F2  EF7D  F003         	goto	u4191
  1604   0006F6  EF7F  F003         	goto	u4190
  1605   0006FA                     u4191:
  1606   0006FA  EF61  F003         	goto	l4038
  1607   0006FE                     u4190:
  1608   0006FE                     
  1609                           ;main.c: 97:                     _delay((unsigned long)((500)*(20000000/4000.0)));
  1610   0006FE  0E0D               	movlw	13
  1611   000700  6E3B               	movwf	(??_main+1)^0,c
  1612   000702  0EAF               	movlw	175
  1613   000704  6E3A               	movwf	??_main^0,c
  1614   000706  0EB6               	movlw	182
  1615   000708                     u4257:
  1616   000708  2EE8               	decfsz	wreg,f,c
  1617   00070A  D7FE               	bra	u4257
  1618   00070C  2E3A               	decfsz	??_main^0,f,c
  1619   00070E  D7FC               	bra	u4257
  1620   000710  2E3B               	decfsz	(??_main+1)^0,f,c
  1621   000712  D7FA               	bra	u4257
  1622   000714  D000               	nop2	
  1623   000716  EF06  F004         	goto	l4078
  1624   00071A                     l4046:
  1625                           
  1626                           ;main.c: 102:             {;main.c: 103:                 view_log(key);
  1627   00071A  5042               	movf	main@key^0,w,c
  1628   00071C  ECCF  F00A         	call	_view_log
  1629   000720                     
  1630                           ;main.c: 104:                 if(enter_flag == 2)
  1631   000720  0E02               	movlw	2
  1632   000722  185A               	xorwf	_enter_flag^0,w,c
  1633   000724  A4D8               	btfss	status,2,c
  1634   000726  EF97  F003         	goto	u4201
  1635   00072A  EF99  F003         	goto	u4200
  1636   00072E                     u4201:
  1637   00072E  EF06  F004         	goto	l4078
  1638   000732                     u4200:
  1639   000732  EF30  F003         	goto	l4018
  1640   000736                     l4052:
  1641                           
  1642                           ;main.c: 109:             {;main.c: 110:                 set_time(key);
  1643   000736  5042               	movf	main@key^0,w,c
  1644   000738  ECE2  F007         	call	_set_time
  1645   00073C                     
  1646                           ;main.c: 111:                 if(enter_flag == 2)
  1647   00073C  0E02               	movlw	2
  1648   00073E  185A               	xorwf	_enter_flag^0,w,c
  1649   000740  A4D8               	btfss	status,2,c
  1650   000742  EFA5  F003         	goto	u4211
  1651   000746  EFA7  F003         	goto	u4210
  1652   00074A                     u4211:
  1653   00074A  EF06  F004         	goto	l4078
  1654   00074E                     u4210:
  1655   00074E  EF30  F003         	goto	l4018
  1656   000752                     l4058:
  1657                           
  1658                           ;main.c: 116:             {;main.c: 117:                 clear_log();
  1659   000752  EC33  F011         	call	_clear_log	;wreg free
  1660   000756                     
  1661                           ;main.c: 118:                 enter_flag = 2;
  1662   000756  0E02               	movlw	2
  1663   000758  6E5A               	movwf	_enter_flag^0,c
  1664   00075A  EF30  F003         	goto	l4018
  1665   00075E                     l4064:
  1666                           
  1667                           ;main.c: 123:             {;main.c: 124:                 change_password(key);
  1668   00075E  5042               	movf	main@key^0,w,c
  1669   000760  EC09  F000         	call	_change_password
  1670   000764                     
  1671                           ;main.c: 125:                 if(enter_flag == 2)
  1672   000764  0E02               	movlw	2
  1673   000766  185A               	xorwf	_enter_flag^0,w,c
  1674   000768  A4D8               	btfss	status,2,c
  1675   00076A  EFB9  F003         	goto	u4221
  1676   00076E  EFBB  F003         	goto	u4220
  1677   000772                     u4221:
  1678   000772  EF06  F004         	goto	l4078
  1679   000776                     u4220:
  1680   000776  EF30  F003         	goto	l4018
  1681   00077A                     l4070:
  1682                           
  1683                           ;main.c: 130:             {;main.c: 131:                 clcd_print("                ", 
      +                          (0x80 + (0)));
  1684   00077A  0E62               	movlw	low STR_1
  1685   00077C  6E03               	movwf	clcd_print@data^0,c
  1686   00077E  0E2F               	movlw	high STR_1
  1687   000780  6E04               	movwf	(clcd_print@data+1)^0,c
  1688   000782  0E80               	movlw	128
  1689   000784  6E05               	movwf	clcd_print@addr^0,c
  1690   000786  EC6D  F010         	call	_clcd_print	;wreg free
  1691                           
  1692                           ;main.c: 132:                 clcd_print("   hello-menu   ", (0xC0 + (0)));
  1693   00078A  0E84               	movlw	low STR_5
  1694   00078C  6E03               	movwf	clcd_print@data^0,c
  1695   00078E  0E2F               	movlw	high STR_5
  1696   000790  6E04               	movwf	(clcd_print@data+1)^0,c
  1697   000792  0EC0               	movlw	192
  1698   000794  6E05               	movwf	clcd_print@addr^0,c
  1699   000796  EC6D  F010         	call	_clcd_print	;wreg free
  1700   00079A                     
  1701                           ;main.c: 133:                 _delay((unsigned long)((4000)*(20000000/4000.0)));
  1702   00079A  0E66               	movlw	102
  1703   00079C  6E3B               	movwf	(??_main+1)^0,c
  1704   00079E  0E76               	movlw	118
  1705   0007A0  6E3A               	movwf	??_main^0,c
  1706   0007A2  0EC1               	movlw	193
  1707   0007A4                     u4267:
  1708   0007A4  2EE8               	decfsz	wreg,f,c
  1709   0007A6  D7FE               	bra	u4267
  1710   0007A8  2E3A               	decfsz	??_main^0,f,c
  1711   0007AA  D7FC               	bra	u4267
  1712   0007AC  2E3B               	decfsz	(??_main+1)^0,f,c
  1713   0007AE  D7FA               	bra	u4267
  1714   0007B0  F000               	nop	
  1715   0007B2                     
  1716                           ;main.c: 134:                 enter_flag = 2;
  1717   0007B2  0E02               	movlw	2
  1718   0007B4  6E5A               	movwf	_enter_flag^0,c
  1719                           
  1720                           ;main.c: 135:             };main.c: 136:         }
  1721   0007B6  EF06  F004         	goto	l4078
  1722   0007BA                     l4076:
  1723   0007BA  505A               	movf	_enter_flag^0,w,c
  1724   0007BC  6E3A               	movwf	??_main^0,c
  1725   0007BE  6A3B               	clrf	(??_main+1)^0,c
  1726                           
  1727                           ; Switch on 2 bytes has been partitioned into a top level switch of size 1, and 1 sub-sw
      +                          itches
  1728                           ; Switch size 1, requested type "simple"
  1729                           ; Number of cases is 1, Range of values is 0 to 0
  1730                           ; switch strategies available:
  1731                           ; Name         Instructions Cycles
  1732                           ; simple_byte            4     3 (average)
  1733                           ;	Chosen strategy is simple_byte
  1734   0007C0  503B               	movf	(??_main+1)^0,w,c
  1735   0007C2  0A00               	xorlw	0	; case 0
  1736   0007C4  B4D8               	btfsc	status,2,c
  1737   0007C6  EFE7  F003         	goto	l4116
  1738   0007CA  EFBD  F003         	goto	l4070
  1739   0007CE                     l4116:
  1740                           
  1741                           ; Switch size 1, requested type "simple"
  1742                           ; Number of cases is 7, Range of values is 0 to 7
  1743                           ; switch strategies available:
  1744                           ; Name         Instructions Cycles
  1745                           ; simple_byte           22    12 (average)
  1746                           ;	Chosen strategy is simple_byte
  1747   0007CE  503A               	movf	??_main^0,w,c
  1748   0007D0  0A00               	xorlw	0	; case 0
  1749   0007D2  B4D8               	btfsc	status,2,c
  1750   0007D4  EF1F  F003         	goto	l4012
  1751   0007D8  0A01               	xorlw	1	; case 1
  1752   0007DA  B4D8               	btfsc	status,2,c
  1753   0007DC  EF24  F003         	goto	l4014
  1754   0007E0  0A03               	xorlw	3	; case 2
  1755   0007E2  B4D8               	btfsc	status,2,c
  1756   0007E4  EF36  F003         	goto	l4020
  1757   0007E8  0A01               	xorlw	1	; case 3
  1758   0007EA  B4D8               	btfsc	status,2,c
  1759   0007EC  EF8D  F003         	goto	l4046
  1760   0007F0  0A07               	xorlw	7	; case 4
  1761   0007F2  B4D8               	btfsc	status,2,c
  1762   0007F4  EF9B  F003         	goto	l4052
  1763   0007F8  0A02               	xorlw	2	; case 6
  1764   0007FA  B4D8               	btfsc	status,2,c
  1765   0007FC  EFA9  F003         	goto	l4058
  1766   000800  0A01               	xorlw	1	; case 7
  1767   000802  B4D8               	btfsc	status,2,c
  1768   000804  EFAF  F003         	goto	l4064
  1769   000808  EFBD  F003         	goto	l4070
  1770   00080C                     l4078:
  1771                           
  1772                           ;main.c: 137:         get_time();
  1773   00080C  ECB9  F00F         	call	_get_time	;wreg free
  1774                           
  1775                           ;main.c: 138:         speed = (read_adc(4) / 10.23);
  1776   000810  0E14               	movlw	20
  1777   000812  6E1B               	movwf	___fldiv@a^0,c
  1778   000814  0EAE               	movlw	174
  1779   000816  6E1C               	movwf	(___fldiv@a+1)^0,c
  1780   000818  0E23               	movlw	35
  1781   00081A  6E1D               	movwf	(___fldiv@a+2)^0,c
  1782   00081C  0E41               	movlw	65
  1783   00081E  6E1E               	movwf	(___fldiv@a+3)^0,c
  1784   000820  0E04               	movlw	4
  1785   000822  EC60  F011         	call	_read_adc
  1786   000826  C001  F009         	movff	?_read_adc,___xxtofl@val
  1787   00082A  C002  F00A         	movff	?_read_adc+1,___xxtofl@val+1
  1788   00082E  6A0B               	clrf	(___xxtofl@val+2)^0,c
  1789   000830  6A0C               	clrf	(___xxtofl@val+3)^0,c
  1790   000832  0E00               	movlw	0
  1791   000834  EC07  F00C         	call	___xxtofl
  1792   000838  C009  F017         	movff	?___xxtofl,___fldiv@b
  1793   00083C  C00A  F018         	movff	?___xxtofl+1,___fldiv@b+1
  1794   000840  C00B  F019         	movff	?___xxtofl+2,___fldiv@b+2
  1795   000844  C00C  F01A         	movff	?___xxtofl+3,___fldiv@b+3
  1796   000848  EC15  F006         	call	___fldiv	;wreg free
  1797   00084C  C017  F030         	movff	?___fldiv,___fltol@f1
  1798   000850  C018  F031         	movff	?___fldiv+1,___fltol@f1+1
  1799   000854  C019  F032         	movff	?___fldiv+2,___fltol@f1+2
  1800   000858  C01A  F033         	movff	?___fldiv+3,___fltol@f1+3
  1801   00085C  EC2E  F00E         	call	___fltol	;wreg free
  1802   000860  C030  F0B2         	movff	?___fltol,_speed
  1803   000864  C031  F0B3         	movff	?___fltol+1,_speed+1
  1804                           
  1805                           ;main.c: 139:         display_speed(speed);
  1806   000868  C0B2  F008         	movff	_speed,display_speed@speed
  1807   00086C  C0B3  F009         	movff	_speed+1,display_speed@speed+1
  1808   000870  EC0F  F012         	call	_display_speed	;wreg free
  1809   000874  EFD9  F002         	goto	l3992
  1810   000878  EF07  F000         	goto	start
  1811   00087C                     __end_of_main:
  1812                           	callstack 0
  1813                           
  1814 ;; *************** function _view_log *****************
  1815 ;; Defined at:
  1816 ;;		line 266 in file "car_black_box.c"
  1817 ;; Parameters:    Size  Location     Type
  1818 ;;  key             1    wreg     unsigned char 
  1819 ;; Auto vars:     Size  Location     Type
  1820 ;;  key             1   13[COMRAM] unsigned char 
  1821 ;;  i               2   11[COMRAM] int 
  1822 ;; Return value:  Size  Location     Type
  1823 ;;                  1    wreg      void 
  1824 ;; Registers used:
  1825 ;;		wreg, fsr1l, fsr1h, fsr2l, fsr2h, status,2, status,0, tblptrl, tblptrh, tblptru, cstack
  1826 ;; Tracked objects:
  1827 ;;		On entry : 0/0
  1828 ;;		On exit  : 0/0
  1829 ;;		Unchanged: 0/0
  1830 ;; Data sizes:     COMRAM   BANK0   BANK1   BANK2   BANK3   BANK4   BANK5
  1831 ;;      Params:         0       0       0       0       0       0       0
  1832 ;;      Locals:         3       0       0       0       0       0       0
  1833 ;;      Temps:          2       0       0       0       0       0       0
  1834 ;;      Totals:         5       0       0       0       0       0       0
  1835 ;;Total ram usage:        5 bytes
  1836 ;; Hardware stack levels used: 1
  1837 ;; Hardware stack levels required when called: 5
  1838 ;; This function calls:
  1839 ;;		___lwmod
  1840 ;;		_clcd_print
  1841 ;;		_clcd_putch
  1842 ;;		_read_external_eeprom
  1843 ;; This function is called by:
  1844 ;;		_main
  1845 ;; This function uses a non-reentrant model
  1846 ;;
  1847                           
  1848                           	psect	text1
  1849   00159E                     __ptext1:
  1850                           	callstack 0
  1851   00159E                     _view_log:
  1852                           	callstack 25
  1853                           
  1854                           ;incstack = 0
  1855                           ;view_log@key stored from wreg
  1856   00159E  6E0E               	movwf	view_log@key^0,c
  1857   0015A0                     
  1858                           ;car_black_box.c: 267:     clcd_print("Logs:-->[", (0x80 + (0)));
  1859   0015A0  0ED1               	movlw	low STR_32
  1860   0015A2  6E03               	movwf	clcd_print@data^0,c
  1861   0015A4  0E2F               	movlw	high STR_32
  1862   0015A6  6E04               	movwf	(clcd_print@data+1)^0,c
  1863   0015A8  0E80               	movlw	128
  1864   0015AA  6E05               	movwf	clcd_print@addr^0,c
  1865   0015AC  EC6D  F010         	call	_clcd_print	;wreg free
  1866   0015B0                     
  1867                           ;car_black_box.c: 268:     clcd_putch((view_flag % total_index) + 48, (0x80 + (9)));
  1868   0015B0  0E89               	movlw	137
  1869   0015B2  6E08               	movwf	clcd_putch@addr^0,c
  1870   0015B4  C0AC  F001         	movff	_view_flag,___lwmod@dividend
  1871   0015B8  C0AD  F002         	movff	_view_flag+1,___lwmod@dividend+1
  1872   0015BC  C058  F003         	movff	_total_index,___lwmod@divisor
  1873   0015C0  6A04               	clrf	(___lwmod@divisor+1)^0,c
  1874   0015C2  ECA3  F010         	call	___lwmod	;wreg free
  1875   0015C6  5001               	movf	?___lwmod^0,w,c
  1876   0015C8  0F30               	addlw	48
  1877   0015CA  ECAD  F012         	call	_clcd_putch
  1878   0015CE                     
  1879                           ;car_black_box.c: 269:     clcd_print("]          ", (0x80 + (10)));
  1880   0015CE  0EC5               	movlw	low STR_33
  1881   0015D0  6E03               	movwf	clcd_print@data^0,c
  1882   0015D2  0E2F               	movlw	high STR_33
  1883   0015D4  6E04               	movwf	(clcd_print@data+1)^0,c
  1884   0015D6  0E8A               	movlw	138
  1885   0015D8  6E05               	movwf	clcd_print@addr^0,c
  1886   0015DA  EC6D  F010         	call	_clcd_print	;wreg free
  1887   0015DE                     
  1888                           ;car_black_box.c: 271:     if (key == 11) {
  1889   0015DE  0E0B               	movlw	11
  1890   0015E0  180E               	xorwf	view_log@key^0,w,c
  1891   0015E2  A4D8               	btfss	status,2,c
  1892   0015E4  EFF6  F00A         	goto	u3051
  1893   0015E8  EFF8  F00A         	goto	u3050
  1894   0015EC                     u3051:
  1895   0015EC  EFFF  F00A         	goto	l3384
  1896   0015F0                     u3050:
  1897   0015F0                     
  1898                           ;car_black_box.c: 272:         previous_key = key;
  1899   0015F0  C00E  F04B         	movff	view_log@key,_previous_key
  1900   0015F4  6A4C               	clrf	(_previous_key+1)^0,c
  1901   0015F6                     
  1902                           ;car_black_box.c: 273:         if (wait1++ > 400) {
  1903   0015F6  4A45               	infsnz	_wait1^0,f,c
  1904   0015F8  2A46               	incf	(_wait1+1)^0,f,c
  1905   0015FA  EFC5  F00B         	goto	l3432
  1906   0015FE                     l3384:
  1907   0015FE  5045               	movf	_wait1^0,w,c
  1908   001600  1046               	iorwf	(_wait1+1)^0,w,c
  1909   001602  B4D8               	btfsc	status,2,c
  1910   001604  EF06  F00B         	goto	u3061
  1911   001608  EF08  F00B         	goto	u3060
  1912   00160C                     u3061:
  1913   00160C  EF4E  F00B         	goto	l3402
  1914   001610                     u3060:
  1915   001610  0E90               	movlw	144
  1916   001612  5C45               	subwf	_wait1^0,w,c
  1917   001614  0E01               	movlw	1
  1918   001616  5846               	subwfb	(_wait1+1)^0,w,c
  1919   001618  B0D8               	btfsc	status,0,c
  1920   00161A  EF11  F00B         	goto	u3071
  1921   00161E  EF13  F00B         	goto	u3070
  1922   001622                     u3071:
  1923   001622  EF4E  F00B         	goto	l3402
  1924   001626                     u3070:
  1925   001626  0E0B               	movlw	11
  1926   001628  184B               	xorwf	_previous_key^0,w,c
  1927   00162A  104C               	iorwf	(_previous_key+1)^0,w,c
  1928   00162C  A4D8               	btfss	status,2,c
  1929   00162E  EF1B  F00B         	goto	u3081
  1930   001632  EF1D  F00B         	goto	u3080
  1931   001636                     u3081:
  1932   001636  EF4E  F00B         	goto	l3402
  1933   00163A                     u3080:
  1934   00163A  280E               	incf	view_log@key^0,w,c
  1935   00163C  A4D8               	btfss	status,2,c
  1936   00163E  EF23  F00B         	goto	u3091
  1937   001642  EF25  F00B         	goto	u3090
  1938   001646                     u3091:
  1939   001646  EF4E  F00B         	goto	l3402
  1940   00164A                     u3090:
  1941   00164A                     
  1942                           ;car_black_box.c: 276:         view_flag--;
  1943   00164A  0100               	movlb	0	; () banked
  1944   00164C  07AC               	decf	_view_flag& (0+255),f,b
  1945   00164E  A0D8               	btfss	status,0,c
  1946   001650  07AD               	decf	(_view_flag+1)& (0+255),f,b
  1947                           
  1948                           ;car_black_box.c: 277:         count_event--;
  1949   001652  0643               	decf	_count_event^0,f,c
  1950   001654  A0D8               	btfss	status,0,c
  1951   001656  0644               	decf	(_count_event+1)^0,f,c
  1952   001658                     
  1953                           ; BSR set to: 0
  1954                           ;car_black_box.c: 278:         if (count_event == -1) {
  1955   001658  2843               	incf	_count_event^0,w,c
  1956   00165A  E106               	bnz	u3101
  1957   00165C  2844               	incf	(_count_event+1)^0,w,c
  1958   00165E  A4D8               	btfss	status,2,c
  1959   001660  EF34  F00B         	goto	u3101
  1960   001664  EF36  F00B         	goto	u3100
  1961   001668                     u3101:
  1962   001668  EF3A  F00B         	goto	l3398
  1963   00166C                     u3100:
  1964   00166C                     
  1965                           ; BSR set to: 0
  1966                           ;car_black_box.c: 279:             count_event = 9;
  1967   00166C  0E00               	movlw	0
  1968   00166E  6E44               	movwf	(_count_event+1)^0,c
  1969   001670  0E09               	movlw	9
  1970   001672  6E43               	movwf	_count_event^0,c
  1971   001674                     l3398:
  1972                           
  1973                           ; BSR set to: 0
  1974                           ;car_black_box.c: 281:         if (view_flag == -1) {
  1975   001674  29AC               	incf	_view_flag& (0+255),w,b
  1976   001676  E106               	bnz	u3111
  1977   001678  29AD               	incf	(_view_flag+1)& (0+255),w,b
  1978   00167A  A4D8               	btfss	status,2,c
  1979   00167C  EF42  F00B         	goto	u3111
  1980   001680  EF44  F00B         	goto	u3110
  1981   001684                     u3111:
  1982   001684  EF48  F00B         	goto	l266
  1983   001688                     u3110:
  1984   001688                     
  1985                           ; BSR set to: 0
  1986                           ;car_black_box.c: 282:             view_flag = 9;
  1987   001688  0E00               	movlw	0
  1988   00168A  6FAD               	movwf	(_view_flag+1)& (0+255),b
  1989   00168C  0E09               	movlw	9
  1990   00168E  6FAC               	movwf	_view_flag& (0+255),b
  1991   001690                     l266:
  1992                           
  1993                           ;car_black_box.c: 284:         wait1 = 0;
  1994   001690  0E00               	movlw	0
  1995   001692  6E46               	movwf	(_wait1+1)^0,c
  1996   001694  0E00               	movlw	0
  1997   001696  6E45               	movwf	_wait1^0,c
  1998                           
  1999                           ;car_black_box.c: 285:     } else if (key == 12) {
  2000   001698  EFC5  F00B         	goto	l3432
  2001   00169C                     l3402:
  2002   00169C  0E0C               	movlw	12
  2003   00169E  180E               	xorwf	view_log@key^0,w,c
  2004   0016A0  A4D8               	btfss	status,2,c
  2005   0016A2  EF55  F00B         	goto	u3121
  2006   0016A6  EF57  F00B         	goto	u3120
  2007   0016AA                     u3121:
  2008   0016AA  EF7C  F00B         	goto	l3412
  2009   0016AE                     u3120:
  2010   0016AE                     
  2011                           ;car_black_box.c: 286:         previous_key = key;
  2012   0016AE  C00E  F04B         	movff	view_log@key,_previous_key
  2013   0016B2  6A4C               	clrf	(_previous_key+1)^0,c
  2014   0016B4                     
  2015                           ;car_black_box.c: 287:         if (wait1++ > 300) {
  2016   0016B4  5045               	movf	_wait1^0,w,c
  2017   0016B6  6E0A               	movwf	??_view_log^0,c
  2018   0016B8  5046               	movf	(_wait1+1)^0,w,c
  2019   0016BA  6E0B               	movwf	(??_view_log+1)^0,c
  2020   0016BC  4A45               	infsnz	_wait1^0,f,c
  2021   0016BE  2A46               	incf	(_wait1+1)^0,f,c
  2022   0016C0  0E2D               	movlw	45
  2023   0016C2  5C0A               	subwf	??_view_log^0,w,c
  2024   0016C4  0E01               	movlw	1
  2025   0016C6  580B               	subwfb	(??_view_log+1)^0,w,c
  2026   0016C8  A0D8               	btfss	status,0,c
  2027   0016CA  EF69  F00B         	goto	u3131
  2028   0016CE  EF6B  F00B         	goto	u3130
  2029   0016D2                     u3131:
  2030   0016D2  EFC5  F00B         	goto	l3432
  2031   0016D6                     u3130:
  2032   0016D6                     
  2033                           ;car_black_box.c: 288:             wait1 = 0;
  2034   0016D6  0E00               	movlw	0
  2035   0016D8  6E46               	movwf	(_wait1+1)^0,c
  2036   0016DA  0E00               	movlw	0
  2037   0016DC  6E45               	movwf	_wait1^0,c
  2038                           
  2039                           ;car_black_box.c: 289:             enter_flag = 2;
  2040   0016DE  0E02               	movlw	2
  2041   0016E0  6E5A               	movwf	_enter_flag^0,c
  2042                           
  2043                           ;car_black_box.c: 290:             view_flag = 0;
  2044   0016E2  0E00               	movlw	0
  2045   0016E4  0100               	movlb	0	; () banked
  2046   0016E6  6FAD               	movwf	(_view_flag+1)& (0+255),b
  2047   0016E8  0E00               	movlw	0
  2048   0016EA  6FAC               	movwf	_view_flag& (0+255),b
  2049                           
  2050                           ;car_black_box.c: 291:             sec = 0;
  2051   0016EC  0E00               	movlw	0
  2052   0016EE  6E54               	movwf	(_sec+1)^0,c
  2053   0016F0  0E00               	movlw	0
  2054   0016F2  6E53               	movwf	_sec^0,c
  2055   0016F4  EF06  F00C         	goto	l270
  2056   0016F8                     l3412:
  2057   0016F8  5045               	movf	_wait1^0,w,c
  2058   0016FA  1046               	iorwf	(_wait1+1)^0,w,c
  2059   0016FC  B4D8               	btfsc	status,2,c
  2060   0016FE  EF83  F00B         	goto	u3141
  2061   001702  EF85  F00B         	goto	u3140
  2062   001706                     u3141:
  2063   001706  EF48  F00B         	goto	l266
  2064   00170A                     u3140:
  2065   00170A  0E2C               	movlw	44
  2066   00170C  5C45               	subwf	_wait1^0,w,c
  2067   00170E  0E01               	movlw	1
  2068   001710  5846               	subwfb	(_wait1+1)^0,w,c
  2069   001712  B0D8               	btfsc	status,0,c
  2070   001714  EF8E  F00B         	goto	u3151
  2071   001718  EF90  F00B         	goto	u3150
  2072   00171C                     u3151:
  2073   00171C  EF48  F00B         	goto	l266
  2074   001720                     u3150:
  2075   001720  0E0C               	movlw	12
  2076   001722  184B               	xorwf	_previous_key^0,w,c
  2077   001724  104C               	iorwf	(_previous_key+1)^0,w,c
  2078   001726  A4D8               	btfss	status,2,c
  2079   001728  EF98  F00B         	goto	u3161
  2080   00172C  EF9A  F00B         	goto	u3160
  2081   001730                     u3161:
  2082   001730  EF48  F00B         	goto	l266
  2083   001734                     u3160:
  2084   001734  280E               	incf	view_log@key^0,w,c
  2085   001736  A4D8               	btfss	status,2,c
  2086   001738  EFA0  F00B         	goto	u3171
  2087   00173C  EFA2  F00B         	goto	u3170
  2088   001740                     u3171:
  2089   001740  EF48  F00B         	goto	l266
  2090   001744                     u3170:
  2091   001744                     
  2092                           ;car_black_box.c: 295:         view_flag++;
  2093   001744  0100               	movlb	0	; () banked
  2094   001746  4BAC               	infsnz	_view_flag& (0+255),f,b
  2095   001748  2BAD               	incf	(_view_flag+1)& (0+255),f,b
  2096                           
  2097                           ;car_black_box.c: 296:         count_event++;
  2098   00174A  4A43               	infsnz	_count_event^0,f,c
  2099   00174C  2A44               	incf	(_count_event+1)^0,f,c
  2100   00174E                     
  2101                           ; BSR set to: 0
  2102                           ;car_black_box.c: 297:         if (count_event == 10)
  2103   00174E  0E0A               	movlw	10
  2104   001750  1843               	xorwf	_count_event^0,w,c
  2105   001752  1044               	iorwf	(_count_event+1)^0,w,c
  2106   001754  A4D8               	btfss	status,2,c
  2107   001756  EFAF  F00B         	goto	u3181
  2108   00175A  EFB1  F00B         	goto	u3180
  2109   00175E                     u3181:
  2110   00175E  EFB5  F00B         	goto	l3426
  2111   001762                     u3180:
  2112   001762                     
  2113                           ; BSR set to: 0
  2114                           ;car_black_box.c: 298:             count_event = 0;
  2115   001762  0E00               	movlw	0
  2116   001764  6E44               	movwf	(_count_event+1)^0,c
  2117   001766  0E00               	movlw	0
  2118   001768  6E43               	movwf	_count_event^0,c
  2119   00176A                     l3426:
  2120                           
  2121                           ; BSR set to: 0
  2122                           ;car_black_box.c: 299:         if (view_flag == 10)
  2123   00176A  0E0A               	movlw	10
  2124   00176C  19AC               	xorwf	_view_flag& (0+255),w,b
  2125   00176E  11AD               	iorwf	(_view_flag+1)& (0+255),w,b
  2126   001770  A4D8               	btfss	status,2,c
  2127   001772  EFBD  F00B         	goto	u3191
  2128   001776  EFBF  F00B         	goto	u3190
  2129   00177A                     u3191:
  2130   00177A  EF48  F00B         	goto	l266
  2131   00177E                     u3190:
  2132   00177E                     
  2133                           ; BSR set to: 0
  2134                           ;car_black_box.c: 300:             view_flag = 0;
  2135   00177E  0E00               	movlw	0
  2136   001780  6FAD               	movwf	(_view_flag+1)& (0+255),b
  2137   001782  0E00               	movlw	0
  2138   001784  6FAC               	movwf	_view_flag& (0+255),b
  2139   001786  EF48  F00B         	goto	l266
  2140   00178A                     l3432:
  2141                           
  2142                           ;car_black_box.c: 305:     address = 0x00 + (16 * (count_event % total_index));
  2143   00178A  C043  F001         	movff	_count_event,___lwmod@dividend
  2144   00178E  C044  F002         	movff	_count_event+1,___lwmod@dividend+1
  2145   001792  C058  F003         	movff	_total_index,___lwmod@divisor
  2146   001796  6A04               	clrf	(___lwmod@divisor+1)^0,c
  2147   001798  ECA3  F010         	call	___lwmod	;wreg free
  2148   00179C  3A01               	swapf	?___lwmod^0,f,c
  2149   00179E  3A02               	swapf	(?___lwmod+1)^0,f,c
  2150   0017A0  0EF0               	movlw	240
  2151   0017A2  1602               	andwf	(?___lwmod+1)^0,f,c
  2152   0017A4  5001               	movf	?___lwmod^0,w,c
  2153   0017A6  0B0F               	andlw	15
  2154   0017A8  1202               	iorwf	(?___lwmod+1)^0,f,c
  2155   0017AA  0EF0               	movlw	240
  2156   0017AC  1601               	andwf	?___lwmod^0,f,c
  2157   0017AE  C001  F0AA         	movff	?___lwmod,_address
  2158   0017B2  C002  F0AB         	movff	?___lwmod+1,_address+1
  2159   0017B6                     
  2160                           ;car_black_box.c: 306:     for (int i = 0; i < 16; i++) {
  2161   0017B6  0E00               	movlw	0
  2162   0017B8  6E0D               	movwf	(view_log@i+1)^0,c
  2163   0017BA  0E00               	movlw	0
  2164   0017BC  6E0C               	movwf	view_log@i^0,c
  2165   0017BE                     l3440:
  2166                           
  2167                           ;car_black_box.c: 307:         view_event[i] = read_external_eeprom(address + i);
  2168   0017BE  0EB4               	movlw	low _view_event
  2169   0017C0  240C               	addwf	view_log@i^0,w,c
  2170   0017C2  6ED9               	movwf	fsr2l,c
  2171   0017C4  0E00               	movlw	high _view_event
  2172   0017C6  200D               	addwfc	(view_log@i+1)^0,w,c
  2173   0017C8  6EDA               	movwf	fsr2h,c
  2174   0017CA  500C               	movf	view_log@i^0,w,c
  2175   0017CC  0100               	movlb	0	; () banked
  2176   0017CE  25AA               	addwf	_address& (0+255),w,b
  2177   0017D0  EC4B  F012         	call	_read_external_eeprom
  2178   0017D4  6EDF               	movwf	indf2,c
  2179   0017D6                     
  2180                           ;car_black_box.c: 308:     }
  2181   0017D6  4A0C               	infsnz	view_log@i^0,f,c
  2182   0017D8  2A0D               	incf	(view_log@i+1)^0,f,c
  2183   0017DA  BE0D               	btfsc	(view_log@i+1)^0,7,c
  2184   0017DC  EFF9  F00B         	goto	u3201
  2185   0017E0  500D               	movf	(view_log@i+1)^0,w,c
  2186   0017E2  E109               	bnz	u3200
  2187   0017E4  0E10               	movlw	16
  2188   0017E6  5C0C               	subwf	view_log@i^0,w,c
  2189   0017E8  A0D8               	btfss	status,0,c
  2190   0017EA  EFF9  F00B         	goto	u3201
  2191   0017EE  EFFB  F00B         	goto	u3200
  2192   0017F2                     u3201:
  2193   0017F2  EFDF  F00B         	goto	l3440
  2194   0017F6                     u3200:
  2195   0017F6                     
  2196                           ;car_black_box.c: 309:     view_event[16] = '\0';
  2197   0017F6  0E00               	movlw	0
  2198   0017F8  0100               	movlb	0	; () banked
  2199   0017FA  6FC4               	movwf	(_view_event+16)& (0+255),b
  2200   0017FC                     
  2201                           ; BSR set to: 0
  2202                           ;car_black_box.c: 310:     clcd_print(view_event, (0xC0 + (0)));
  2203   0017FC  0EB4               	movlw	low _view_event
  2204   0017FE  6E03               	movwf	clcd_print@data^0,c
  2205   001800  0E00               	movlw	high _view_event
  2206   001802  6E04               	movwf	(clcd_print@data+1)^0,c
  2207   001804  0EC0               	movlw	192
  2208   001806  6E05               	movwf	clcd_print@addr^0,c
  2209   001808  EC6D  F010         	call	_clcd_print	;wreg free
  2210   00180C                     l270:
  2211   00180C  0012               	return		;funcret
  2212   00180E                     __end_of_view_log:
  2213                           	callstack 0
  2214                           
  2215 ;; *************** function _read_external_eeprom *****************
  2216 ;; Defined at:
  2217 ;;		line 23 in file "ext_eeprom.c"
  2218 ;; Parameters:    Size  Location     Type
  2219 ;;  address         1    wreg     unsigned char 
  2220 ;; Auto vars:     Size  Location     Type
  2221 ;;  address         1    1[COMRAM] unsigned char 
  2222 ;;  data            1    2[COMRAM] unsigned char 
  2223 ;; Return value:  Size  Location     Type
  2224 ;;                  1    wreg      unsigned char 
  2225 ;; Registers used:
  2226 ;;		wreg, status,2, cstack
  2227 ;; Tracked objects:
  2228 ;;		On entry : 0/0
  2229 ;;		On exit  : 0/0
  2230 ;;		Unchanged: 0/0
  2231 ;; Data sizes:     COMRAM   BANK0   BANK1   BANK2   BANK3   BANK4   BANK5
  2232 ;;      Params:         0       0       0       0       0       0       0
  2233 ;;      Locals:         2       0       0       0       0       0       0
  2234 ;;      Temps:          0       0       0       0       0       0       0
  2235 ;;      Totals:         2       0       0       0       0       0       0
  2236 ;;Total ram usage:        2 bytes
  2237 ;; Hardware stack levels used: 1
  2238 ;; Hardware stack levels required when called: 4
  2239 ;; This function calls:
  2240 ;;		_i2c_read
  2241 ;;		_i2c_rep_start
  2242 ;;		_i2c_start
  2243 ;;		_i2c_stop
  2244 ;;		_i2c_write
  2245 ;; This function is called by:
  2246 ;;		_main
  2247 ;;		_view_log
  2248 ;; This function uses a non-reentrant model
  2249 ;;
  2250                           
  2251                           	psect	text2
  2252   002496                     __ptext2:
  2253                           	callstack 0
  2254   002496                     _read_external_eeprom:
  2255                           	callstack 25
  2256                           
  2257                           ;incstack = 0
  2258                           ;read_external_eeprom@address stored from wreg
  2259   002496  6E02               	movwf	read_external_eeprom@address^0,c
  2260   002498                     
  2261                           ;ext_eeprom.c: 23: unsigned char read_external_eeprom(unsigned char address);ext_eeprom.
      +                          c: 24: {;ext_eeprom.c: 25:  unsigned char data;;ext_eeprom.c: 27:  i2c_start();
  2262   002498  ECE9  F012         	call	_i2c_start	;wreg free
  2263   00249C                     
  2264                           ;ext_eeprom.c: 28:  i2c_write(0xA0);
  2265   00249C  0EA0               	movlw	160
  2266   00249E  ECD3  F012         	call	_i2c_write
  2267   0024A2                     
  2268                           ;ext_eeprom.c: 29:  i2c_write(address);
  2269   0024A2  5002               	movf	read_external_eeprom@address^0,w,c
  2270   0024A4  ECD3  F012         	call	_i2c_write
  2271   0024A8                     
  2272                           ;ext_eeprom.c: 30:  i2c_rep_start();
  2273   0024A8  ECDD  F012         	call	_i2c_rep_start	;wreg free
  2274   0024AC                     
  2275                           ;ext_eeprom.c: 31:  i2c_write(0xA1);
  2276   0024AC  0EA1               	movlw	161
  2277   0024AE  ECD3  F012         	call	_i2c_write
  2278                           
  2279                           ;ext_eeprom.c: 32:  data = i2c_read();
  2280   0024B2  ECCD  F012         	call	_i2c_read	;wreg free
  2281   0024B6  6E03               	movwf	read_external_eeprom@data^0,c
  2282   0024B8                     
  2283                           ;ext_eeprom.c: 33:  i2c_stop();
  2284   0024B8  ECE5  F012         	call	_i2c_stop	;wreg free
  2285                           
  2286                           ;ext_eeprom.c: 35:  return data;
  2287   0024BC  5003               	movf	read_external_eeprom@data^0,w,c
  2288   0024BE  0012               	return		;funcret
  2289   0024C0                     __end_of_read_external_eeprom:
  2290                           	callstack 0
  2291                           
  2292 ;; *************** function _set_time *****************
  2293 ;; Defined at:
  2294 ;;		line 315 in file "car_black_box.c"
  2295 ;; Parameters:    Size  Location     Type
  2296 ;;  key             1    wreg     unsigned char 
  2297 ;; Auto vars:     Size  Location     Type
  2298 ;;  key             1   11[COMRAM] unsigned char 
  2299 ;; Return value:  Size  Location     Type
  2300 ;;                  1    wreg      void 
  2301 ;; Registers used:
  2302 ;;		wreg, fsr1l, fsr1h, status,2, status,0, tblptrl, tblptrh, tblptru, cstack
  2303 ;; Tracked objects:
  2304 ;;		On entry : 0/0
  2305 ;;		On exit  : 0/0
  2306 ;;		Unchanged: 0/0
  2307 ;; Data sizes:     COMRAM   BANK0   BANK1   BANK2   BANK3   BANK4   BANK5
  2308 ;;      Params:         0       0       0       0       0       0       0
  2309 ;;      Locals:         1       0       0       0       0       0       0
  2310 ;;      Temps:          2       0       0       0       0       0       0
  2311 ;;      Totals:         3       0       0       0       0       0       0
  2312 ;;Total ram usage:        3 bytes
  2313 ;; Hardware stack levels used: 1
  2314 ;; Hardware stack levels required when called: 3
  2315 ;; This function calls:
  2316 ;;		_clcd_print
  2317 ;;		_clcd_putch
  2318 ;; This function is called by:
  2319 ;;		_main
  2320 ;; This function uses a non-reentrant model
  2321 ;;
  2322                           
  2323                           	psect	text3
  2324   000FC4                     __ptext3:
  2325                           	callstack 0
  2326   000FC4                     _set_time:
  2327                           	callstack 27
  2328                           
  2329                           ;incstack = 0
  2330                           ;set_time@key stored from wreg
  2331   000FC4  6E0C               	movwf	set_time@key^0,c
  2332   000FC6                     
  2333                           ;car_black_box.c: 316:     if (key == 11) {
  2334   000FC6  0E0B               	movlw	11
  2335   000FC8  180C               	xorwf	set_time@key^0,w,c
  2336   000FCA  A4D8               	btfss	status,2,c
  2337   000FCC  EFEA  F007         	goto	u3211
  2338   000FD0  EFEC  F007         	goto	u3210
  2339   000FD4                     u3211:
  2340   000FD4  EF10  F008         	goto	l3460
  2341   000FD8                     u3210:
  2342   000FD8                     
  2343                           ;car_black_box.c: 317:         previous_key = key;
  2344   000FD8  C00C  F04B         	movff	set_time@key,_previous_key
  2345   000FDC  6A4C               	clrf	(_previous_key+1)^0,c
  2346   000FDE                     
  2347                           ;car_black_box.c: 318:         if (wait1++ > 400) {
  2348   000FDE  5045               	movf	_wait1^0,w,c
  2349   000FE0  6E0A               	movwf	??_set_time^0,c
  2350   000FE2  5046               	movf	(_wait1+1)^0,w,c
  2351   000FE4  6E0B               	movwf	(??_set_time+1)^0,c
  2352   000FE6  4A45               	infsnz	_wait1^0,f,c
  2353   000FE8  2A46               	incf	(_wait1+1)^0,f,c
  2354   000FEA  0E91               	movlw	145
  2355   000FEC  5C0A               	subwf	??_set_time^0,w,c
  2356   000FEE  0E01               	movlw	1
  2357   000FF0  580B               	subwfb	(??_set_time+1)^0,w,c
  2358   000FF2  A0D8               	btfss	status,0,c
  2359   000FF4  EFFE  F007         	goto	u3221
  2360   000FF8  EF00  F008         	goto	u3220
  2361   000FFC                     u3221:
  2362   000FFC  EF28  F009         	goto	l3536
  2363   001000                     u3220:
  2364   001000                     l3456:
  2365                           
  2366                           ;car_black_box.c: 319:             wait1 = 0;
  2367   001000  0E00               	movlw	0
  2368   001002  6E46               	movwf	(_wait1+1)^0,c
  2369   001004  0E00               	movlw	0
  2370   001006  6E45               	movwf	_wait1^0,c
  2371                           
  2372                           ;car_black_box.c: 320:             enter_flag = 2;
  2373   001008  0E02               	movlw	2
  2374   00100A  6E5A               	movwf	_enter_flag^0,c
  2375                           
  2376                           ;car_black_box.c: 321:             index = 0;
  2377   00100C  0E00               	movlw	0
  2378   00100E  6E50               	movwf	(_index+1)^0,c
  2379   001010  0E00               	movlw	0
  2380   001012  6E4F               	movwf	_index^0,c
  2381                           
  2382                           ;car_black_box.c: 322:             sec = 0;
  2383   001014  0E00               	movlw	0
  2384   001016  6E54               	movwf	(_sec+1)^0,c
  2385   001018  0E00               	movlw	0
  2386   00101A  6E53               	movwf	_sec^0,c
  2387   00101C  EF5F  F009         	goto	l286
  2388   001020                     l3460:
  2389   001020  5045               	movf	_wait1^0,w,c
  2390   001022  1046               	iorwf	(_wait1+1)^0,w,c
  2391   001024  B4D8               	btfsc	status,2,c
  2392   001026  EF17  F008         	goto	u3231
  2393   00102A  EF19  F008         	goto	u3230
  2394   00102E                     u3231:
  2395   00102E  EFC8  F008         	goto	l3510
  2396   001032                     u3230:
  2397   001032  0E90               	movlw	144
  2398   001034  5C45               	subwf	_wait1^0,w,c
  2399   001036  0E01               	movlw	1
  2400   001038  5846               	subwfb	(_wait1+1)^0,w,c
  2401   00103A  B0D8               	btfsc	status,0,c
  2402   00103C  EF22  F008         	goto	u3241
  2403   001040  EF24  F008         	goto	u3240
  2404   001044                     u3241:
  2405   001044  EFC8  F008         	goto	l3510
  2406   001048                     u3240:
  2407   001048  0E0B               	movlw	11
  2408   00104A  184B               	xorwf	_previous_key^0,w,c
  2409   00104C  104C               	iorwf	(_previous_key+1)^0,w,c
  2410   00104E  A4D8               	btfss	status,2,c
  2411   001050  EF2C  F008         	goto	u3251
  2412   001054  EF2E  F008         	goto	u3250
  2413   001058                     u3251:
  2414   001058  EFC8  F008         	goto	l3510
  2415   00105C                     u3250:
  2416   00105C  280C               	incf	set_time@key^0,w,c
  2417   00105E  A4D8               	btfss	status,2,c
  2418   001060  EF34  F008         	goto	u3261
  2419   001064  EF36  F008         	goto	u3260
  2420   001068                     u3261:
  2421   001068  EFC8  F008         	goto	l3510
  2422   00106C                     u3260:
  2423   00106C                     
  2424                           ;car_black_box.c: 326:         if (index == 0) {
  2425   00106C  504F               	movf	_index^0,w,c
  2426   00106E  1050               	iorwf	(_index+1)^0,w,c
  2427   001070  A4D8               	btfss	status,2,c
  2428   001072  EF3D  F008         	goto	u3271
  2429   001076  EF3F  F008         	goto	u3270
  2430   00107A                     u3271:
  2431   00107A  EF68  F008         	goto	l3484
  2432   00107E                     u3270:
  2433   00107E                     
  2434                           ;car_black_box.c: 327:             if (time[0] != '2') {
  2435   00107E  0E32               	movlw	50
  2436   001080  0100               	movlb	0	; () banked
  2437   001082  1997               	xorwf	_time& (0+255),w,b
  2438   001084  B4D8               	btfsc	status,2,c
  2439   001086  EF47  F008         	goto	u3281
  2440   00108A  EF49  F008         	goto	u3280
  2441   00108E                     u3281:
  2442   00108E  EF58  F008         	goto	l3478
  2443   001092                     u3280:
  2444   001092                     
  2445                           ; BSR set to: 0
  2446                           ;car_black_box.c: 328:                 if (time[1]++ == '9') {
  2447   001092  2B98               	incf	(_time+1)& (0+255),f,b
  2448   001094  0E3A               	movlw	58
  2449   001096  1998               	xorwf	(_time+1)& (0+255),w,b
  2450   001098  A4D8               	btfss	status,2,c
  2451   00109A  EF51  F008         	goto	u3291
  2452   00109E  EF53  F008         	goto	u3290
  2453   0010A2                     u3291:
  2454   0010A2  EFC2  F008         	goto	l294
  2455   0010A6                     u3290:
  2456   0010A6                     
  2457                           ; BSR set to: 0
  2458                           ;car_black_box.c: 329:                     time[1] = '0';
  2459   0010A6  0E30               	movlw	48
  2460   0010A8  6F98               	movwf	(_time+1)& (0+255),b
  2461   0010AA                     
  2462                           ; BSR set to: 0
  2463                           ;car_black_box.c: 330:                     time[0]++;
  2464   0010AA  2B97               	incf	_time& (0+255),f,b
  2465   0010AC  EFC2  F008         	goto	l294
  2466   0010B0                     l3478:
  2467                           
  2468                           ; BSR set to: 0
  2469                           ;car_black_box.c: 333:                 time[1]++;
  2470   0010B0  2B98               	incf	(_time+1)& (0+255),f,b
  2471   0010B2                     
  2472                           ; BSR set to: 0
  2473                           ;car_black_box.c: 334:                 if (time[1] == '5') {
  2474   0010B2  0E35               	movlw	53
  2475   0010B4  1998               	xorwf	(_time+1)& (0+255),w,b
  2476   0010B6  A4D8               	btfss	status,2,c
  2477   0010B8  EF60  F008         	goto	u3301
  2478   0010BC  EF62  F008         	goto	u3300
  2479   0010C0                     u3301:
  2480   0010C0  EFC2  F008         	goto	l294
  2481   0010C4                     u3300:
  2482   0010C4                     
  2483                           ; BSR set to: 0
  2484                           ;car_black_box.c: 335:                     time[0] = '0';
  2485   0010C4  0E30               	movlw	48
  2486   0010C6  6F97               	movwf	_time& (0+255),b
  2487                           
  2488                           ;car_black_box.c: 336:                     time[1] = '0';
  2489   0010C8  0E30               	movlw	48
  2490   0010CA  6F98               	movwf	(_time+1)& (0+255),b
  2491   0010CC  EFC2  F008         	goto	l294
  2492   0010D0                     l3484:
  2493   0010D0  0E03               	movlw	3
  2494   0010D2  184F               	xorwf	_index^0,w,c
  2495   0010D4  1050               	iorwf	(_index+1)^0,w,c
  2496   0010D6  A4D8               	btfss	status,2,c
  2497   0010D8  EF70  F008         	goto	u3311
  2498   0010DC  EF72  F008         	goto	u3310
  2499   0010E0                     u3311:
  2500   0010E0  EF9B  F008         	goto	l3498
  2501   0010E4                     u3310:
  2502   0010E4                     
  2503                           ;car_black_box.c: 341:         {;car_black_box.c: 342:             if (time[3] != '5') {
  2504   0010E4  0E35               	movlw	53
  2505   0010E6  0100               	movlb	0	; () banked
  2506   0010E8  199A               	xorwf	(_time+3)& (0+255),w,b
  2507   0010EA  B4D8               	btfsc	status,2,c
  2508   0010EC  EF7A  F008         	goto	u3321
  2509   0010F0  EF7C  F008         	goto	u3320
  2510   0010F4                     u3321:
  2511   0010F4  EF8B  F008         	goto	l3494
  2512   0010F8                     u3320:
  2513   0010F8                     
  2514                           ; BSR set to: 0
  2515                           ;car_black_box.c: 343:                 if (time[4]++ == '9') {
  2516   0010F8  2B9B               	incf	(_time+4)& (0+255),f,b
  2517   0010FA  0E3A               	movlw	58
  2518   0010FC  199B               	xorwf	(_time+4)& (0+255),w,b
  2519   0010FE  A4D8               	btfss	status,2,c
  2520   001100  EF84  F008         	goto	u3331
  2521   001104  EF86  F008         	goto	u3330
  2522   001108                     u3331:
  2523   001108  EFC2  F008         	goto	l294
  2524   00110C                     u3330:
  2525   00110C                     
  2526                           ; BSR set to: 0
  2527                           ;car_black_box.c: 344:                     time[4] = '0';
  2528   00110C  0E30               	movlw	48
  2529   00110E  6F9B               	movwf	(_time+4)& (0+255),b
  2530   001110                     
  2531                           ; BSR set to: 0
  2532                           ;car_black_box.c: 345:                     time[3]++;
  2533   001110  2B9A               	incf	(_time+3)& (0+255),f,b
  2534   001112  EFC2  F008         	goto	l294
  2535   001116                     l3494:
  2536                           
  2537                           ; BSR set to: 0
  2538                           ;car_black_box.c: 348:                 if (time[4]++ == '9') {
  2539   001116  2B9B               	incf	(_time+4)& (0+255),f,b
  2540   001118  0E3A               	movlw	58
  2541   00111A  199B               	xorwf	(_time+4)& (0+255),w,b
  2542   00111C  A4D8               	btfss	status,2,c
  2543   00111E  EF93  F008         	goto	u3341
  2544   001122  EF95  F008         	goto	u3340
  2545   001126                     u3341:
  2546   001126  EFC2  F008         	goto	l294
  2547   00112A                     u3340:
  2548   00112A                     
  2549                           ; BSR set to: 0
  2550                           ;car_black_box.c: 349:                     time[4] = '0';
  2551   00112A  0E30               	movlw	48
  2552   00112C  6F9B               	movwf	(_time+4)& (0+255),b
  2553                           
  2554                           ;car_black_box.c: 350:                     time[3] = '0';
  2555   00112E  0E30               	movlw	48
  2556   001130  6F9A               	movwf	(_time+3)& (0+255),b
  2557   001132  EFC2  F008         	goto	l294
  2558   001136                     l3498:
  2559                           
  2560                           ;car_black_box.c: 355:         {;car_black_box.c: 356:             if (time[6] != '5') {
  2561   001136  0E35               	movlw	53
  2562   001138  0100               	movlb	0	; () banked
  2563   00113A  199D               	xorwf	(_time+6)& (0+255),w,b
  2564   00113C  B4D8               	btfsc	status,2,c
  2565   00113E  EFA3  F008         	goto	u3351
  2566   001142  EFA5  F008         	goto	u3350
  2567   001146                     u3351:
  2568   001146  EFB4  F008         	goto	l3506
  2569   00114A                     u3350:
  2570   00114A                     
  2571                           ; BSR set to: 0
  2572                           ;car_black_box.c: 357:                 if (time[7]++ == '9') {
  2573   00114A  2B9E               	incf	(_time+7)& (0+255),f,b
  2574   00114C  0E3A               	movlw	58
  2575   00114E  199E               	xorwf	(_time+7)& (0+255),w,b
  2576   001150  A4D8               	btfss	status,2,c
  2577   001152  EFAD  F008         	goto	u3361
  2578   001156  EFAF  F008         	goto	u3360
  2579   00115A                     u3361:
  2580   00115A  EFC2  F008         	goto	l294
  2581   00115E                     u3360:
  2582   00115E                     
  2583                           ; BSR set to: 0
  2584                           ;car_black_box.c: 358:                     time[7] = '0';
  2585   00115E  0E30               	movlw	48
  2586   001160  6F9E               	movwf	(_time+7)& (0+255),b
  2587   001162                     
  2588                           ; BSR set to: 0
  2589                           ;car_black_box.c: 359:                     time[6]++;
  2590   001162  2B9D               	incf	(_time+6)& (0+255),f,b
  2591   001164  EFC2  F008         	goto	l294
  2592   001168                     l3506:
  2593                           
  2594                           ; BSR set to: 0
  2595                           ;car_black_box.c: 362:                 if (time[7]++ == '9') {
  2596   001168  2B9E               	incf	(_time+7)& (0+255),f,b
  2597   00116A  0E3A               	movlw	58
  2598   00116C  199E               	xorwf	(_time+7)& (0+255),w,b
  2599   00116E  A4D8               	btfss	status,2,c
  2600   001170  EFBC  F008         	goto	u3371
  2601   001174  EFBE  F008         	goto	u3370
  2602   001178                     u3371:
  2603   001178  EFC2  F008         	goto	l294
  2604   00117C                     u3370:
  2605   00117C                     
  2606                           ; BSR set to: 0
  2607                           ;car_black_box.c: 363:                     time[7] = '0';
  2608   00117C  0E30               	movlw	48
  2609   00117E  6F9E               	movwf	(_time+7)& (0+255),b
  2610                           
  2611                           ;car_black_box.c: 364:                     time[6] = '0';
  2612   001180  0E30               	movlw	48
  2613   001182  6F9D               	movwf	(_time+6)& (0+255),b
  2614   001184                     l294:
  2615                           
  2616                           ;car_black_box.c: 368:         wait1 = 0;
  2617   001184  0E00               	movlw	0
  2618   001186  6E46               	movwf	(_wait1+1)^0,c
  2619   001188  0E00               	movlw	0
  2620   00118A  6E45               	movwf	_wait1^0,c
  2621                           
  2622                           ;car_black_box.c: 369:     } else if (key == 12) {
  2623   00118C  EF28  F009         	goto	l3536
  2624   001190                     l3510:
  2625   001190  0E0C               	movlw	12
  2626   001192  180C               	xorwf	set_time@key^0,w,c
  2627   001194  A4D8               	btfss	status,2,c
  2628   001196  EFCF  F008         	goto	u3381
  2629   00119A  EFD1  F008         	goto	u3380
  2630   00119E                     u3381:
  2631   00119E  EFE7  F008         	goto	l3520
  2632   0011A2                     u3380:
  2633   0011A2                     
  2634                           ;car_black_box.c: 370:         previous_key = key;
  2635   0011A2  C00C  F04B         	movff	set_time@key,_previous_key
  2636   0011A6  6A4C               	clrf	(_previous_key+1)^0,c
  2637   0011A8                     
  2638                           ;car_black_box.c: 371:         if (wait1++ > 400) {
  2639   0011A8  5045               	movf	_wait1^0,w,c
  2640   0011AA  6E0A               	movwf	??_set_time^0,c
  2641   0011AC  5046               	movf	(_wait1+1)^0,w,c
  2642   0011AE  6E0B               	movwf	(??_set_time+1)^0,c
  2643   0011B0  4A45               	infsnz	_wait1^0,f,c
  2644   0011B2  2A46               	incf	(_wait1+1)^0,f,c
  2645   0011B4  0E91               	movlw	145
  2646   0011B6  5C0A               	subwf	??_set_time^0,w,c
  2647   0011B8  0E01               	movlw	1
  2648   0011BA  580B               	subwfb	(??_set_time+1)^0,w,c
  2649   0011BC  A0D8               	btfss	status,0,c
  2650   0011BE  EFE3  F008         	goto	u3391
  2651   0011C2  EFE5  F008         	goto	u3390
  2652   0011C6                     u3391:
  2653   0011C6  EF28  F009         	goto	l3536
  2654   0011CA                     u3390:
  2655   0011CA  EF00  F008         	goto	l3456
  2656   0011CE                     l3520:
  2657   0011CE  5045               	movf	_wait1^0,w,c
  2658   0011D0  1046               	iorwf	(_wait1+1)^0,w,c
  2659   0011D2  B4D8               	btfsc	status,2,c
  2660   0011D4  EFEE  F008         	goto	u3401
  2661   0011D8  EFF0  F008         	goto	u3400
  2662   0011DC                     u3401:
  2663   0011DC  EF28  F009         	goto	l3536
  2664   0011E0                     u3400:
  2665   0011E0  0E90               	movlw	144
  2666   0011E2  5C45               	subwf	_wait1^0,w,c
  2667   0011E4  0E01               	movlw	1
  2668   0011E6  5846               	subwfb	(_wait1+1)^0,w,c
  2669   0011E8  B0D8               	btfsc	status,0,c
  2670   0011EA  EFF9  F008         	goto	u3411
  2671   0011EE  EFFB  F008         	goto	u3410
  2672   0011F2                     u3411:
  2673   0011F2  EF28  F009         	goto	l3536
  2674   0011F6                     u3410:
  2675   0011F6  0E0C               	movlw	12
  2676   0011F8  184B               	xorwf	_previous_key^0,w,c
  2677   0011FA  104C               	iorwf	(_previous_key+1)^0,w,c
  2678   0011FC  A4D8               	btfss	status,2,c
  2679   0011FE  EF03  F009         	goto	u3421
  2680   001202  EF05  F009         	goto	u3420
  2681   001206                     u3421:
  2682   001206  EF28  F009         	goto	l3536
  2683   00120A                     u3420:
  2684   00120A  280C               	incf	set_time@key^0,w,c
  2685   00120C  A4D8               	btfss	status,2,c
  2686   00120E  EF0B  F009         	goto	u3431
  2687   001212  EF0D  F009         	goto	u3430
  2688   001216                     u3431:
  2689   001216  EF28  F009         	goto	l3536
  2690   00121A                     u3430:
  2691   00121A                     
  2692                           ;car_black_box.c: 379:         index-=3;
  2693   00121A  0E03               	movlw	3
  2694   00121C  5E4F               	subwf	_index^0,f,c
  2695   00121E  0E00               	movlw	0
  2696   001220  5A50               	subwfb	(_index+1)^0,f,c
  2697   001222                     
  2698                           ;car_black_box.c: 380:         clcd_putch(index+48, (0x80 + (10)));
  2699   001222  0E8A               	movlw	138
  2700   001224  6E08               	movwf	clcd_putch@addr^0,c
  2701   001226  504F               	movf	_index^0,w,c
  2702   001228  0F30               	addlw	48
  2703   00122A  ECAD  F012         	call	_clcd_putch
  2704   00122E                     
  2705                           ;car_black_box.c: 381:         if (index == (unsigned)-3)
  2706   00122E  0EFD               	movlw	253
  2707   001230  184F               	xorwf	_index^0,w,c
  2708   001232  E106               	bnz	u3441
  2709   001234  2850               	incf	(_index+1)^0,w,c
  2710   001236  A4D8               	btfss	status,2,c
  2711   001238  EF20  F009         	goto	u3441
  2712   00123C  EF22  F009         	goto	u3440
  2713   001240                     u3441:
  2714   001240  EFC2  F008         	goto	l294
  2715   001244                     u3440:
  2716   001244                     
  2717                           ;car_black_box.c: 382:             index = 6;
  2718   001244  0E00               	movlw	0
  2719   001246  6E50               	movwf	(_index+1)^0,c
  2720   001248  0E06               	movlw	6
  2721   00124A  6E4F               	movwf	_index^0,c
  2722   00124C  EFC2  F008         	goto	l294
  2723   001250                     l3536:
  2724                           
  2725                           ;car_black_box.c: 385:     if (wait2++ < 100) {
  2726   001250  2A56               	incf	_wait2^0,f,c
  2727   001252  0456               	decf	_wait2^0,w,c
  2728   001254  6E0A               	movwf	??_set_time^0,c
  2729   001256  0E64               	movlw	100
  2730   001258  600A               	cpfslt	??_set_time^0,c
  2731   00125A  EF31  F009         	goto	u3451
  2732   00125E  EF33  F009         	goto	u3450
  2733   001262                     u3451:
  2734   001262  EF3D  F009         	goto	l3540
  2735   001266                     u3450:
  2736   001266                     
  2737                           ;car_black_box.c: 386:         clcd_print(time, (0xC0 + (0)));
  2738   001266  0E97               	movlw	low _time
  2739   001268  6E03               	movwf	clcd_print@data^0,c
  2740   00126A  0E00               	movlw	high _time
  2741   00126C  6E04               	movwf	(clcd_print@data+1)^0,c
  2742   00126E  0EC0               	movlw	192
  2743   001270  6E05               	movwf	clcd_print@addr^0,c
  2744   001272  EC6D  F010         	call	_clcd_print	;wreg free
  2745                           
  2746                           ;car_black_box.c: 387:     } else if (wait2 > 100) {
  2747   001276  EF59  F009         	goto	l3548
  2748   00127A                     l3540:
  2749   00127A  0E64               	movlw	100
  2750   00127C  6456               	cpfsgt	_wait2^0,c
  2751   00127E  EF43  F009         	goto	u3461
  2752   001282  EF45  F009         	goto	u3460
  2753   001286                     u3461:
  2754   001286  EF59  F009         	goto	l3548
  2755   00128A                     u3460:
  2756   00128A                     
  2757                           ;car_black_box.c: 388:         clcd_print("  ", (0xC0 + (index)));
  2758   00128A  0E70               	movlw	low (STR_1+14)
  2759   00128C  6E03               	movwf	clcd_print@data^0,c
  2760   00128E  0E2F               	movlw	high (STR_1+14)
  2761   001290  6E04               	movwf	(clcd_print@data+1)^0,c
  2762   001292  504F               	movf	_index^0,w,c
  2763   001294  0FC0               	addlw	192
  2764   001296  6E05               	movwf	clcd_print@addr^0,c
  2765   001298  EC6D  F010         	call	_clcd_print	;wreg free
  2766   00129C                     
  2767                           ;car_black_box.c: 389:         if (wait2 == 200)
  2768   00129C  0EC8               	movlw	200
  2769   00129E  1856               	xorwf	_wait2^0,w,c
  2770   0012A0  A4D8               	btfss	status,2,c
  2771   0012A2  EF55  F009         	goto	u3471
  2772   0012A6  EF57  F009         	goto	u3470
  2773   0012AA                     u3471:
  2774   0012AA  EF59  F009         	goto	l3548
  2775   0012AE                     u3470:
  2776   0012AE                     
  2777                           ;car_black_box.c: 390:             wait2 = 0;
  2778   0012AE  0E00               	movlw	0
  2779   0012B0  6E56               	movwf	_wait2^0,c
  2780   0012B2                     l3548:
  2781                           
  2782                           ;car_black_box.c: 392:     clcd_putch(wait2+48, (0x80 + (14)));
  2783   0012B2  0E8E               	movlw	142
  2784   0012B4  6E08               	movwf	clcd_putch@addr^0,c
  2785   0012B6  5056               	movf	_wait2^0,w,c
  2786   0012B8  0F30               	addlw	48
  2787   0012BA  ECAD  F012         	call	_clcd_putch
  2788   0012BE                     l286:
  2789   0012BE  0012               	return		;funcret
  2790   0012C0                     __end_of_set_time:
  2791                           	callstack 0
  2792                           
  2793 ;; *************** function _read_switches *****************
  2794 ;; Defined at:
  2795 ;;		line 18 in file "mkp.c"
  2796 ;; Parameters:    Size  Location     Type
  2797 ;;  detection       1    wreg     unsigned char 
  2798 ;; Auto vars:     Size  Location     Type
  2799 ;;  detection       1    0[COMRAM] unsigned char 
  2800 ;;  key             1    1[COMRAM] unsigned char 
  2801 ;; Return value:  Size  Location     Type
  2802 ;;                  1    wreg      unsigned char 
  2803 ;; Registers used:
  2804 ;;		wreg, status,2, status,0, cstack
  2805 ;; Tracked objects:
  2806 ;;		On entry : 0/0
  2807 ;;		On exit  : 0/0
  2808 ;;		Unchanged: 0/0
  2809 ;; Data sizes:     COMRAM   BANK0   BANK1   BANK2   BANK3   BANK4   BANK5
  2810 ;;      Params:         0       0       0       0       0       0       0
  2811 ;;      Locals:         2       0       0       0       0       0       0
  2812 ;;      Temps:          0       0       0       0       0       0       0
  2813 ;;      Totals:         2       0       0       0       0       0       0
  2814 ;;Total ram usage:        2 bytes
  2815 ;; Hardware stack levels used: 1
  2816 ;; Hardware stack levels required when called: 2
  2817 ;; This function calls:
  2818 ;;		_scan_key
  2819 ;; This function is called by:
  2820 ;;		_main
  2821 ;; This function uses a non-reentrant model
  2822 ;;
  2823                           
  2824                           	psect	text4
  2825   002068                     __ptext4:
  2826                           	callstack 0
  2827   002068                     _read_switches:
  2828                           	callstack 28
  2829                           
  2830                           ;incstack = 0
  2831                           ;read_switches@detection stored from wreg
  2832   002068  6E01               	movwf	read_switches@detection^0,c
  2833   00206A                     
  2834                           ;mkp.c: 19:     static unsigned char once = 1;;mkp.c: 20:     unsigned char key;;mkp.c: 
      +                          21:     if (detection == 0) {
  2835   00206A  5001               	movf	read_switches@detection^0,w,c
  2836   00206C  A4D8               	btfss	status,2,c
  2837   00206E  EF3B  F010         	goto	u2601
  2838   002072  EF3D  F010         	goto	u2600
  2839   002076                     u2601:
  2840   002076  EF41  F010         	goto	l3144
  2841   00207A                     u2600:
  2842   00207A                     
  2843                           ;mkp.c: 22:         return scan_key();
  2844   00207A  ECAA  F00D         	call	_scan_key	;wreg free
  2845   00207E  EF6C  F010         	goto	l385
  2846   002082                     l3144:
  2847   002082  0401               	decf	read_switches@detection^0,w,c
  2848   002084  A4D8               	btfss	status,2,c
  2849   002086  EF47  F010         	goto	u2611
  2850   00208A  EF49  F010         	goto	u2610
  2851   00208E                     u2611:
  2852   00208E  EF6C  F010         	goto	l385
  2853   002092                     u2610:
  2854   002092                     
  2855                           ;mkp.c: 24:         key = scan_key();
  2856   002092  ECAA  F00D         	call	_scan_key	;wreg free
  2857   002096  6E02               	movwf	read_switches@key^0,c
  2858   002098                     
  2859                           ;mkp.c: 25:         if ((key != 0xFF) && once) {
  2860   002098  2802               	incf	read_switches@key^0,w,c
  2861   00209A  B4D8               	btfsc	status,2,c
  2862   00209C  EF52  F010         	goto	u2621
  2863   0020A0  EF54  F010         	goto	u2620
  2864   0020A4                     u2621:
  2865   0020A4  EF61  F010         	goto	l3158
  2866   0020A8                     u2620:
  2867   0020A8  505B               	movf	read_switches@once^0,w,c
  2868   0020AA  B4D8               	btfsc	status,2,c
  2869   0020AC  EF5A  F010         	goto	u2631
  2870   0020B0  EF5C  F010         	goto	u2630
  2871   0020B4                     u2631:
  2872   0020B4  EF61  F010         	goto	l3158
  2873   0020B8                     u2630:
  2874   0020B8                     
  2875                           ;mkp.c: 26:             once = 0;
  2876   0020B8  0E00               	movlw	0
  2877   0020BA  6E5B               	movwf	read_switches@once^0,c
  2878                           
  2879                           ;mkp.c: 27:             return key;
  2880   0020BC  5002               	movf	read_switches@key^0,w,c
  2881   0020BE  EF6C  F010         	goto	l385
  2882   0020C2                     l3158:
  2883   0020C2  2802               	incf	read_switches@key^0,w,c
  2884   0020C4  A4D8               	btfss	status,2,c
  2885   0020C6  EF67  F010         	goto	u2641
  2886   0020CA  EF69  F010         	goto	u2640
  2887   0020CE                     u2641:
  2888   0020CE  EF6B  F010         	goto	l3162
  2889   0020D2                     u2640:
  2890   0020D2                     
  2891                           ;mkp.c: 29:             once = 1;
  2892   0020D2  0E01               	movlw	1
  2893   0020D4  6E5B               	movwf	read_switches@once^0,c
  2894   0020D6                     l3162:
  2895                           
  2896                           ;mkp.c: 30:         return 0xFF;
  2897   0020D6  0EFF               	movlw	255
  2898   0020D8                     l385:
  2899   0020D8  0012               	return		;funcret
  2900   0020DA                     __end_of_read_switches:
  2901                           	callstack 0
  2902                           
  2903 ;; *************** function _scan_key *****************
  2904 ;; Defined at:
  2905 ;;		line 34 in file "mkp.c"
  2906 ;; Parameters:    Size  Location     Type
  2907 ;;		None
  2908 ;; Auto vars:     Size  Location     Type
  2909 ;;		None
  2910 ;; Return value:  Size  Location     Type
  2911 ;;                  1    wreg      unsigned char 
  2912 ;; Registers used:
  2913 ;;		wreg
  2914 ;; Tracked objects:
  2915 ;;		On entry : 0/0
  2916 ;;		On exit  : 0/0
  2917 ;;		Unchanged: 0/0
  2918 ;; Data sizes:     COMRAM   BANK0   BANK1   BANK2   BANK3   BANK4   BANK5
  2919 ;;      Params:         0       0       0       0       0       0       0
  2920 ;;      Locals:         0       0       0       0       0       0       0
  2921 ;;      Temps:          0       0       0       0       0       0       0
  2922 ;;      Totals:         0       0       0       0       0       0       0
  2923 ;;Total ram usage:        0 bytes
  2924 ;; Hardware stack levels used: 1
  2925 ;; Hardware stack levels required when called: 1
  2926 ;; This function calls:
  2927 ;;		Nothing
  2928 ;; This function is called by:
  2929 ;;		_read_switches
  2930 ;; This function uses a non-reentrant model
  2931 ;;
  2932                           
  2933                           	psect	text5
  2934   001B54                     __ptext5:
  2935                           	callstack 0
  2936   001B54                     _scan_key:
  2937                           	callstack 28
  2938   001B54                     
  2939                           ;mkp.c: 35:     RB5 = 0;
  2940   001B54  9A81               	bcf	3969,5,c	;volatile
  2941                           
  2942                           ;mkp.c: 36:     RB6 = 1;
  2943   001B56  8C81               	bsf	3969,6,c	;volatile
  2944                           
  2945                           ;mkp.c: 37:     RB7 = 1;
  2946   001B58  8E81               	bsf	3969,7,c	;volatile
  2947                           
  2948                           ;mkp.c: 39:     if (RB1 == 0)
  2949   001B5A  B281               	btfsc	3969,1,c	;volatile
  2950   001B5C  EFB2  F00D         	goto	u2401
  2951   001B60  EFB4  F00D         	goto	u2400
  2952   001B64                     u2401:
  2953   001B64  EFB7  F00D         	goto	l393
  2954   001B68                     u2400:
  2955   001B68                     
  2956                           ;mkp.c: 40:         return 1;
  2957   001B68  0E01               	movlw	1
  2958   001B6A  EF2D  F00E         	goto	l394
  2959   001B6E                     l393:
  2960   001B6E  B481               	btfsc	3969,2,c	;volatile
  2961   001B70  EFBC  F00D         	goto	u2411
  2962   001B74  EFBE  F00D         	goto	u2410
  2963   001B78                     u2411:
  2964   001B78  EFC1  F00D         	goto	l396
  2965   001B7C                     u2410:
  2966   001B7C                     
  2967                           ;mkp.c: 42:         return 4;
  2968   001B7C  0E04               	movlw	4
  2969   001B7E  EF2D  F00E         	goto	l394
  2970   001B82                     l396:
  2971   001B82  B681               	btfsc	3969,3,c	;volatile
  2972   001B84  EFC6  F00D         	goto	u2421
  2973   001B88  EFC8  F00D         	goto	u2420
  2974   001B8C                     u2421:
  2975   001B8C  EFCB  F00D         	goto	l398
  2976   001B90                     u2420:
  2977   001B90                     
  2978                           ;mkp.c: 44:         return 7;
  2979   001B90  0E07               	movlw	7
  2980   001B92  EF2D  F00E         	goto	l394
  2981   001B96                     l398:
  2982   001B96  B881               	btfsc	3969,4,c	;volatile
  2983   001B98  EFD0  F00D         	goto	u2431
  2984   001B9C  EFD2  F00D         	goto	u2430
  2985   001BA0                     u2431:
  2986   001BA0  EFD5  F00D         	goto	l395
  2987   001BA4                     u2430:
  2988   001BA4                     
  2989                           ;mkp.c: 46:         return 10;
  2990   001BA4  0E0A               	movlw	10
  2991   001BA6  EF2D  F00E         	goto	l394
  2992   001BAA                     l395:
  2993                           
  2994                           ;mkp.c: 48:     RB5 = 1;
  2995   001BAA  8A81               	bsf	3969,5,c	;volatile
  2996                           
  2997                           ;mkp.c: 49:     RB6 = 0;
  2998   001BAC  9C81               	bcf	3969,6,c	;volatile
  2999                           
  3000                           ;mkp.c: 50:     RB7 = 1;
  3001   001BAE  8E81               	bsf	3969,7,c	;volatile
  3002                           
  3003                           ;mkp.c: 52:     if (RB1 == 0)
  3004   001BB0  B281               	btfsc	3969,1,c	;volatile
  3005   001BB2  EFDD  F00D         	goto	u2441
  3006   001BB6  EFDF  F00D         	goto	u2440
  3007   001BBA                     u2441:
  3008   001BBA  EFE2  F00D         	goto	l401
  3009   001BBE                     u2440:
  3010   001BBE                     
  3011                           ;mkp.c: 53:         return 2;
  3012   001BBE  0E02               	movlw	2
  3013   001BC0  EF2D  F00E         	goto	l394
  3014   001BC4                     l401:
  3015   001BC4  B481               	btfsc	3969,2,c	;volatile
  3016   001BC6  EFE7  F00D         	goto	u2451
  3017   001BCA  EFE9  F00D         	goto	u2450
  3018   001BCE                     u2451:
  3019   001BCE  EFEC  F00D         	goto	l403
  3020   001BD2                     u2450:
  3021   001BD2                     
  3022                           ;mkp.c: 55:         return 5;
  3023   001BD2  0E05               	movlw	5
  3024   001BD4  EF2D  F00E         	goto	l394
  3025   001BD8                     l403:
  3026   001BD8  B681               	btfsc	3969,3,c	;volatile
  3027   001BDA  EFF1  F00D         	goto	u2461
  3028   001BDE  EFF3  F00D         	goto	u2460
  3029   001BE2                     u2461:
  3030   001BE2  EFF6  F00D         	goto	l405
  3031   001BE6                     u2460:
  3032   001BE6                     
  3033                           ;mkp.c: 57:         return 8;
  3034   001BE6  0E08               	movlw	8
  3035   001BE8  EF2D  F00E         	goto	l394
  3036   001BEC                     l405:
  3037   001BEC  B881               	btfsc	3969,4,c	;volatile
  3038   001BEE  EFFB  F00D         	goto	u2471
  3039   001BF2  EFFD  F00D         	goto	u2470
  3040   001BF6                     u2471:
  3041   001BF6  EF00  F00E         	goto	l402
  3042   001BFA                     u2470:
  3043   001BFA                     
  3044                           ;mkp.c: 59:         return 11;
  3045   001BFA  0E0B               	movlw	11
  3046   001BFC  EF2D  F00E         	goto	l394
  3047   001C00                     l402:
  3048                           
  3049                           ;mkp.c: 61:     RB5 = 1;
  3050   001C00  8A81               	bsf	3969,5,c	;volatile
  3051                           
  3052                           ;mkp.c: 62:     RB6 = 1;
  3053   001C02  8C81               	bsf	3969,6,c	;volatile
  3054                           
  3055                           ;mkp.c: 63:     RB7 = 0;
  3056   001C04  9E81               	bcf	3969,7,c	;volatile
  3057                           
  3058                           ;mkp.c: 64:     RB7 = 0;
  3059   001C06  9E81               	bcf	3969,7,c	;volatile
  3060                           
  3061                           ;mkp.c: 66:     if (RB1 == 0)
  3062   001C08  B281               	btfsc	3969,1,c	;volatile
  3063   001C0A  EF09  F00E         	goto	u2481
  3064   001C0E  EF0B  F00E         	goto	u2480
  3065   001C12                     u2481:
  3066   001C12  EF0E  F00E         	goto	l408
  3067   001C16                     u2480:
  3068   001C16                     
  3069                           ;mkp.c: 67:         return 3;
  3070   001C16  0E03               	movlw	3
  3071   001C18  EF2D  F00E         	goto	l394
  3072   001C1C                     l408:
  3073   001C1C  B481               	btfsc	3969,2,c	;volatile
  3074   001C1E  EF13  F00E         	goto	u2491
  3075   001C22  EF15  F00E         	goto	u2490
  3076   001C26                     u2491:
  3077   001C26  EF18  F00E         	goto	l410
  3078   001C2A                     u2490:
  3079   001C2A                     
  3080                           ;mkp.c: 69:         return 6;
  3081   001C2A  0E06               	movlw	6
  3082   001C2C  EF2D  F00E         	goto	l394
  3083   001C30                     l410:
  3084   001C30  B681               	btfsc	3969,3,c	;volatile
  3085   001C32  EF1D  F00E         	goto	u2501
  3086   001C36  EF1F  F00E         	goto	u2500
  3087   001C3A                     u2501:
  3088   001C3A  EF22  F00E         	goto	l412
  3089   001C3E                     u2500:
  3090   001C3E                     
  3091                           ;mkp.c: 71:         return 9;
  3092   001C3E  0E09               	movlw	9
  3093   001C40  EF2D  F00E         	goto	l394
  3094   001C44                     l412:
  3095   001C44  B881               	btfsc	3969,4,c	;volatile
  3096   001C46  EF27  F00E         	goto	u2511
  3097   001C4A  EF29  F00E         	goto	u2510
  3098   001C4E                     u2511:
  3099   001C4E  EF2C  F00E         	goto	l411
  3100   001C52                     u2510:
  3101   001C52                     
  3102                           ;mkp.c: 73:         return 12;
  3103   001C52  0E0C               	movlw	12
  3104   001C54  EF2D  F00E         	goto	l394
  3105   001C58                     l411:
  3106   001C58                     
  3107                           ;mkp.c: 75:     return 0xFF;
  3108   001C58  0EFF               	movlw	255
  3109   001C5A                     l394:
  3110   001C5A  0012               	return		;funcret
  3111   001C5C                     __end_of_scan_key:
  3112                           	callstack 0
  3113                           
  3114 ;; *************** function _read_password *****************
  3115 ;; Defined at:
  3116 ;;		line 118 in file "car_black_box.c"
  3117 ;; Parameters:    Size  Location     Type
  3118 ;;  key             1    wreg     unsigned char 
  3119 ;; Auto vars:     Size  Location     Type
  3120 ;;  key             1   11[COMRAM] unsigned char 
  3121 ;; Return value:  Size  Location     Type
  3122 ;;                  1    wreg      void 
  3123 ;; Registers used:
  3124 ;;		wreg, fsr1l, fsr1h, fsr2l, fsr2h, status,2, status,0, tblptrl, tblptrh, tblptru, cstack
  3125 ;; Tracked objects:
  3126 ;;		On entry : 0/0
  3127 ;;		On exit  : 0/0
  3128 ;;		Unchanged: 0/0
  3129 ;; Data sizes:     COMRAM   BANK0   BANK1   BANK2   BANK3   BANK4   BANK5
  3130 ;;      Params:         0       0       0       0       0       0       0
  3131 ;;      Locals:         1       0       0       0       0       0       0
  3132 ;;      Temps:          2       0       0       0       0       0       0
  3133 ;;      Totals:         3       0       0       0       0       0       0
  3134 ;;Total ram usage:        3 bytes
  3135 ;; Hardware stack levels used: 1
  3136 ;; Hardware stack levels required when called: 3
  3137 ;; This function calls:
  3138 ;;		___lwdiv
  3139 ;;		___lwmod
  3140 ;;		_clcd_print
  3141 ;;		_clcd_putch
  3142 ;;		_validate_password
  3143 ;; This function is called by:
  3144 ;;		_main
  3145 ;; This function uses a non-reentrant model
  3146 ;;
  3147                           
  3148                           	psect	text6
  3149   0012C0                     __ptext6:
  3150                           	callstack 0
  3151   0012C0                     _read_password:
  3152                           	callstack 27
  3153                           
  3154                           ;incstack = 0
  3155                           ;read_password@key stored from wreg
  3156   0012C0  6E0C               	movwf	read_password@key^0,c
  3157   0012C2                     
  3158                           ;car_black_box.c: 119:     clcd_print(" Enter password ", (0x80 + (0)));
  3159   0012C2  0EFC               	movlw	low STR_20
  3160   0012C4  6E03               	movwf	clcd_print@data^0,c
  3161   0012C6  0E2E               	movlw	high STR_20
  3162   0012C8  6E04               	movwf	(clcd_print@data+1)^0,c
  3163   0012CA  0E80               	movlw	128
  3164   0012CC  6E05               	movwf	clcd_print@addr^0,c
  3165   0012CE  EC6D  F010         	call	_clcd_print	;wreg free
  3166   0012D2                     
  3167                           ;car_black_box.c: 120:     if (key == 11) {
  3168   0012D2  0E0B               	movlw	11
  3169   0012D4  180C               	xorwf	read_password@key^0,w,c
  3170   0012D6  A4D8               	btfss	status,2,c
  3171   0012D8  EF70  F009         	goto	u2681
  3172   0012DC  EF72  F009         	goto	u2680
  3173   0012E0                     u2681:
  3174   0012E0  EF88  F009         	goto	l3190
  3175   0012E4                     u2680:
  3176   0012E4                     
  3177                           ;car_black_box.c: 121:         enter_password[index] = '1';
  3178   0012E4  0ECA               	movlw	low _enter_password
  3179   0012E6  244F               	addwf	_index^0,w,c
  3180   0012E8  6ED9               	movwf	fsr2l,c
  3181   0012EA  0E00               	movlw	high _enter_password
  3182   0012EC  2050               	addwfc	(_index+1)^0,w,c
  3183   0012EE  6EDA               	movwf	fsr2h,c
  3184   0012F0  0E31               	movlw	49
  3185   0012F2  6EDF               	movwf	indf2,c
  3186   0012F4                     
  3187                           ;car_black_box.c: 122:         clcd_putch('*', (0xC0 + (index + 3)));
  3188   0012F4  504F               	movf	_index^0,w,c
  3189   0012F6  0FC3               	addlw	195
  3190   0012F8  6E08               	movwf	clcd_putch@addr^0,c
  3191   0012FA  0E2A               	movlw	42
  3192   0012FC  ECAD  F012         	call	_clcd_putch
  3193   001300                     l3186:
  3194                           
  3195                           ;car_black_box.c: 123:         sec = 0;
  3196   001300  0E00               	movlw	0
  3197   001302  6E54               	movwf	(_sec+1)^0,c
  3198   001304  0E00               	movlw	0
  3199   001306  6E53               	movwf	_sec^0,c
  3200   001308                     
  3201                           ;car_black_box.c: 124:         index++;
  3202   001308  4A4F               	infsnz	_index^0,f,c
  3203   00130A  2A50               	incf	(_index+1)^0,f,c
  3204                           
  3205                           ;car_black_box.c: 125:     } else if (key == 12) {
  3206   00130C  EFA1  F009         	goto	l3200
  3207   001310                     l3190:
  3208   001310  0E0C               	movlw	12
  3209   001312  180C               	xorwf	read_password@key^0,w,c
  3210   001314  A4D8               	btfss	status,2,c
  3211   001316  EF8F  F009         	goto	u2691
  3212   00131A  EF91  F009         	goto	u2690
  3213   00131E                     u2691:
  3214   00131E  EFA1  F009         	goto	l3200
  3215   001322                     u2690:
  3216   001322                     
  3217                           ;car_black_box.c: 126:         enter_password[index] = '0';
  3218   001322  0ECA               	movlw	low _enter_password
  3219   001324  244F               	addwf	_index^0,w,c
  3220   001326  6ED9               	movwf	fsr2l,c
  3221   001328  0E00               	movlw	high _enter_password
  3222   00132A  2050               	addwfc	(_index+1)^0,w,c
  3223   00132C  6EDA               	movwf	fsr2h,c
  3224   00132E  0E30               	movlw	48
  3225   001330  6EDF               	movwf	indf2,c
  3226   001332                     
  3227                           ;car_black_box.c: 127:         clcd_putch('*', (0xC0 + (index + 3)));
  3228   001332  504F               	movf	_index^0,w,c
  3229   001334  0FC3               	addlw	195
  3230   001336  6E08               	movwf	clcd_putch@addr^0,c
  3231   001338  0E2A               	movlw	42
  3232   00133A  ECAD  F012         	call	_clcd_putch
  3233   00133E  EF80  F009         	goto	l3186
  3234   001342                     l3200:
  3235                           
  3236                           ;car_black_box.c: 131:     if (sec == 5) {
  3237   001342  0E05               	movlw	5
  3238   001344  1853               	xorwf	_sec^0,w,c
  3239   001346  1054               	iorwf	(_sec+1)^0,w,c
  3240   001348  A4D8               	btfss	status,2,c
  3241   00134A  EFA9  F009         	goto	u2701
  3242   00134E  EFAB  F009         	goto	u2700
  3243   001352                     u2701:
  3244   001352  EFB5  F009         	goto	l3206
  3245   001356                     u2700:
  3246   001356                     
  3247                           ;car_black_box.c: 132:         enter_flag = 0;
  3248   001356  0E00               	movlw	0
  3249   001358  6E5A               	movwf	_enter_flag^0,c
  3250                           
  3251                           ;car_black_box.c: 133:         index = 0;
  3252   00135A  0E00               	movlw	0
  3253   00135C  6E50               	movwf	(_index+1)^0,c
  3254   00135E  0E00               	movlw	0
  3255   001360  6E4F               	movwf	_index^0,c
  3256                           
  3257                           ;car_black_box.c: 134:         attempt = '3';
  3258   001362  0E33               	movlw	51
  3259   001364  6E5C               	movwf	_attempt^0,c
  3260   001366  EFCE  F00A         	goto	l211
  3261   00136A                     l3206:
  3262                           
  3263                           ;car_black_box.c: 137:     if (wait++ < 800) {
  3264   00136A  504D               	movf	_wait^0,w,c
  3265   00136C  6E0A               	movwf	??_read_password^0,c
  3266   00136E  504E               	movf	(_wait+1)^0,w,c
  3267   001370  6E0B               	movwf	(??_read_password+1)^0,c
  3268   001372  4A4D               	infsnz	_wait^0,f,c
  3269   001374  2A4E               	incf	(_wait+1)^0,f,c
  3270   001376  0E20               	movlw	32
  3271   001378  5C0A               	subwf	??_read_password^0,w,c
  3272   00137A  0E03               	movlw	3
  3273   00137C  580B               	subwfb	(??_read_password+1)^0,w,c
  3274   00137E  B0D8               	btfsc	status,0,c
  3275   001380  EFC4  F009         	goto	u2711
  3276   001384  EFC6  F009         	goto	u2710
  3277   001388                     u2711:
  3278   001388  EFCE  F009         	goto	l3210
  3279   00138C                     u2710:
  3280   00138C                     
  3281                           ;car_black_box.c: 138:         clcd_putch('_', (0xC0 + (index + 3)));
  3282   00138C  504F               	movf	_index^0,w,c
  3283   00138E  0FC3               	addlw	195
  3284   001390  6E08               	movwf	clcd_putch@addr^0,c
  3285   001392  0E5F               	movlw	95
  3286   001394  ECAD  F012         	call	_clcd_putch
  3287                           
  3288                           ;car_black_box.c: 139:     } else if (wait > 800) {
  3289   001398  EFEF  F009         	goto	l3218
  3290   00139C                     l3210:
  3291   00139C  0E21               	movlw	33
  3292   00139E  5C4D               	subwf	_wait^0,w,c
  3293   0013A0  0E03               	movlw	3
  3294   0013A2  584E               	subwfb	(_wait+1)^0,w,c
  3295   0013A4  A0D8               	btfss	status,0,c
  3296   0013A6  EFD7  F009         	goto	u2721
  3297   0013AA  EFD9  F009         	goto	u2720
  3298   0013AE                     u2721:
  3299   0013AE  EFEF  F009         	goto	l3218
  3300   0013B2                     u2720:
  3301   0013B2                     
  3302                           ;car_black_box.c: 140:         clcd_putch(' ', (0xC0 + (index + 3)));
  3303   0013B2  504F               	movf	_index^0,w,c
  3304   0013B4  0FC3               	addlw	195
  3305   0013B6  6E08               	movwf	clcd_putch@addr^0,c
  3306   0013B8  0E20               	movlw	32
  3307   0013BA  ECAD  F012         	call	_clcd_putch
  3308   0013BE                     
  3309                           ;car_black_box.c: 141:         if (wait == 1600)
  3310   0013BE  0E40               	movlw	64
  3311   0013C0  184D               	xorwf	_wait^0,w,c
  3312   0013C2  E107               	bnz	u2731
  3313   0013C4  0E06               	movlw	6
  3314   0013C6  184E               	xorwf	(_wait+1)^0,w,c
  3315   0013C8  A4D8               	btfss	status,2,c
  3316   0013CA  EFE9  F009         	goto	u2731
  3317   0013CE  EFEB  F009         	goto	u2730
  3318   0013D2                     u2731:
  3319   0013D2  EFEF  F009         	goto	l3218
  3320   0013D6                     u2730:
  3321   0013D6                     
  3322                           ;car_black_box.c: 142:             wait = 0;
  3323   0013D6  0E00               	movlw	0
  3324   0013D8  6E4E               	movwf	(_wait+1)^0,c
  3325   0013DA  0E00               	movlw	0
  3326   0013DC  6E4D               	movwf	_wait^0,c
  3327   0013DE                     l3218:
  3328                           
  3329                           ;car_black_box.c: 144:     if (index == 4) {
  3330   0013DE  0E04               	movlw	4
  3331   0013E0  184F               	xorwf	_index^0,w,c
  3332   0013E2  1050               	iorwf	(_index+1)^0,w,c
  3333   0013E4  A4D8               	btfss	status,2,c
  3334   0013E6  EFF7  F009         	goto	u2741
  3335   0013EA  EFF9  F009         	goto	u2740
  3336   0013EE                     u2741:
  3337   0013EE  EFCE  F00A         	goto	l211
  3338   0013F2                     u2740:
  3339   0013F2                     
  3340                           ;car_black_box.c: 145:         _delay((unsigned long)((300)*(20000000/4000.0)));
  3341   0013F2  0E08               	movlw	8
  3342   0013F4  6E0B               	movwf	(??_read_password+1)^0,c
  3343   0013F6  0E9D               	movlw	157
  3344   0013F8  6E0A               	movwf	??_read_password^0,c
  3345   0013FA  0E06               	movlw	6
  3346   0013FC                     u4277:
  3347   0013FC  2EE8               	decfsz	wreg,f,c
  3348   0013FE  D7FE               	bra	u4277
  3349   001400  2E0A               	decfsz	??_read_password^0,f,c
  3350   001402  D7FC               	bra	u4277
  3351   001404  2E0B               	decfsz	(??_read_password+1)^0,f,c
  3352   001406  D7FA               	bra	u4277
  3353   001408                     
  3354                           ;car_black_box.c: 146:         attempt--;
  3355   001408  065C               	decf	_attempt^0,f,c
  3356   00140A                     
  3357                           ;car_black_box.c: 147:         index = 0;
  3358   00140A  0E00               	movlw	0
  3359   00140C  6E50               	movwf	(_index+1)^0,c
  3360   00140E  0E00               	movlw	0
  3361   001410  6E4F               	movwf	_index^0,c
  3362   001412                     
  3363                           ;car_black_box.c: 148:         if (validate_password(original_password, enter_password) 
      +                          != 0) {
  3364   001412  0EA0               	movlw	low _original_password
  3365   001414  6E01               	movwf	validate_password@original_password^0,c
  3366   001416  0E00               	movlw	high _original_password
  3367   001418  6E02               	movwf	(validate_password@original_password+1)^0,c
  3368   00141A  0ECA               	movlw	low _enter_password
  3369   00141C  6E03               	movwf	validate_password@enter_password^0,c
  3370   00141E  0E00               	movlw	high _enter_password
  3371   001420  6E04               	movwf	(validate_password@enter_password+1)^0,c
  3372   001422  EC6A  F00F         	call	_validate_password	;wreg free
  3373   001426  5001               	movf	?_validate_password^0,w,c
  3374   001428  1002               	iorwf	(?_validate_password+1)^0,w,c
  3375   00142A  B4D8               	btfsc	status,2,c
  3376   00142C  EF1A  F00A         	goto	u2751
  3377   001430  EF1C  F00A         	goto	u2750
  3378   001434                     u2751:
  3379   001434  EF53  F00A         	goto	l3240
  3380   001438                     u2750:
  3381   001438                     
  3382                           ;car_black_box.c: 149:             _delay((unsigned long)((500)*(20000000/4000.0)));
  3383   001438  0E0D               	movlw	13
  3384   00143A  6E0B               	movwf	(??_read_password+1)^0,c
  3385   00143C  0EAF               	movlw	175
  3386   00143E  6E0A               	movwf	??_read_password^0,c
  3387   001440  0EB6               	movlw	182
  3388   001442                     u4287:
  3389   001442  2EE8               	decfsz	wreg,f,c
  3390   001444  D7FE               	bra	u4287
  3391   001446  2E0A               	decfsz	??_read_password^0,f,c
  3392   001448  D7FC               	bra	u4287
  3393   00144A  2E0B               	decfsz	(??_read_password+1)^0,f,c
  3394   00144C  D7FA               	bra	u4287
  3395   00144E  D000               	nop2	
  3396   001450                     
  3397                           ;car_black_box.c: 150:             clcd_print(" Wrong Password", (0x80 + (0)));
  3398   001450  0EA5               	movlw	low STR_21
  3399   001452  6E03               	movwf	clcd_print@data^0,c
  3400   001454  0E2F               	movlw	high STR_21
  3401   001456  6E04               	movwf	(clcd_print@data+1)^0,c
  3402   001458  0E80               	movlw	128
  3403   00145A  6E05               	movwf	clcd_print@addr^0,c
  3404   00145C  EC6D  F010         	call	_clcd_print	;wreg free
  3405   001460                     
  3406                           ;car_black_box.c: 151:             clcd_putch(attempt, (0xC0 + (0)));
  3407   001460  0EC0               	movlw	192
  3408   001462  6E08               	movwf	clcd_putch@addr^0,c
  3409   001464  505C               	movf	_attempt^0,w,c
  3410   001466  ECAD  F012         	call	_clcd_putch
  3411   00146A                     
  3412                           ;car_black_box.c: 152:             clcd_print("-Attempt Remain", (0xC0 + (1)));
  3413   00146A  0EB5               	movlw	low STR_22
  3414   00146C  6E03               	movwf	clcd_print@data^0,c
  3415   00146E  0E2F               	movlw	high STR_22
  3416   001470  6E04               	movwf	(clcd_print@data+1)^0,c
  3417   001472  0EC1               	movlw	193
  3418   001474  6E05               	movwf	clcd_print@addr^0,c
  3419   001476  EC6D  F010         	call	_clcd_print	;wreg free
  3420   00147A                     
  3421                           ;car_black_box.c: 153:             _delay((unsigned long)((500)*(20000000/4000.0)));
  3422   00147A  0E0D               	movlw	13
  3423   00147C  6E0B               	movwf	(??_read_password+1)^0,c
  3424   00147E  0EAF               	movlw	175
  3425   001480  6E0A               	movwf	??_read_password^0,c
  3426   001482  0EB6               	movlw	182
  3427   001484                     u4297:
  3428   001484  2EE8               	decfsz	wreg,f,c
  3429   001486  D7FE               	bra	u4297
  3430   001488  2E0A               	decfsz	??_read_password^0,f,c
  3431   00148A  D7FC               	bra	u4297
  3432   00148C  2E0B               	decfsz	(??_read_password+1)^0,f,c
  3433   00148E  D7FA               	bra	u4297
  3434   001490  D000               	nop2	
  3435   001492                     
  3436                           ;car_black_box.c: 154:             clcd_print("                ", (0xC0 + (0)));
  3437   001492  0E62               	movlw	low STR_1
  3438   001494  6E03               	movwf	clcd_print@data^0,c
  3439   001496  0E2F               	movlw	high STR_1
  3440   001498  6E04               	movwf	(clcd_print@data+1)^0,c
  3441   00149A  0EC0               	movlw	192
  3442   00149C  6E05               	movwf	clcd_print@addr^0,c
  3443   00149E  EC6D  F010         	call	_clcd_print	;wreg free
  3444                           
  3445                           ;car_black_box.c: 155:         } else {
  3446   0014A2  EF79  F00A         	goto	l3252
  3447   0014A6                     l3240:
  3448                           
  3449                           ;car_black_box.c: 156:             index = 0;
  3450   0014A6  0E00               	movlw	0
  3451   0014A8  6E50               	movwf	(_index+1)^0,c
  3452   0014AA  0E00               	movlw	0
  3453   0014AC  6E4F               	movwf	_index^0,c
  3454                           
  3455                           ;car_black_box.c: 157:             attempt = '3';
  3456   0014AE  0E33               	movlw	51
  3457   0014B0  6E5C               	movwf	_attempt^0,c
  3458   0014B2                     
  3459                           ;car_black_box.c: 158:             clcd_print("Correct Password", (0x80 + (0)));
  3460   0014B2  0E51               	movlw	low STR_24
  3461   0014B4  6E03               	movwf	clcd_print@data^0,c
  3462   0014B6  0E2F               	movlw	high STR_24
  3463   0014B8  6E04               	movwf	(clcd_print@data+1)^0,c
  3464   0014BA  0E80               	movlw	128
  3465   0014BC  6E05               	movwf	clcd_print@addr^0,c
  3466   0014BE  EC6D  F010         	call	_clcd_print	;wreg free
  3467   0014C2                     
  3468                           ;car_black_box.c: 159:             clcd_print("   Menu Page    ", (0xC0 + (0)));
  3469   0014C2  0E85               	movlw	low STR_25
  3470   0014C4  6E03               	movwf	clcd_print@data^0,c
  3471   0014C6  0E2E               	movlw	high STR_25
  3472   0014C8  6E04               	movwf	(clcd_print@data+1)^0,c
  3473   0014CA  0EC0               	movlw	192
  3474   0014CC  6E05               	movwf	clcd_print@addr^0,c
  3475   0014CE  EC6D  F010         	call	_clcd_print	;wreg free
  3476   0014D2                     
  3477                           ;car_black_box.c: 160:             _delay((unsigned long)((700)*(20000000/4000.0)));
  3478   0014D2  0E12               	movlw	18
  3479   0014D4  6E0B               	movwf	(??_read_password+1)^0,c
  3480   0014D6  0EC2               	movlw	194
  3481   0014D8  6E0A               	movwf	??_read_password^0,c
  3482   0014DA  0E66               	movlw	102
  3483   0014DC                     u4307:
  3484   0014DC  2EE8               	decfsz	wreg,f,c
  3485   0014DE  D7FE               	bra	u4307
  3486   0014E0  2E0A               	decfsz	??_read_password^0,f,c
  3487   0014E2  D7FC               	bra	u4307
  3488   0014E4  2E0B               	decfsz	(??_read_password+1)^0,f,c
  3489   0014E6  D7FA               	bra	u4307
  3490   0014E8  D000               	nop2	
  3491   0014EA                     
  3492                           ;car_black_box.c: 161:             enter_flag = 2;
  3493   0014EA  0E02               	movlw	2
  3494   0014EC  6E5A               	movwf	_enter_flag^0,c
  3495   0014EE  EFCE  F00A         	goto	l211
  3496   0014F2                     l3252:
  3497                           
  3498                           ;car_black_box.c: 164:         if (attempt == '0') {
  3499   0014F2  0E30               	movlw	48
  3500   0014F4  185C               	xorwf	_attempt^0,w,c
  3501   0014F6  A4D8               	btfss	status,2,c
  3502   0014F8  EF80  F00A         	goto	u2761
  3503   0014FC  EF82  F00A         	goto	u2760
  3504   001500                     u2761:
  3505   001500  EFCE  F00A         	goto	l211
  3506   001504                     u2760:
  3507   001504                     
  3508                           ;car_black_box.c: 165:             clcd_print("  Attempt Over  ", (0x80 + (0)));
  3509   001504  0EB8               	movlw	low STR_26
  3510   001506  6E03               	movwf	clcd_print@data^0,c
  3511   001508  0E2E               	movlw	high STR_26
  3512   00150A  6E04               	movwf	(clcd_print@data+1)^0,c
  3513   00150C  0E80               	movlw	128
  3514   00150E  6E05               	movwf	clcd_print@addr^0,c
  3515   001510  EC6D  F010         	call	_clcd_print	;wreg free
  3516                           
  3517                           ;car_black_box.c: 166:             clcd_print(" Wait For    Sec", (0xC0 + (0)));
  3518   001514  0E1E               	movlw	low STR_27
  3519   001516  6E03               	movwf	clcd_print@data^0,c
  3520   001518  0E2F               	movlw	high STR_27
  3521   00151A  6E04               	movwf	(clcd_print@data+1)^0,c
  3522   00151C  0EC0               	movlw	192
  3523   00151E  6E05               	movwf	clcd_print@addr^0,c
  3524   001520  EC6D  F010         	call	_clcd_print	;wreg free
  3525   001524                     
  3526                           ;car_black_box.c: 167:             sec = 0;
  3527   001524  0E00               	movlw	0
  3528   001526  6E54               	movwf	(_sec+1)^0,c
  3529   001528  0E00               	movlw	0
  3530   00152A  6E53               	movwf	_sec^0,c
  3531                           
  3532                           ;car_black_box.c: 168:             while (sec != 60) {
  3533   00152C  EFC0  F00A         	goto	l3260
  3534   001530                     l3258:
  3535                           
  3536                           ;car_black_box.c: 169:                 clcd_putch((59 - sec) / 10 + 48, (0xC0 + (10)));
  3537   001530  0ECA               	movlw	202
  3538   001532  6E08               	movwf	clcd_putch@addr^0,c
  3539   001534  5053               	movf	_sec^0,w,c
  3540   001536  083B               	sublw	59
  3541   001538  6E01               	movwf	___lwdiv@dividend^0,c
  3542   00153A  5054               	movf	(_sec+1)^0,w,c
  3543   00153C  A0D8               	btfss	status,0,c
  3544   00153E  2AE8               	incf	wreg,f,c
  3545   001540  0800               	sublw	0
  3546   001542  6E02               	movwf	(___lwdiv@dividend+1)^0,c
  3547   001544  0E00               	movlw	0
  3548   001546  6E04               	movwf	(___lwdiv@divisor+1)^0,c
  3549   001548  0E0A               	movlw	10
  3550   00154A  6E03               	movwf	___lwdiv@divisor^0,c
  3551   00154C  ECFA  F00F         	call	___lwdiv	;wreg free
  3552   001550  5001               	movf	?___lwdiv^0,w,c
  3553   001552  0F30               	addlw	48
  3554   001554  ECAD  F012         	call	_clcd_putch
  3555                           
  3556                           ;car_black_box.c: 170:                 clcd_putch(((59 - sec) % 10) + 48, (0xC0 + (11)))
      +                          ;
  3557   001558  0ECB               	movlw	203
  3558   00155A  6E08               	movwf	clcd_putch@addr^0,c
  3559   00155C  5053               	movf	_sec^0,w,c
  3560   00155E  083B               	sublw	59
  3561   001560  6E01               	movwf	___lwmod@dividend^0,c
  3562   001562  5054               	movf	(_sec+1)^0,w,c
  3563   001564  A0D8               	btfss	status,0,c
  3564   001566  2AE8               	incf	wreg,f,c
  3565   001568  0800               	sublw	0
  3566   00156A  6E02               	movwf	(___lwmod@dividend+1)^0,c
  3567   00156C  0E00               	movlw	0
  3568   00156E  6E04               	movwf	(___lwmod@divisor+1)^0,c
  3569   001570  0E0A               	movlw	10
  3570   001572  6E03               	movwf	___lwmod@divisor^0,c
  3571   001574  ECA3  F010         	call	___lwmod	;wreg free
  3572   001578  5001               	movf	?___lwmod^0,w,c
  3573   00157A  0F30               	addlw	48
  3574   00157C  ECAD  F012         	call	_clcd_putch
  3575   001580                     l3260:
  3576                           
  3577                           ;car_black_box.c: 168:             while (sec != 60) {
  3578   001580  0E3C               	movlw	60
  3579   001582  1853               	xorwf	_sec^0,w,c
  3580   001584  1054               	iorwf	(_sec+1)^0,w,c
  3581   001586  A4D8               	btfss	status,2,c
  3582   001588  EFC8  F00A         	goto	u2771
  3583   00158C  EFCA  F00A         	goto	u2770
  3584   001590                     u2771:
  3585   001590  EF98  F00A         	goto	l3258
  3586   001594                     u2770:
  3587   001594                     
  3588                           ;car_black_box.c: 172:             enter_flag = 0;
  3589   001594  0E00               	movlw	0
  3590   001596  6E5A               	movwf	_enter_flag^0,c
  3591                           
  3592                           ;car_black_box.c: 173:             attempt = '3';
  3593   001598  0E33               	movlw	51
  3594   00159A  6E5C               	movwf	_attempt^0,c
  3595   00159C                     l211:
  3596   00159C  0012               	return		;funcret
  3597   00159E                     __end_of_read_password:
  3598                           	callstack 0
  3599                           
  3600 ;; *************** function _read_adc *****************
  3601 ;; Defined at:
  3602 ;;		line 30 in file "adc.c"
  3603 ;; Parameters:    Size  Location     Type
  3604 ;;  channel         1    wreg     unsigned char 
  3605 ;; Auto vars:     Size  Location     Type
  3606 ;;  channel         1    7[COMRAM] unsigned char 
  3607 ;; Return value:  Size  Location     Type
  3608 ;;                  2    0[COMRAM] unsigned short 
  3609 ;; Registers used:
  3610 ;;		wreg, status,2, status,0
  3611 ;; Tracked objects:
  3612 ;;		On entry : 0/0
  3613 ;;		On exit  : 0/0
  3614 ;;		Unchanged: 0/0
  3615 ;; Data sizes:     COMRAM   BANK0   BANK1   BANK2   BANK3   BANK4   BANK5
  3616 ;;      Params:         2       0       0       0       0       0       0
  3617 ;;      Locals:         1       0       0       0       0       0       0
  3618 ;;      Temps:          5       0       0       0       0       0       0
  3619 ;;      Totals:         8       0       0       0       0       0       0
  3620 ;;Total ram usage:        8 bytes
  3621 ;; Hardware stack levels used: 1
  3622 ;; Hardware stack levels required when called: 1
  3623 ;; This function calls:
  3624 ;;		Nothing
  3625 ;; This function is called by:
  3626 ;;		_main
  3627 ;; This function uses a non-reentrant model
  3628 ;;
  3629                           
  3630                           	psect	text7
  3631   0022C0                     __ptext7:
  3632                           	callstack 0
  3633   0022C0                     _read_adc:
  3634                           	callstack 29
  3635                           
  3636                           ;incstack = 0
  3637                           ;read_adc@channel stored from wreg
  3638   0022C0  6E08               	movwf	read_adc@channel^0,c
  3639   0022C2                     
  3640                           ;adc.c: 30: unsigned short read_adc(unsigned char channel);adc.c: 31: {;adc.c: 32:     A
      +                          DCON0 = (ADCON0 & 0XC3) | (channel << 2);
  3641   0022C2  C008  F003         	movff	read_adc@channel,??_read_adc
  3642   0022C6  90D8               	bcf	status,0,c
  3643   0022C8  3603               	rlcf	??_read_adc^0,f,c
  3644   0022CA  90D8               	bcf	status,0,c
  3645   0022CC  3603               	rlcf	??_read_adc^0,f,c
  3646   0022CE  50C2               	movf	194,w,c	;volatile
  3647   0022D0  0BC3               	andlw	195
  3648   0022D2  1003               	iorwf	??_read_adc^0,w,c
  3649   0022D4  6EC2               	movwf	194,c	;volatile
  3650   0022D6                     
  3651                           ;adc.c: 33:     GO = 1;
  3652   0022D6  82C2               	bsf	4034,1,c	;volatile
  3653   0022D8                     l491:
  3654   0022D8  B2C2               	btfsc	4034,1,c	;volatile
  3655   0022DA  EF71  F011         	goto	u2581
  3656   0022DE  EF73  F011         	goto	u2580
  3657   0022E2                     u2581:
  3658   0022E2  EF6C  F011         	goto	l491
  3659   0022E6                     u2580:
  3660   0022E6                     
  3661                           ;adc.c: 35:     return ADRESL | ((ADRESH & 0X03) << 8);
  3662   0022E6  CFC4 F003          	movff	4036,??_read_adc	;volatile
  3663   0022EA  0E03               	movlw	3
  3664   0022EC  1603               	andwf	??_read_adc^0,f,c
  3665   0022EE  5003               	movf	??_read_adc^0,w,c
  3666   0022F0  6E05               	movwf	(??_read_adc+2)^0,c
  3667   0022F2  6A04               	clrf	(??_read_adc+1)^0,c
  3668   0022F4  50C3               	movf	195,w,c	;volatile
  3669   0022F6  6E06               	movwf	(??_read_adc+3)^0,c
  3670   0022F8  6A07               	clrf	(??_read_adc+4)^0,c
  3671   0022FA  5004               	movf	(??_read_adc+1)^0,w,c
  3672   0022FC  1006               	iorwf	(??_read_adc+3)^0,w,c
  3673   0022FE  6E01               	movwf	?_read_adc^0,c
  3674   002300  5005               	movf	(??_read_adc+2)^0,w,c
  3675   002302  1007               	iorwf	(??_read_adc+4)^0,w,c
  3676   002304  6E02               	movwf	(?_read_adc+1)^0,c
  3677   002306  0012               	return		;funcret
  3678   002308                     __end_of_read_adc:
  3679                           	callstack 0
  3680                           
  3681 ;; *************** function _init_config *****************
  3682 ;; Defined at:
  3683 ;;		line 23 in file "main.c"
  3684 ;; Parameters:    Size  Location     Type
  3685 ;;		None
  3686 ;; Auto vars:     Size  Location     Type
  3687 ;;		None
  3688 ;; Return value:  Size  Location     Type
  3689 ;;                  1    wreg      void 
  3690 ;; Registers used:
  3691 ;;		wreg, status,2, status,0, cstack
  3692 ;; Tracked objects:
  3693 ;;		On entry : 0/0
  3694 ;;		On exit  : 0/0
  3695 ;;		Unchanged: 0/0
  3696 ;; Data sizes:     COMRAM   BANK0   BANK1   BANK2   BANK3   BANK4   BANK5
  3697 ;;      Params:         0       0       0       0       0       0       0
  3698 ;;      Locals:         0       0       0       0       0       0       0
  3699 ;;      Temps:          0       0       0       0       0       0       0
  3700 ;;      Totals:         0       0       0       0       0       0       0
  3701 ;;Total ram usage:        0 bytes
  3702 ;; Hardware stack levels used: 1
  3703 ;; Hardware stack levels required when called: 6
  3704 ;; This function calls:
  3705 ;;		_init_adc
  3706 ;;		_init_clcd
  3707 ;;		_init_ds1307
  3708 ;;		_init_i2c
  3709 ;;		_init_matrix_keypad
  3710 ;;		_init_timer0
  3711 ;; This function is called by:
  3712 ;;		_main
  3713 ;; This function uses a non-reentrant model
  3714 ;;
  3715                           
  3716                           	psect	text8
  3717   002526                     __ptext8:
  3718                           	callstack 0
  3719   002526                     _init_config:
  3720                           	callstack 24
  3721   002526                     
  3722                           ;main.c: 24:     init_matrix_keypad();
  3723   002526  ECD9  F012         	call	_init_matrix_keypad	;wreg free
  3724   00252A                     
  3725                           ;main.c: 25:     init_clcd();
  3726   00252A  EC12  F00F         	call	_init_clcd	;wreg free
  3727   00252E                     
  3728                           ;main.c: 26:     init_adc();
  3729   00252E  EC84  F012         	call	_init_adc	;wreg free
  3730   002532                     
  3731                           ;main.c: 27:     init_timer0();
  3732   002532  ECA0  F012         	call	_init_timer0	;wreg free
  3733   002536                     
  3734                           ;main.c: 28:     init_i2c();
  3735   002536  ECB9  F012         	call	_init_i2c	;wreg free
  3736   00253A                     
  3737                           ;main.c: 29:     init_ds1307();
  3738   00253A  EC84  F011         	call	_init_ds1307	;wreg free
  3739   00253E  0012               	return		;funcret
  3740   002540                     __end_of_init_config:
  3741                           	callstack 0
  3742                           
  3743 ;; *************** function _init_timer0 *****************
  3744 ;; Defined at:
  3745 ;;		line 11 in file "timer0.c"
  3746 ;; Parameters:    Size  Location     Type
  3747 ;;		None
  3748 ;; Auto vars:     Size  Location     Type
  3749 ;;		None
  3750 ;; Return value:  Size  Location     Type
  3751 ;;                  1    wreg      void 
  3752 ;; Registers used:
  3753 ;;		wreg, status,2
  3754 ;; Tracked objects:
  3755 ;;		On entry : 0/0
  3756 ;;		On exit  : 0/0
  3757 ;;		Unchanged: 0/0
  3758 ;; Data sizes:     COMRAM   BANK0   BANK1   BANK2   BANK3   BANK4   BANK5
  3759 ;;      Params:         0       0       0       0       0       0       0
  3760 ;;      Locals:         0       0       0       0       0       0       0
  3761 ;;      Temps:          0       0       0       0       0       0       0
  3762 ;;      Totals:         0       0       0       0       0       0       0
  3763 ;;Total ram usage:        0 bytes
  3764 ;; Hardware stack levels used: 1
  3765 ;; Hardware stack levels required when called: 1
  3766 ;; This function calls:
  3767 ;;		Nothing
  3768 ;; This function is called by:
  3769 ;;		_init_config
  3770 ;; This function uses a non-reentrant model
  3771 ;;
  3772                           
  3773                           	psect	text9
  3774   002540                     __ptext9:
  3775                           	callstack 0
  3776   002540                     _init_timer0:
  3777                           	callstack 28
  3778   002540                     
  3779                           ;timer0.c: 14:     GIE = 1;
  3780   002540  8EF2               	bsf	4082,7,c	;volatile
  3781                           
  3782                           ;timer0.c: 15:     PEIE = 1;
  3783   002542  8CF2               	bsf	4082,6,c	;volatile
  3784                           
  3785                           ;timer0.c: 16:     TMR0IE = 1;
  3786   002544  8AF2               	bsf	4082,5,c	;volatile
  3787                           
  3788                           ;timer0.c: 17:     TMR0IF = 0;
  3789   002546  94F2               	bcf	4082,2,c	;volatile
  3790   002548                     
  3791                           ;timer0.c: 22:     TMR0 = 3036;
  3792   002548  0E0B               	movlw	11
  3793   00254A  6ED7               	movwf	215,c	;volatile
  3794   00254C  0EDC               	movlw	220
  3795   00254E  6ED6               	movwf	214,c	;volatile
  3796   002550                     
  3797                           ;timer0.c: 23:     TMR0ON = 1;
  3798   002550  8ED5               	bsf	4053,7,c	;volatile
  3799   002552                     
  3800                           ;timer0.c: 24:     T08BIT = 0;
  3801   002552  9CD5               	bcf	4053,6,c	;volatile
  3802   002554                     
  3803                           ;timer0.c: 25:     T0CS = 0;
  3804   002554  9AD5               	bcf	4053,5,c	;volatile
  3805   002556                     
  3806                           ;timer0.c: 26:     PSA = 1;
  3807   002556  86D5               	bsf	4053,3,c	;volatile
  3808   002558  0012               	return		;funcret
  3809   00255A                     __end_of_init_timer0:
  3810                           	callstack 0
  3811                           
  3812 ;; *************** function _init_matrix_keypad *****************
  3813 ;; Defined at:
  3814 ;;		line 12 in file "mkp.c"
  3815 ;; Parameters:    Size  Location     Type
  3816 ;;		None
  3817 ;; Auto vars:     Size  Location     Type
  3818 ;;		None
  3819 ;; Return value:  Size  Location     Type
  3820 ;;                  1    wreg      void 
  3821 ;; Registers used:
  3822 ;;		wreg, status,2
  3823 ;; Tracked objects:
  3824 ;;		On entry : 0/0
  3825 ;;		On exit  : 0/0
  3826 ;;		Unchanged: 0/0
  3827 ;; Data sizes:     COMRAM   BANK0   BANK1   BANK2   BANK3   BANK4   BANK5
  3828 ;;      Params:         0       0       0       0       0       0       0
  3829 ;;      Locals:         0       0       0       0       0       0       0
  3830 ;;      Temps:          0       0       0       0       0       0       0
  3831 ;;      Totals:         0       0       0       0       0       0       0
  3832 ;;Total ram usage:        0 bytes
  3833 ;; Hardware stack levels used: 1
  3834 ;; Hardware stack levels required when called: 1
  3835 ;; This function calls:
  3836 ;;		Nothing
  3837 ;; This function is called by:
  3838 ;;		_init_config
  3839 ;; This function uses a non-reentrant model
  3840 ;;
  3841                           
  3842                           	psect	text10
  3843   0025B2                     __ptext10:
  3844                           	callstack 0
  3845   0025B2                     _init_matrix_keypad:
  3846                           	callstack 28
  3847   0025B2                     
  3848                           ;mkp.c: 14:     TRISB = 0x1E;
  3849   0025B2  0E1E               	movlw	30
  3850   0025B4  6E93               	movwf	147,c	;volatile
  3851   0025B6                     
  3852                           ;mkp.c: 15:     RBPU = 0;
  3853   0025B6  9EF1               	bcf	4081,7,c	;volatile
  3854   0025B8  0012               	return		;funcret
  3855   0025BA                     __end_of_init_matrix_keypad:
  3856                           	callstack 0
  3857                           
  3858 ;; *************** function _init_i2c *****************
  3859 ;; Defined at:
  3860 ;;		line 13 in file "i2c.c"
  3861 ;; Parameters:    Size  Location     Type
  3862 ;;		None
  3863 ;; Auto vars:     Size  Location     Type
  3864 ;;		None
  3865 ;; Return value:  Size  Location     Type
  3866 ;;                  1    wreg      void 
  3867 ;; Registers used:
  3868 ;;		wreg, status,2
  3869 ;; Tracked objects:
  3870 ;;		On entry : 0/0
  3871 ;;		On exit  : 0/0
  3872 ;;		Unchanged: 0/0
  3873 ;; Data sizes:     COMRAM   BANK0   BANK1   BANK2   BANK3   BANK4   BANK5
  3874 ;;      Params:         0       0       0       0       0       0       0
  3875 ;;      Locals:         0       0       0       0       0       0       0
  3876 ;;      Temps:          0       0       0       0       0       0       0
  3877 ;;      Totals:         0       0       0       0       0       0       0
  3878 ;;Total ram usage:        0 bytes
  3879 ;; Hardware stack levels used: 1
  3880 ;; Hardware stack levels required when called: 1
  3881 ;; This function calls:
  3882 ;;		Nothing
  3883 ;; This function is called by:
  3884 ;;		_init_config
  3885 ;; This function uses a non-reentrant model
  3886 ;;
  3887                           
  3888                           	psect	text11
  3889   002572                     __ptext11:
  3890                           	callstack 0
  3891   002572                     _init_i2c:
  3892                           	callstack 28
  3893   002572                     
  3894                           ;i2c.c: 16:  TRISC3 = 1;
  3895   002572  8694               	bsf	3988,3,c	;volatile
  3896                           
  3897                           ;i2c.c: 17:  TRISC4 = 1;
  3898   002574  8894               	bsf	3988,4,c	;volatile
  3899   002576                     
  3900                           ;i2c.c: 19:  SSPCON1 = 0x28;
  3901   002576  0E28               	movlw	40
  3902   002578  6EC6               	movwf	198,c	;volatile
  3903                           
  3904                           ;i2c.c: 21:  SSPADD = 0x31;
  3905   00257A  0E31               	movlw	49
  3906   00257C  6EC8               	movwf	200,c	;volatile
  3907   00257E                     
  3908                           ;i2c.c: 23:  CKE = 0;
  3909   00257E  9CC7               	bcf	4039,6,c	;volatile
  3910   002580                     
  3911                           ;i2c.c: 25:  SMP = 1;
  3912   002580  8EC7               	bsf	4039,7,c	;volatile
  3913   002582                     
  3914                           ;i2c.c: 27:  SSPIF = 0;
  3915   002582  969E               	bcf	3998,3,c	;volatile
  3916   002584                     
  3917                           ;i2c.c: 29:  BCLIF = 0;
  3918   002584  96A1               	bcf	4001,3,c	;volatile
  3919   002586  0012               	return		;funcret
  3920   002588                     __end_of_init_i2c:
  3921                           	callstack 0
  3922                           
  3923 ;; *************** function _init_ds1307 *****************
  3924 ;; Defined at:
  3925 ;;		line 12 in file "ds1307.c"
  3926 ;; Parameters:    Size  Location     Type
  3927 ;;		None
  3928 ;; Auto vars:     Size  Location     Type
  3929 ;;  dummy           1    3[COMRAM] unsigned char 
  3930 ;; Return value:  Size  Location     Type
  3931 ;;                  1    wreg      void 
  3932 ;; Registers used:
  3933 ;;		wreg, status,2, status,0, cstack
  3934 ;; Tracked objects:
  3935 ;;		On entry : 0/0
  3936 ;;		On exit  : 0/0
  3937 ;;		Unchanged: 0/0
  3938 ;; Data sizes:     COMRAM   BANK0   BANK1   BANK2   BANK3   BANK4   BANK5
  3939 ;;      Params:         0       0       0       0       0       0       0
  3940 ;;      Locals:         1       0       0       0       0       0       0
  3941 ;;      Temps:          0       0       0       0       0       0       0
  3942 ;;      Totals:         1       0       0       0       0       0       0
  3943 ;;Total ram usage:        1 bytes
  3944 ;; Hardware stack levels used: 1
  3945 ;; Hardware stack levels required when called: 5
  3946 ;; This function calls:
  3947 ;;		_read_ds1307
  3948 ;;		_write_ds1307
  3949 ;; This function is called by:
  3950 ;;		_init_config
  3951 ;; This function uses a non-reentrant model
  3952 ;;
  3953                           
  3954                           	psect	text12
  3955   002308                     __ptext12:
  3956                           	callstack 0
  3957   002308                     _init_ds1307:
  3958                           	callstack 24
  3959   002308                     
  3960                           ;ds1307.c: 14:  unsigned char dummy;;ds1307.c: 17:  dummy = read_ds1307(0x00);
  3961   002308  0E00               	movlw	0
  3962   00230A  EC60  F012         	call	_read_ds1307
  3963   00230E  6E04               	movwf	init_ds1307@dummy^0,c
  3964   002310                     
  3965                           ;ds1307.c: 18:  write_ds1307(0x00, dummy | 0x80);
  3966   002310  5004               	movf	init_ds1307@dummy^0,w,c
  3967   002312  0980               	iorlw	128
  3968   002314  6E02               	movwf	write_ds1307@data^0,c
  3969   002316  0E00               	movlw	0
  3970   002318  EC75  F012         	call	_write_ds1307
  3971   00231C                     
  3972                           ;ds1307.c: 21:  dummy = read_ds1307(0x02);
  3973   00231C  0E02               	movlw	2
  3974   00231E  EC60  F012         	call	_read_ds1307
  3975   002322  6E04               	movwf	init_ds1307@dummy^0,c
  3976                           
  3977                           ;ds1307.c: 22:  write_ds1307(0x02, dummy | 0x40);
  3978   002324  5004               	movf	init_ds1307@dummy^0,w,c
  3979   002326  0940               	iorlw	64
  3980   002328  6E02               	movwf	write_ds1307@data^0,c
  3981   00232A  0E02               	movlw	2
  3982   00232C  EC75  F012         	call	_write_ds1307
  3983   002330                     
  3984                           ;ds1307.c: 37:  write_ds1307(0x07, 0x93);
  3985   002330  0E93               	movlw	147
  3986   002332  6E02               	movwf	write_ds1307@data^0,c
  3987   002334  0E07               	movlw	7
  3988   002336  EC75  F012         	call	_write_ds1307
  3989   00233A                     
  3990                           ;ds1307.c: 40:  dummy = read_ds1307(0x00);
  3991   00233A  0E00               	movlw	0
  3992   00233C  EC60  F012         	call	_read_ds1307
  3993   002340  6E04               	movwf	init_ds1307@dummy^0,c
  3994                           
  3995                           ;ds1307.c: 41:  write_ds1307(0x00, dummy & 0x7F);
  3996   002342  5004               	movf	init_ds1307@dummy^0,w,c
  3997   002344  0B7F               	andlw	127
  3998   002346  6E02               	movwf	write_ds1307@data^0,c
  3999   002348  0E00               	movlw	0
  4000   00234A  EC75  F012         	call	_write_ds1307
  4001   00234E  0012               	return		;funcret
  4002   002350                     __end_of_init_ds1307:
  4003                           	callstack 0
  4004                           
  4005 ;; *************** function _write_ds1307 *****************
  4006 ;; Defined at:
  4007 ;;		line 45 in file "ds1307.c"
  4008 ;; Parameters:    Size  Location     Type
  4009 ;;  address         1    wreg     unsigned char 
  4010 ;;  data            1    1[COMRAM] unsigned char 
  4011 ;; Auto vars:     Size  Location     Type
  4012 ;;  address         1    2[COMRAM] unsigned char 
  4013 ;; Return value:  Size  Location     Type
  4014 ;;                  1    wreg      void 
  4015 ;; Registers used:
  4016 ;;		wreg, status,2, cstack
  4017 ;; Tracked objects:
  4018 ;;		On entry : 0/0
  4019 ;;		On exit  : 0/0
  4020 ;;		Unchanged: 0/0
  4021 ;; Data sizes:     COMRAM   BANK0   BANK1   BANK2   BANK3   BANK4   BANK5
  4022 ;;      Params:         1       0       0       0       0       0       0
  4023 ;;      Locals:         1       0       0       0       0       0       0
  4024 ;;      Temps:          0       0       0       0       0       0       0
  4025 ;;      Totals:         2       0       0       0       0       0       0
  4026 ;;Total ram usage:        2 bytes
  4027 ;; Hardware stack levels used: 1
  4028 ;; Hardware stack levels required when called: 3
  4029 ;; This function calls:
  4030 ;;		_i2c_start
  4031 ;;		_i2c_stop
  4032 ;;		_i2c_write
  4033 ;; This function is called by:
  4034 ;;		_init_ds1307
  4035 ;; This function uses a non-reentrant model
  4036 ;;
  4037                           
  4038                           	psect	text13
  4039   0024EA                     __ptext13:
  4040                           	callstack 0
  4041   0024EA                     _write_ds1307:
  4042                           	callstack 25
  4043                           
  4044                           ;incstack = 0
  4045                           ;write_ds1307@address stored from wreg
  4046   0024EA  6E03               	movwf	write_ds1307@address^0,c
  4047   0024EC                     
  4048                           ;ds1307.c: 45: void write_ds1307(unsigned char address, unsigned char data);ds1307.c: 46
      +                          : {;ds1307.c: 47:  i2c_start();
  4049   0024EC  ECE9  F012         	call	_i2c_start	;wreg free
  4050   0024F0                     
  4051                           ;ds1307.c: 48:  i2c_write(0xD0);
  4052   0024F0  0ED0               	movlw	208
  4053   0024F2  ECD3  F012         	call	_i2c_write
  4054   0024F6                     
  4055                           ;ds1307.c: 49:  i2c_write(address);
  4056   0024F6  5003               	movf	write_ds1307@address^0,w,c
  4057   0024F8  ECD3  F012         	call	_i2c_write
  4058   0024FC                     
  4059                           ;ds1307.c: 50:  i2c_write(data);
  4060   0024FC  5002               	movf	write_ds1307@data^0,w,c
  4061   0024FE  ECD3  F012         	call	_i2c_write
  4062   002502                     
  4063                           ;ds1307.c: 51:  i2c_stop();
  4064   002502  ECE5  F012         	call	_i2c_stop	;wreg free
  4065   002506  0012               	return		;funcret
  4066   002508                     __end_of_write_ds1307:
  4067                           	callstack 0
  4068                           
  4069 ;; *************** function _init_clcd *****************
  4070 ;; Defined at:
  4071 ;;		line 35 in file "clcd.c"
  4072 ;; Parameters:    Size  Location     Type
  4073 ;;		None
  4074 ;; Auto vars:     Size  Location     Type
  4075 ;;		None
  4076 ;; Return value:  Size  Location     Type
  4077 ;;                  1    wreg      void 
  4078 ;; Registers used:
  4079 ;;		wreg, status,2, status,0, cstack
  4080 ;; Tracked objects:
  4081 ;;		On entry : 0/0
  4082 ;;		On exit  : 0/0
  4083 ;;		Unchanged: 0/0
  4084 ;; Data sizes:     COMRAM   BANK0   BANK1   BANK2   BANK3   BANK4   BANK5
  4085 ;;      Params:         0       0       0       0       0       0       0
  4086 ;;      Locals:         0       0       0       0       0       0       0
  4087 ;;      Temps:          2       0       0       0       0       0       0
  4088 ;;      Totals:         2       0       0       0       0       0       0
  4089 ;;Total ram usage:        2 bytes
  4090 ;; Hardware stack levels used: 1
  4091 ;; Hardware stack levels required when called: 2
  4092 ;; This function calls:
  4093 ;;		_clcd_write
  4094 ;; This function is called by:
  4095 ;;		_init_config
  4096 ;; This function uses a non-reentrant model
  4097 ;;
  4098                           
  4099                           	psect	text14
  4100   001E24                     __ptext14:
  4101                           	callstack 0
  4102   001E24                     _init_clcd:
  4103                           	callstack 27
  4104   001E24                     
  4105                           ;clcd.c: 38:  TRISD = 0x00;
  4106   001E24  0E00               	movlw	0
  4107   001E26  6E95               	movwf	149,c	;volatile
  4108   001E28                     
  4109                           ;clcd.c: 40:  TRISC = TRISC & 0xF8;
  4110   001E28  5094               	movf	148,w,c	;volatile
  4111   001E2A  0BF8               	andlw	248
  4112   001E2C  6E94               	movwf	148,c	;volatile
  4113   001E2E                     
  4114                           ;clcd.c: 42:  RC0 = 0;
  4115   001E2E  9082               	bcf	3970,0,c	;volatile
  4116   001E30                     
  4117                           ;clcd.c: 46:     _delay((unsigned long)((40)*(20000000/4000.0)));
  4118   001E30  0E02               	movlw	2
  4119   001E32  6E04               	movwf	(??_init_clcd+1)^0,c
  4120   001E34  0E04               	movlw	4
  4121   001E36  6E03               	movwf	??_init_clcd^0,c
  4122   001E38  0EBA               	movlw	186
  4123   001E3A                     u4317:
  4124   001E3A  2EE8               	decfsz	wreg,f,c
  4125   001E3C  D7FE               	bra	u4317
  4126   001E3E  2E03               	decfsz	??_init_clcd^0,f,c
  4127   001E40  D7FC               	bra	u4317
  4128   001E42  2E04               	decfsz	(??_init_clcd+1)^0,f,c
  4129   001E44  D7FA               	bra	u4317
  4130   001E46  D000               	nop2	
  4131   001E48                     
  4132                           ;clcd.c: 49:     clcd_write(0x33, 0 );
  4133   001E48  0E00               	movlw	0
  4134   001E4A  6E01               	movwf	clcd_write@control_bit^0,c
  4135   001E4C  0E33               	movlw	51
  4136   001E4E  EC2E  F012         	call	_clcd_write
  4137   001E52                     
  4138                           ;clcd.c: 50:     _delay((unsigned long)((4100)*(20000000/4000000.0)));
  4139   001E52  0E1B               	movlw	27
  4140   001E54  6E03               	movwf	??_init_clcd^0,c
  4141   001E56  0E9E               	movlw	158
  4142   001E58                     u4327:
  4143   001E58  2EE8               	decfsz	wreg,f,c
  4144   001E5A  D7FE               	bra	u4327
  4145   001E5C  2E03               	decfsz	??_init_clcd^0,f,c
  4146   001E5E  D7FC               	bra	u4327
  4147   001E60  D000               	nop2	
  4148   001E62                     
  4149                           ;clcd.c: 51:     clcd_write(0x33, 0 );
  4150   001E62  0E00               	movlw	0
  4151   001E64  6E01               	movwf	clcd_write@control_bit^0,c
  4152   001E66  0E33               	movlw	51
  4153   001E68  EC2E  F012         	call	_clcd_write
  4154   001E6C                     
  4155                           ;clcd.c: 52:     _delay((unsigned long)((100)*(20000000/4000000.0)));
  4156   001E6C  0EA6               	movlw	166
  4157   001E6E                     u4337:
  4158   001E6E  2EE8               	decfsz	wreg,f,c
  4159   001E70  D7FE               	bra	u4337
  4160   001E72  D000               	nop2	
  4161   001E74                     
  4162                           ;clcd.c: 53:     clcd_write(0x33, 0 );
  4163   001E74  0E00               	movlw	0
  4164   001E76  6E01               	movwf	clcd_write@control_bit^0,c
  4165   001E78  0E33               	movlw	51
  4166   001E7A  EC2E  F012         	call	_clcd_write
  4167   001E7E                     
  4168                           ;clcd.c: 54:     _delay((unsigned long)((1)*(20000000/4000000.0)));
  4169   001E7E  D000               	nop2		;2 cycle nop
  4170   001E80  D000               	nop2		;2 cycle nop
  4171   001E82  F000               	nop	
  4172   001E84                     
  4173                           ;clcd.c: 56:     clcd_write(0x02, 0);
  4174   001E84  0E00               	movlw	0
  4175   001E86  6E01               	movwf	clcd_write@control_bit^0,c
  4176   001E88  0E02               	movlw	2
  4177   001E8A  EC2E  F012         	call	_clcd_write
  4178   001E8E                     
  4179                           ;clcd.c: 57:     _delay((unsigned long)((100)*(20000000/4000000.0)));
  4180   001E8E  0EA6               	movlw	166
  4181   001E90                     u4347:
  4182   001E90  2EE8               	decfsz	wreg,f,c
  4183   001E92  D7FE               	bra	u4347
  4184   001E94  D000               	nop2	
  4185   001E96                     
  4186                           ;clcd.c: 58:     clcd_write(0x38, 0);
  4187   001E96  0E00               	movlw	0
  4188   001E98  6E01               	movwf	clcd_write@control_bit^0,c
  4189   001E9A  0E38               	movlw	56
  4190   001E9C  EC2E  F012         	call	_clcd_write
  4191   001EA0                     
  4192                           ;clcd.c: 59:     _delay((unsigned long)((100)*(20000000/4000000.0)));
  4193   001EA0  0EA6               	movlw	166
  4194   001EA2                     u4357:
  4195   001EA2  2EE8               	decfsz	wreg,f,c
  4196   001EA4  D7FE               	bra	u4357
  4197   001EA6  D000               	nop2	
  4198   001EA8                     
  4199                           ;clcd.c: 60:     clcd_write(0x01, 0);
  4200   001EA8  0E00               	movlw	0
  4201   001EAA  6E01               	movwf	clcd_write@control_bit^0,c
  4202   001EAC  0E01               	movlw	1
  4203   001EAE  EC2E  F012         	call	_clcd_write
  4204   001EB2                     
  4205                           ;clcd.c: 61:     _delay((unsigned long)((500)*(20000000/4000000.0)));
  4206   001EB2  0E04               	movlw	4
  4207   001EB4  6E03               	movwf	??_init_clcd^0,c
  4208   001EB6  0E3E               	movlw	62
  4209   001EB8                     u4367:
  4210   001EB8  2EE8               	decfsz	wreg,f,c
  4211   001EBA  D7FE               	bra	u4367
  4212   001EBC  2E03               	decfsz	??_init_clcd^0,f,c
  4213   001EBE  D7FC               	bra	u4367
  4214   001EC0                     
  4215                           ;clcd.c: 62:     clcd_write(0x0C, 0);
  4216   001EC0  0E00               	movlw	0
  4217   001EC2  6E01               	movwf	clcd_write@control_bit^0,c
  4218   001EC4  0E0C               	movlw	12
  4219   001EC6  EC2E  F012         	call	_clcd_write
  4220   001ECA                     
  4221                           ;clcd.c: 63:     _delay((unsigned long)((100)*(20000000/4000000.0)));
  4222   001ECA  0EA6               	movlw	166
  4223   001ECC                     u4377:
  4224   001ECC  2EE8               	decfsz	wreg,f,c
  4225   001ECE  D7FE               	bra	u4377
  4226   001ED0  D000               	nop2	
  4227   001ED2  0012               	return		;funcret
  4228   001ED4                     __end_of_init_clcd:
  4229                           	callstack 0
  4230                           
  4231 ;; *************** function _init_adc *****************
  4232 ;; Defined at:
  4233 ;;		line 12 in file "adc.c"
  4234 ;; Parameters:    Size  Location     Type
  4235 ;;		None
  4236 ;; Auto vars:     Size  Location     Type
  4237 ;;		None
  4238 ;; Return value:  Size  Location     Type
  4239 ;;                  1    wreg      void 
  4240 ;; Registers used:
  4241 ;;		None
  4242 ;; Tracked objects:
  4243 ;;		On entry : 0/0
  4244 ;;		On exit  : 0/0
  4245 ;;		Unchanged: 0/0
  4246 ;; Data sizes:     COMRAM   BANK0   BANK1   BANK2   BANK3   BANK4   BANK5
  4247 ;;      Params:         0       0       0       0       0       0       0
  4248 ;;      Locals:         0       0       0       0       0       0       0
  4249 ;;      Temps:          0       0       0       0       0       0       0
  4250 ;;      Totals:         0       0       0       0       0       0       0
  4251 ;;Total ram usage:        0 bytes
  4252 ;; Hardware stack levels used: 1
  4253 ;; Hardware stack levels required when called: 1
  4254 ;; This function calls:
  4255 ;;		Nothing
  4256 ;; This function is called by:
  4257 ;;		_init_config
  4258 ;; This function uses a non-reentrant model
  4259 ;;
  4260                           
  4261                           	psect	text15
  4262   002508                     __ptext15:
  4263                           	callstack 0
  4264   002508                     _init_adc:
  4265                           	callstack 28
  4266   002508                     
  4267                           ;adc.c: 13:     ADON = 1;
  4268   002508  80C2               	bsf	4034,0,c	;volatile
  4269                           
  4270                           ;adc.c: 14:     VCFG1 = 0;
  4271   00250A  9AC1               	bcf	4033,5,c	;volatile
  4272                           
  4273                           ;adc.c: 15:     VCFG0 = 0;
  4274   00250C  98C1               	bcf	4033,4,c	;volatile
  4275                           
  4276                           ;adc.c: 16:     PCFG3 = 1;
  4277   00250E  86C1               	bsf	4033,3,c	;volatile
  4278                           
  4279                           ;adc.c: 17:     PCFG2 = 0;
  4280   002510  94C1               	bcf	4033,2,c	;volatile
  4281                           
  4282                           ;adc.c: 18:     PCFG1 = 1;
  4283   002512  82C1               	bsf	4033,1,c	;volatile
  4284                           
  4285                           ;adc.c: 19:     PCFG0 = 0;
  4286   002514  90C1               	bcf	4033,0,c	;volatile
  4287                           
  4288                           ;adc.c: 20:     ACQT2 = 1;
  4289   002516  8AC0               	bsf	4032,5,c	;volatile
  4290                           
  4291                           ;adc.c: 21:     ACQT1 = 0;
  4292   002518  98C0               	bcf	4032,4,c	;volatile
  4293                           
  4294                           ;adc.c: 22:     ACQT0 = 0;
  4295   00251A  96C0               	bcf	4032,3,c	;volatile
  4296                           
  4297                           ;adc.c: 23:     ADCS2 = 0;
  4298   00251C  94C0               	bcf	4032,2,c	;volatile
  4299                           
  4300                           ;adc.c: 24:     ADCS1 = 1;
  4301   00251E  82C0               	bsf	4032,1,c	;volatile
  4302                           
  4303                           ;adc.c: 25:     ADCS0 = 0;
  4304   002520  90C0               	bcf	4032,0,c	;volatile
  4305                           
  4306                           ;adc.c: 26:     ADFM = 1;
  4307   002522  8EC0               	bsf	4032,7,c	;volatile
  4308   002524  0012               	return		;funcret
  4309   002526                     __end_of_init_adc:
  4310                           	callstack 0
  4311                           
  4312 ;; *************** function _get_time *****************
  4313 ;; Defined at:
  4314 ;;		line 45 in file "car_black_box.c"
  4315 ;; Parameters:    Size  Location     Type
  4316 ;;		None
  4317 ;; Auto vars:     Size  Location     Type
  4318 ;;		None
  4319 ;; Return value:  Size  Location     Type
  4320 ;;                  1    wreg      void 
  4321 ;; Registers used:
  4322 ;;		wreg, status,2, status,0, cstack
  4323 ;; Tracked objects:
  4324 ;;		On entry : 0/0
  4325 ;;		On exit  : 0/0
  4326 ;;		Unchanged: 0/0
  4327 ;; Data sizes:     COMRAM   BANK0   BANK1   BANK2   BANK3   BANK4   BANK5
  4328 ;;      Params:         0       0       0       0       0       0       0
  4329 ;;      Locals:         0       0       0       0       0       0       0
  4330 ;;      Temps:          0       0       0       0       0       0       0
  4331 ;;      Totals:         0       0       0       0       0       0       0
  4332 ;;Total ram usage:        0 bytes
  4333 ;; Hardware stack levels used: 1
  4334 ;; Hardware stack levels required when called: 5
  4335 ;; This function calls:
  4336 ;;		_read_ds1307
  4337 ;; This function is called by:
  4338 ;;		_main
  4339 ;; This function uses a non-reentrant model
  4340 ;;
  4341                           
  4342                           	psect	text16
  4343   001F72                     __ptext16:
  4344                           	callstack 0
  4345   001F72                     _get_time:
  4346                           	callstack 25
  4347   001F72                     
  4348                           ;car_black_box.c: 46:     clock_reg[0] = read_ds1307(0x02);
  4349   001F72  0E02               	movlw	2
  4350   001F74  EC60  F012         	call	_read_ds1307
  4351   001F78  0100               	movlb	0	; () banked
  4352   001F7A  6FA5               	movwf	_clock_reg& (0+255),b
  4353                           
  4354                           ;car_black_box.c: 47:     clock_reg[1] = read_ds1307(0x01);
  4355   001F7C  0E01               	movlw	1
  4356   001F7E  EC60  F012         	call	_read_ds1307
  4357   001F82  0100               	movlb	0	; () banked
  4358   001F84  6FA6               	movwf	(_clock_reg+1)& (0+255),b
  4359                           
  4360                           ;car_black_box.c: 48:     clock_reg[2] = read_ds1307(0x00);
  4361   001F86  0E00               	movlw	0
  4362   001F88  EC60  F012         	call	_read_ds1307
  4363   001F8C  0100               	movlb	0	; () banked
  4364   001F8E  6FA7               	movwf	(_clock_reg+2)& (0+255),b
  4365   001F90                     
  4366                           ; BSR set to: 0
  4367                           ;car_black_box.c: 50:     if (clock_reg[0] & 0x40) {
  4368   001F90  ADA5               	btfss	_clock_reg& (0+255),6,b
  4369   001F92  EFCD  F00F         	goto	u2591
  4370   001F96  EFCF  F00F         	goto	u2590
  4371   001F9A                     u2591:
  4372   001F9A  EFDA  F00F         	goto	l3126
  4373   001F9E                     u2590:
  4374   001F9E                     
  4375                           ; BSR set to: 0
  4376                           ;car_black_box.c: 51:         event[0] = '0' + ((clock_reg[0] >> 4) & 0x01);
  4377   001F9E  39A5               	swapf	_clock_reg& (0+255),w,b
  4378   001FA0  0B0F               	andlw	15
  4379   001FA2  0B01               	andlw	1
  4380   001FA4  0F30               	addlw	48
  4381   001FA6  6F86               	movwf	_event& (0+255),b
  4382                           
  4383                           ;car_black_box.c: 52:         event[1] = '0' + (clock_reg[0] & 0x0F);
  4384   001FA8  51A5               	movf	_clock_reg& (0+255),w,b
  4385   001FAA  0B0F               	andlw	15
  4386   001FAC  0F30               	addlw	48
  4387   001FAE  6F87               	movwf	(_event+1)& (0+255),b
  4388                           
  4389                           ;car_black_box.c: 53:     } else {
  4390   001FB0  EFE3  F00F         	goto	l3128
  4391   001FB4                     l3126:
  4392                           
  4393                           ; BSR set to: 0
  4394                           ;car_black_box.c: 54:         event[0] = '0' + ((clock_reg[0] >> 4) & 0x03);
  4395   001FB4  39A5               	swapf	_clock_reg& (0+255),w,b
  4396   001FB6  0B0F               	andlw	15
  4397   001FB8  0B03               	andlw	3
  4398   001FBA  0F30               	addlw	48
  4399   001FBC  6F86               	movwf	_event& (0+255),b
  4400                           
  4401                           ;car_black_box.c: 55:         event[1] = '0' + (clock_reg[0] & 0x0F);
  4402   001FBE  51A5               	movf	_clock_reg& (0+255),w,b
  4403   001FC0  0B0F               	andlw	15
  4404   001FC2  0F30               	addlw	48
  4405   001FC4  6F87               	movwf	(_event+1)& (0+255),b
  4406   001FC6                     l3128:
  4407                           
  4408                           ; BSR set to: 0
  4409                           ;car_black_box.c: 57:     event[2] = ':';
  4410   001FC6  0E3A               	movlw	58
  4411   001FC8  6F88               	movwf	(_event+2)& (0+255),b
  4412   001FCA                     
  4413                           ; BSR set to: 0
  4414                           ;car_black_box.c: 58:     event[3] = '0' + ((clock_reg[1] >> 4) & 0x0F);
  4415   001FCA  39A6               	swapf	(_clock_reg+1)& (0+255),w,b
  4416   001FCC  0B0F               	andlw	15
  4417   001FCE  0B0F               	andlw	15
  4418   001FD0  0F30               	addlw	48
  4419   001FD2  6F89               	movwf	(_event+3)& (0+255),b
  4420   001FD4                     
  4421                           ; BSR set to: 0
  4422                           ;car_black_box.c: 59:     event[4] = '0' + (clock_reg[1] & 0x0F);
  4423   001FD4  51A6               	movf	(_clock_reg+1)& (0+255),w,b
  4424   001FD6  0B0F               	andlw	15
  4425   001FD8  0F30               	addlw	48
  4426   001FDA  6F8A               	movwf	(_event+4)& (0+255),b
  4427   001FDC                     
  4428                           ; BSR set to: 0
  4429                           ;car_black_box.c: 60:     event[5] = ':';
  4430   001FDC  0E3A               	movlw	58
  4431   001FDE  6F8B               	movwf	(_event+5)& (0+255),b
  4432                           
  4433                           ;car_black_box.c: 61:     event[6] = '0' + ((clock_reg[2] >> 4) & 0x0F);
  4434   001FE0  39A7               	swapf	(_clock_reg+2)& (0+255),w,b
  4435   001FE2  0B0F               	andlw	15
  4436   001FE4  0B0F               	andlw	15
  4437   001FE6  0F30               	addlw	48
  4438   001FE8  6F8C               	movwf	(_event+6)& (0+255),b
  4439                           
  4440                           ;car_black_box.c: 62:     event[7] = '0' + (clock_reg[2] & 0x0F);
  4441   001FEA  51A7               	movf	(_clock_reg+2)& (0+255),w,b
  4442   001FEC  0B0F               	andlw	15
  4443   001FEE  0F30               	addlw	48
  4444   001FF0  6F8D               	movwf	(_event+7)& (0+255),b
  4445   001FF2                     
  4446                           ; BSR set to: 0
  4447   001FF2  0012               	return		;funcret
  4448   001FF4                     __end_of_get_time:
  4449                           	callstack 0
  4450                           
  4451 ;; *************** function _read_ds1307 *****************
  4452 ;; Defined at:
  4453 ;;		line 54 in file "ds1307.c"
  4454 ;; Parameters:    Size  Location     Type
  4455 ;;  address         1    wreg     unsigned char 
  4456 ;; Auto vars:     Size  Location     Type
  4457 ;;  address         1    1[COMRAM] unsigned char 
  4458 ;;  data            1    2[COMRAM] unsigned char 
  4459 ;; Return value:  Size  Location     Type
  4460 ;;                  1    wreg      unsigned char 
  4461 ;; Registers used:
  4462 ;;		wreg, status,2, cstack
  4463 ;; Tracked objects:
  4464 ;;		On entry : 0/0
  4465 ;;		On exit  : 0/0
  4466 ;;		Unchanged: 0/0
  4467 ;; Data sizes:     COMRAM   BANK0   BANK1   BANK2   BANK3   BANK4   BANK5
  4468 ;;      Params:         0       0       0       0       0       0       0
  4469 ;;      Locals:         2       0       0       0       0       0       0
  4470 ;;      Temps:          0       0       0       0       0       0       0
  4471 ;;      Totals:         2       0       0       0       0       0       0
  4472 ;;Total ram usage:        2 bytes
  4473 ;; Hardware stack levels used: 1
  4474 ;; Hardware stack levels required when called: 4
  4475 ;; This function calls:
  4476 ;;		_i2c_read
  4477 ;;		_i2c_rep_start
  4478 ;;		_i2c_start
  4479 ;;		_i2c_stop
  4480 ;;		_i2c_write
  4481 ;; This function is called by:
  4482 ;;		_get_time
  4483 ;;		_init_ds1307
  4484 ;; This function uses a non-reentrant model
  4485 ;;
  4486                           
  4487                           	psect	text17
  4488   0024C0                     __ptext17:
  4489                           	callstack 0
  4490   0024C0                     _read_ds1307:
  4491                           	callstack 24
  4492                           
  4493                           ; BSR set to: 0
  4494                           ;incstack = 0
  4495                           ;read_ds1307@address stored from wreg
  4496   0024C0  6E02               	movwf	read_ds1307@address^0,c
  4497   0024C2                     
  4498                           ;ds1307.c: 54: unsigned char read_ds1307(unsigned char address);ds1307.c: 55: {;ds1307.c
      +                          : 56:  unsigned char data;;ds1307.c: 58:  i2c_start();
  4499   0024C2  ECE9  F012         	call	_i2c_start	;wreg free
  4500   0024C6                     
  4501                           ;ds1307.c: 59:  i2c_write(0xD0);
  4502   0024C6  0ED0               	movlw	208
  4503   0024C8  ECD3  F012         	call	_i2c_write
  4504   0024CC                     
  4505                           ;ds1307.c: 60:  i2c_write(address);
  4506   0024CC  5002               	movf	read_ds1307@address^0,w,c
  4507   0024CE  ECD3  F012         	call	_i2c_write
  4508   0024D2                     
  4509                           ;ds1307.c: 61:  i2c_rep_start();
  4510   0024D2  ECDD  F012         	call	_i2c_rep_start	;wreg free
  4511   0024D6                     
  4512                           ;ds1307.c: 62:  i2c_write(0xD1);
  4513   0024D6  0ED1               	movlw	209
  4514   0024D8  ECD3  F012         	call	_i2c_write
  4515                           
  4516                           ;ds1307.c: 63:  data = i2c_read();
  4517   0024DC  ECCD  F012         	call	_i2c_read	;wreg free
  4518   0024E0  6E03               	movwf	read_ds1307@data^0,c
  4519   0024E2                     
  4520                           ;ds1307.c: 64:  i2c_stop();
  4521   0024E2  ECE5  F012         	call	_i2c_stop	;wreg free
  4522                           
  4523                           ;ds1307.c: 66:  return data;
  4524   0024E6  5003               	movf	read_ds1307@data^0,w,c
  4525   0024E8  0012               	return		;funcret
  4526   0024EA                     __end_of_read_ds1307:
  4527                           	callstack 0
  4528                           
  4529 ;; *************** function _i2c_rep_start *****************
  4530 ;; Defined at:
  4531 ;;		line 58 in file "i2c.c"
  4532 ;; Parameters:    Size  Location     Type
  4533 ;;		None
  4534 ;; Auto vars:     Size  Location     Type
  4535 ;;		None
  4536 ;; Return value:  Size  Location     Type
  4537 ;;                  1    wreg      void 
  4538 ;; Registers used:
  4539 ;;		cstack
  4540 ;; Tracked objects:
  4541 ;;		On entry : 0/0
  4542 ;;		On exit  : 0/0
  4543 ;;		Unchanged: 0/0
  4544 ;; Data sizes:     COMRAM   BANK0   BANK1   BANK2   BANK3   BANK4   BANK5
  4545 ;;      Params:         0       0       0       0       0       0       0
  4546 ;;      Locals:         0       0       0       0       0       0       0
  4547 ;;      Temps:          0       0       0       0       0       0       0
  4548 ;;      Totals:         0       0       0       0       0       0       0
  4549 ;;Total ram usage:        0 bytes
  4550 ;; Hardware stack levels used: 1
  4551 ;; Hardware stack levels required when called: 2
  4552 ;; This function calls:
  4553 ;;		_i2c_idle
  4554 ;; This function is called by:
  4555 ;;		_read_external_eeprom
  4556 ;;		_read_ds1307
  4557 ;; This function uses a non-reentrant model
  4558 ;;
  4559                           
  4560                           	psect	text18
  4561   0025BA                     __ptext18:
  4562                           	callstack 0
  4563   0025BA                     _i2c_rep_start:
  4564                           	callstack 26
  4565   0025BA                     
  4566                           ;i2c.c: 60:  RSEN = 1;
  4567   0025BA  82C5               	bsf	4037,1,c	;volatile
  4568   0025BC                     
  4569                           ;i2c.c: 61:  i2c_idle();
  4570   0025BC  ECC4  F012         	call	_i2c_idle	;wreg free
  4571   0025C0  0012               	return		;funcret
  4572   0025C2                     __end_of_i2c_rep_start:
  4573                           	callstack 0
  4574                           
  4575 ;; *************** function _i2c_read *****************
  4576 ;; Defined at:
  4577 ;;		line 82 in file "i2c.c"
  4578 ;; Parameters:    Size  Location     Type
  4579 ;;		None
  4580 ;; Auto vars:     Size  Location     Type
  4581 ;;		None
  4582 ;; Return value:  Size  Location     Type
  4583 ;;                  1    wreg      unsigned char 
  4584 ;; Registers used:
  4585 ;;		wreg, status,2, cstack
  4586 ;; Tracked objects:
  4587 ;;		On entry : 0/0
  4588 ;;		On exit  : 0/0
  4589 ;;		Unchanged: 0/0
  4590 ;; Data sizes:     COMRAM   BANK0   BANK1   BANK2   BANK3   BANK4   BANK5
  4591 ;;      Params:         0       0       0       0       0       0       0
  4592 ;;      Locals:         0       0       0       0       0       0       0
  4593 ;;      Temps:          0       0       0       0       0       0       0
  4594 ;;      Totals:         0       0       0       0       0       0       0
  4595 ;;Total ram usage:        0 bytes
  4596 ;; Hardware stack levels used: 1
  4597 ;; Hardware stack levels required when called: 3
  4598 ;; This function calls:
  4599 ;;		_i2c_no_ack
  4600 ;;		_i2c_rx_mode
  4601 ;; This function is called by:
  4602 ;;		_read_external_eeprom
  4603 ;;		_read_ds1307
  4604 ;; This function uses a non-reentrant model
  4605 ;;
  4606                           
  4607                           	psect	text19
  4608   00259A                     __ptext19:
  4609                           	callstack 0
  4610   00259A                     _i2c_read:
  4611                           	callstack 25
  4612   00259A                     
  4613                           ;i2c.c: 84:  i2c_rx_mode();
  4614   00259A  ECE1  F012         	call	_i2c_rx_mode	;wreg free
  4615                           
  4616                           ;i2c.c: 85:  i2c_no_ack();
  4617   00259E  ECED  F012         	call	_i2c_no_ack	;wreg free
  4618   0025A2                     
  4619                           ;i2c.c: 87:  return SSPBUF;
  4620   0025A2  50C9               	movf	201,w,c	;volatile
  4621   0025A4  0012               	return		;funcret
  4622   0025A6                     __end_of_i2c_read:
  4623                           	callstack 0
  4624                           
  4625 ;; *************** function _i2c_rx_mode *****************
  4626 ;; Defined at:
  4627 ;;		line 70 in file "i2c.c"
  4628 ;; Parameters:    Size  Location     Type
  4629 ;;		None
  4630 ;; Auto vars:     Size  Location     Type
  4631 ;;		None
  4632 ;; Return value:  Size  Location     Type
  4633 ;;                  1    wreg      void 
  4634 ;; Registers used:
  4635 ;;		cstack
  4636 ;; Tracked objects:
  4637 ;;		On entry : 0/0
  4638 ;;		On exit  : 0/0
  4639 ;;		Unchanged: 0/0
  4640 ;; Data sizes:     COMRAM   BANK0   BANK1   BANK2   BANK3   BANK4   BANK5
  4641 ;;      Params:         0       0       0       0       0       0       0
  4642 ;;      Locals:         0       0       0       0       0       0       0
  4643 ;;      Temps:          0       0       0       0       0       0       0
  4644 ;;      Totals:         0       0       0       0       0       0       0
  4645 ;;Total ram usage:        0 bytes
  4646 ;; Hardware stack levels used: 1
  4647 ;; Hardware stack levels required when called: 2
  4648 ;; This function calls:
  4649 ;;		_i2c_idle
  4650 ;; This function is called by:
  4651 ;;		_i2c_read
  4652 ;; This function uses a non-reentrant model
  4653 ;;
  4654                           
  4655                           	psect	text20
  4656   0025C2                     __ptext20:
  4657                           	callstack 0
  4658   0025C2                     _i2c_rx_mode:
  4659                           	callstack 25
  4660   0025C2                     
  4661                           ;i2c.c: 72:  RCEN = 1;
  4662   0025C2  86C5               	bsf	4037,3,c	;volatile
  4663   0025C4                     
  4664                           ;i2c.c: 73:  i2c_idle();
  4665   0025C4  ECC4  F012         	call	_i2c_idle	;wreg free
  4666   0025C8  0012               	return		;funcret
  4667   0025CA                     __end_of_i2c_rx_mode:
  4668                           	callstack 0
  4669                           
  4670 ;; *************** function _i2c_no_ack *****************
  4671 ;; Defined at:
  4672 ;;		line 76 in file "i2c.c"
  4673 ;; Parameters:    Size  Location     Type
  4674 ;;		None
  4675 ;; Auto vars:     Size  Location     Type
  4676 ;;		None
  4677 ;; Return value:  Size  Location     Type
  4678 ;;                  1    wreg      void 
  4679 ;; Registers used:
  4680 ;;		None
  4681 ;; Tracked objects:
  4682 ;;		On entry : 0/0
  4683 ;;		On exit  : 0/0
  4684 ;;		Unchanged: 0/0
  4685 ;; Data sizes:     COMRAM   BANK0   BANK1   BANK2   BANK3   BANK4   BANK5
  4686 ;;      Params:         0       0       0       0       0       0       0
  4687 ;;      Locals:         0       0       0       0       0       0       0
  4688 ;;      Temps:          0       0       0       0       0       0       0
  4689 ;;      Totals:         0       0       0       0       0       0       0
  4690 ;;Total ram usage:        0 bytes
  4691 ;; Hardware stack levels used: 1
  4692 ;; Hardware stack levels required when called: 1
  4693 ;; This function calls:
  4694 ;;		Nothing
  4695 ;; This function is called by:
  4696 ;;		_i2c_read
  4697 ;; This function uses a non-reentrant model
  4698 ;;
  4699                           
  4700                           	psect	text21
  4701   0025DA                     __ptext21:
  4702                           	callstack 0
  4703   0025DA                     _i2c_no_ack:
  4704                           	callstack 26
  4705   0025DA                     
  4706                           ;i2c.c: 78:  ACKDT = 1;
  4707   0025DA  8AC5               	bsf	4037,5,c	;volatile
  4708                           
  4709                           ;i2c.c: 79:  ACKEN = 1;
  4710   0025DC  88C5               	bsf	4037,4,c	;volatile
  4711   0025DE  0012               	return		;funcret
  4712   0025E0                     __end_of_i2c_no_ack:
  4713                           	callstack 0
  4714                           
  4715 ;; *************** function _display_speed *****************
  4716 ;; Defined at:
  4717 ;;		line 93 in file "car_black_box.c"
  4718 ;; Parameters:    Size  Location     Type
  4719 ;;  speed           2    7[COMRAM] unsigned short 
  4720 ;; Auto vars:     Size  Location     Type
  4721 ;;		None
  4722 ;; Return value:  Size  Location     Type
  4723 ;;                  1    wreg      void 
  4724 ;; Registers used:
  4725 ;;		wreg, status,2, status,0, cstack
  4726 ;; Tracked objects:
  4727 ;;		On entry : 0/0
  4728 ;;		On exit  : 0/0
  4729 ;;		Unchanged: 0/0
  4730 ;; Data sizes:     COMRAM   BANK0   BANK1   BANK2   BANK3   BANK4   BANK5
  4731 ;;      Params:         2       0       0       0       0       0       0
  4732 ;;      Locals:         0       0       0       0       0       0       0
  4733 ;;      Temps:          0       0       0       0       0       0       0
  4734 ;;      Totals:         2       0       0       0       0       0       0
  4735 ;;Total ram usage:        2 bytes
  4736 ;; Hardware stack levels used: 1
  4737 ;; Hardware stack levels required when called: 2
  4738 ;; This function calls:
  4739 ;;		___lwdiv
  4740 ;;		___lwmod
  4741 ;; This function is called by:
  4742 ;;		_main
  4743 ;; This function uses a non-reentrant model
  4744 ;;
  4745                           
  4746                           	psect	text22
  4747   00241E                     __ptext22:
  4748                           	callstack 0
  4749   00241E                     _display_speed:
  4750                           	callstack 28
  4751   00241E                     
  4752                           ;car_black_box.c: 94:     event[14] = (speed / 10) + 48;
  4753   00241E  C008  F001         	movff	display_speed@speed,___lwdiv@dividend
  4754   002422  C009  F002         	movff	display_speed@speed+1,___lwdiv@dividend+1
  4755   002426  0E00               	movlw	0
  4756   002428  6E04               	movwf	(___lwdiv@divisor+1)^0,c
  4757   00242A  0E0A               	movlw	10
  4758   00242C  6E03               	movwf	___lwdiv@divisor^0,c
  4759   00242E  ECFA  F00F         	call	___lwdiv	;wreg free
  4760   002432  5001               	movf	?___lwdiv^0,w,c
  4761   002434  0F30               	addlw	48
  4762   002436  0100               	movlb	0	; () banked
  4763   002438  6F94               	movwf	(_event+14)& (0+255),b
  4764                           
  4765                           ;car_black_box.c: 95:     event[15] = (speed % 10) + 48;
  4766   00243A  C008  F001         	movff	display_speed@speed,___lwmod@dividend
  4767   00243E  C009  F002         	movff	display_speed@speed+1,___lwmod@dividend+1
  4768   002442  0E00               	movlw	0
  4769   002444  6E04               	movwf	(___lwmod@divisor+1)^0,c
  4770   002446  0E0A               	movlw	10
  4771   002448  6E03               	movwf	___lwmod@divisor^0,c
  4772   00244A  ECA3  F010         	call	___lwmod	;wreg free
  4773   00244E  5001               	movf	?___lwmod^0,w,c
  4774   002450  0F30               	addlw	48
  4775   002452  0100               	movlb	0	; () banked
  4776   002454  6F95               	movwf	(_event+15)& (0+255),b
  4777   002456                     
  4778                           ; BSR set to: 0
  4779                           ;car_black_box.c: 96:     event[16] = '\0';
  4780   002456  0E00               	movlw	0
  4781   002458  6F96               	movwf	(_event+16)& (0+255),b
  4782   00245A                     
  4783                           ; BSR set to: 0
  4784   00245A  0012               	return		;funcret
  4785   00245C                     __end_of_display_speed:
  4786                           	callstack 0
  4787                           
  4788 ;; *************** function ___lwmod *****************
  4789 ;; Defined at:
  4790 ;;		line 7 in file "C:\Program Files\Microchip\xc8\v2.41\pic\sources\c99\common\lwmod.c"
  4791 ;; Parameters:    Size  Location     Type
  4792 ;;  dividend        2    0[COMRAM] unsigned int 
  4793 ;;  divisor         2    2[COMRAM] unsigned int 
  4794 ;; Auto vars:     Size  Location     Type
  4795 ;;  counter         1    4[COMRAM] unsigned char 
  4796 ;; Return value:  Size  Location     Type
  4797 ;;                  2    0[COMRAM] unsigned int 
  4798 ;; Registers used:
  4799 ;;		wreg, status,2, status,0
  4800 ;; Tracked objects:
  4801 ;;		On entry : 0/0
  4802 ;;		On exit  : 0/0
  4803 ;;		Unchanged: 0/0
  4804 ;; Data sizes:     COMRAM   BANK0   BANK1   BANK2   BANK3   BANK4   BANK5
  4805 ;;      Params:         4       0       0       0       0       0       0
  4806 ;;      Locals:         1       0       0       0       0       0       0
  4807 ;;      Temps:          0       0       0       0       0       0       0
  4808 ;;      Totals:         5       0       0       0       0       0       0
  4809 ;;Total ram usage:        5 bytes
  4810 ;; Hardware stack levels used: 1
  4811 ;; Hardware stack levels required when called: 1
  4812 ;; This function calls:
  4813 ;;		Nothing
  4814 ;; This function is called by:
  4815 ;;		_display_speed
  4816 ;;		_read_password
  4817 ;;		_view_log
  4818 ;; This function uses a non-reentrant model
  4819 ;;
  4820                           
  4821                           	psect	text23
  4822   002146                     __ptext23:
  4823                           	callstack 0
  4824   002146                     ___lwmod:
  4825                           	callstack 28
  4826   002146  5003               	movf	___lwmod@divisor^0,w,c
  4827   002148  1004               	iorwf	(___lwmod@divisor+1)^0,w,c
  4828   00214A  B4D8               	btfsc	status,2,c
  4829   00214C  EFAA  F010         	goto	u2551
  4830   002150  EFAC  F010         	goto	u2550
  4831   002154                     u2551:
  4832   002154  EFD0  F010         	goto	l1142
  4833   002158                     u2550:
  4834   002158  0E01               	movlw	1
  4835   00215A  6E05               	movwf	___lwmod@counter^0,c
  4836   00215C  EFB4  F010         	goto	l3086
  4837   002160                     l3084:
  4838   002160  90D8               	bcf	status,0,c
  4839   002162  3603               	rlcf	___lwmod@divisor^0,f,c
  4840   002164  3604               	rlcf	(___lwmod@divisor+1)^0,f,c
  4841   002166  2A05               	incf	___lwmod@counter^0,f,c
  4842   002168                     l3086:
  4843   002168  AE04               	btfss	(___lwmod@divisor+1)^0,7,c
  4844   00216A  EFB9  F010         	goto	u2561
  4845   00216E  EFBB  F010         	goto	u2560
  4846   002172                     u2561:
  4847   002172  EFB0  F010         	goto	l3084
  4848   002176                     u2560:
  4849   002176                     l3088:
  4850   002176  5003               	movf	___lwmod@divisor^0,w,c
  4851   002178  5C01               	subwf	___lwmod@dividend^0,w,c
  4852   00217A  5004               	movf	(___lwmod@divisor+1)^0,w,c
  4853   00217C  5802               	subwfb	(___lwmod@dividend+1)^0,w,c
  4854   00217E  A0D8               	btfss	status,0,c
  4855   002180  EFC4  F010         	goto	u2571
  4856   002184  EFC6  F010         	goto	u2570
  4857   002188                     u2571:
  4858   002188  EFCA  F010         	goto	l3092
  4859   00218C                     u2570:
  4860   00218C  5003               	movf	___lwmod@divisor^0,w,c
  4861   00218E  5E01               	subwf	___lwmod@dividend^0,f,c
  4862   002190  5004               	movf	(___lwmod@divisor+1)^0,w,c
  4863   002192  5A02               	subwfb	(___lwmod@dividend+1)^0,f,c
  4864   002194                     l3092:
  4865   002194  90D8               	bcf	status,0,c
  4866   002196  3204               	rrcf	(___lwmod@divisor+1)^0,f,c
  4867   002198  3203               	rrcf	___lwmod@divisor^0,f,c
  4868   00219A  2E05               	decfsz	___lwmod@counter^0,f,c
  4869   00219C  EFBB  F010         	goto	l3088
  4870   0021A0                     l1142:
  4871   0021A0  C001  F001         	movff	___lwmod@dividend,?___lwmod
  4872   0021A4  C002  F002         	movff	___lwmod@dividend+1,?___lwmod+1
  4873   0021A8  0012               	return		;funcret
  4874   0021AA                     __end_of___lwmod:
  4875                           	callstack 0
  4876                           
  4877 ;; *************** function ___lwdiv *****************
  4878 ;; Defined at:
  4879 ;;		line 7 in file "C:\Program Files\Microchip\xc8\v2.41\pic\sources\c99\common\lwdiv.c"
  4880 ;; Parameters:    Size  Location     Type
  4881 ;;  dividend        2    0[COMRAM] unsigned int 
  4882 ;;  divisor         2    2[COMRAM] unsigned int 
  4883 ;; Auto vars:     Size  Location     Type
  4884 ;;  quotient        2    4[COMRAM] unsigned int 
  4885 ;;  counter         1    6[COMRAM] unsigned char 
  4886 ;; Return value:  Size  Location     Type
  4887 ;;                  2    0[COMRAM] unsigned int 
  4888 ;; Registers used:
  4889 ;;		wreg, status,2, status,0
  4890 ;; Tracked objects:
  4891 ;;		On entry : 0/0
  4892 ;;		On exit  : 0/0
  4893 ;;		Unchanged: 0/0
  4894 ;; Data sizes:     COMRAM   BANK0   BANK1   BANK2   BANK3   BANK4   BANK5
  4895 ;;      Params:         4       0       0       0       0       0       0
  4896 ;;      Locals:         3       0       0       0       0       0       0
  4897 ;;      Temps:          0       0       0       0       0       0       0
  4898 ;;      Totals:         7       0       0       0       0       0       0
  4899 ;;Total ram usage:        7 bytes
  4900 ;; Hardware stack levels used: 1
  4901 ;; Hardware stack levels required when called: 1
  4902 ;; This function calls:
  4903 ;;		Nothing
  4904 ;; This function is called by:
  4905 ;;		_display_speed
  4906 ;;		_read_password
  4907 ;; This function uses a non-reentrant model
  4908 ;;
  4909                           
  4910                           	psect	text24
  4911   001FF4                     __ptext24:
  4912                           	callstack 0
  4913   001FF4                     ___lwdiv:
  4914                           	callstack 28
  4915   001FF4  0E00               	movlw	0
  4916   001FF6  6E06               	movwf	(___lwdiv@quotient+1)^0,c
  4917   001FF8  0E00               	movlw	0
  4918   001FFA  6E05               	movwf	___lwdiv@quotient^0,c
  4919   001FFC  5003               	movf	___lwdiv@divisor^0,w,c
  4920   001FFE  1004               	iorwf	(___lwdiv@divisor+1)^0,w,c
  4921   002000  B4D8               	btfsc	status,2,c
  4922   002002  EF05  F010         	goto	u2521
  4923   002006  EF07  F010         	goto	u2520
  4924   00200A                     u2521:
  4925   00200A  EF2F  F010         	goto	l1132
  4926   00200E                     u2520:
  4927   00200E  0E01               	movlw	1
  4928   002010  6E07               	movwf	___lwdiv@counter^0,c
  4929   002012  EF0F  F010         	goto	l3066
  4930   002016                     l3064:
  4931   002016  90D8               	bcf	status,0,c
  4932   002018  3603               	rlcf	___lwdiv@divisor^0,f,c
  4933   00201A  3604               	rlcf	(___lwdiv@divisor+1)^0,f,c
  4934   00201C  2A07               	incf	___lwdiv@counter^0,f,c
  4935   00201E                     l3066:
  4936   00201E  AE04               	btfss	(___lwdiv@divisor+1)^0,7,c
  4937   002020  EF14  F010         	goto	u2531
  4938   002024  EF16  F010         	goto	u2530
  4939   002028                     u2531:
  4940   002028  EF0B  F010         	goto	l3064
  4941   00202C                     u2530:
  4942   00202C                     l3068:
  4943   00202C  90D8               	bcf	status,0,c
  4944   00202E  3605               	rlcf	___lwdiv@quotient^0,f,c
  4945   002030  3606               	rlcf	(___lwdiv@quotient+1)^0,f,c
  4946   002032  5003               	movf	___lwdiv@divisor^0,w,c
  4947   002034  5C01               	subwf	___lwdiv@dividend^0,w,c
  4948   002036  5004               	movf	(___lwdiv@divisor+1)^0,w,c
  4949   002038  5802               	subwfb	(___lwdiv@dividend+1)^0,w,c
  4950   00203A  A0D8               	btfss	status,0,c
  4951   00203C  EF22  F010         	goto	u2541
  4952   002040  EF24  F010         	goto	u2540
  4953   002044                     u2541:
  4954   002044  EF29  F010         	goto	l3076
  4955   002048                     u2540:
  4956   002048  5003               	movf	___lwdiv@divisor^0,w,c
  4957   00204A  5E01               	subwf	___lwdiv@dividend^0,f,c
  4958   00204C  5004               	movf	(___lwdiv@divisor+1)^0,w,c
  4959   00204E  5A02               	subwfb	(___lwdiv@dividend+1)^0,f,c
  4960   002050  8005               	bsf	___lwdiv@quotient^0,0,c
  4961   002052                     l3076:
  4962   002052  90D8               	bcf	status,0,c
  4963   002054  3204               	rrcf	(___lwdiv@divisor+1)^0,f,c
  4964   002056  3203               	rrcf	___lwdiv@divisor^0,f,c
  4965   002058  2E07               	decfsz	___lwdiv@counter^0,f,c
  4966   00205A  EF16  F010         	goto	l3068
  4967   00205E                     l1132:
  4968   00205E  C005  F001         	movff	___lwdiv@quotient,?___lwdiv
  4969   002062  C006  F002         	movff	___lwdiv@quotient+1,?___lwdiv+1
  4970   002066  0012               	return		;funcret
  4971   002068                     __end_of___lwdiv:
  4972                           	callstack 0
  4973                           
  4974 ;; *************** function _display_dashboard *****************
  4975 ;; Defined at:
  4976 ;;		line 37 in file "car_black_box.c"
  4977 ;; Parameters:    Size  Location     Type
  4978 ;;  key             1    wreg     unsigned char 
  4979 ;; Auto vars:     Size  Location     Type
  4980 ;;  key             1   16[COMRAM] unsigned char 
  4981 ;; Return value:  Size  Location     Type
  4982 ;;                  1    wreg      void 
  4983 ;; Registers used:
  4984 ;;		wreg, fsr1l, fsr1h, fsr2l, fsr2h, status,2, status,0, tblptrl, tblptrh, tblptru, cstack
  4985 ;; Tracked objects:
  4986 ;;		On entry : 0/0
  4987 ;;		On exit  : 0/0
  4988 ;;		Unchanged: 0/0
  4989 ;; Data sizes:     COMRAM   BANK0   BANK1   BANK2   BANK3   BANK4   BANK5
  4990 ;;      Params:         0       0       0       0       0       0       0
  4991 ;;      Locals:         1       0       0       0       0       0       0
  4992 ;;      Temps:          0       0       0       0       0       0       0
  4993 ;;      Totals:         1       0       0       0       0       0       0
  4994 ;;Total ram usage:        1 bytes
  4995 ;; Hardware stack levels used: 1
  4996 ;; Hardware stack levels required when called: 6
  4997 ;; This function calls:
  4998 ;;		_clcd_print
  4999 ;;		_gear_monitor
  5000 ;; This function is called by:
  5001 ;;		_main
  5002 ;; This function uses a non-reentrant model
  5003 ;;
  5004                           
  5005                           	psect	text25
  5006   002208                     __ptext25:
  5007                           	callstack 0
  5008   002208                     _display_dashboard:
  5009                           	callstack 24
  5010                           
  5011                           ;incstack = 0
  5012                           ;display_dashboard@key stored from wreg
  5013   002208  6E11               	movwf	display_dashboard@key^0,c
  5014   00220A                     
  5015                           ;car_black_box.c: 38:     clcd_print("  TIME    EV  SP", (0x80 + (0)));
  5016   00220A  0E0D               	movlw	low STR_19
  5017   00220C  6E03               	movwf	clcd_print@data^0,c
  5018   00220E  0E2F               	movlw	high STR_19
  5019   002210  6E04               	movwf	(clcd_print@data+1)^0,c
  5020   002212  0E80               	movlw	128
  5021   002214  6E05               	movwf	clcd_print@addr^0,c
  5022   002216  EC6D  F010         	call	_clcd_print	;wreg free
  5023   00221A                     
  5024                           ;car_black_box.c: 39:     if (key == 1 || key == 2 || key == 3) {
  5025   00221A  0411               	decf	display_dashboard@key^0,w,c
  5026   00221C  B4D8               	btfsc	status,2,c
  5027   00221E  EF13  F011         	goto	u2651
  5028   002222  EF15  F011         	goto	u2650
  5029   002226                     u2651:
  5030   002226  EF27  F011         	goto	l3174
  5031   00222A                     u2650:
  5032   00222A  0E02               	movlw	2
  5033   00222C  1811               	xorwf	display_dashboard@key^0,w,c
  5034   00222E  B4D8               	btfsc	status,2,c
  5035   002230  EF1C  F011         	goto	u2661
  5036   002234  EF1E  F011         	goto	u2660
  5037   002238                     u2661:
  5038   002238  EF27  F011         	goto	l3174
  5039   00223C                     u2660:
  5040   00223C  0E03               	movlw	3
  5041   00223E  1811               	xorwf	display_dashboard@key^0,w,c
  5042   002240  A4D8               	btfss	status,2,c
  5043   002242  EF25  F011         	goto	u2671
  5044   002246  EF27  F011         	goto	u2670
  5045   00224A                     u2671:
  5046   00224A  EF2A  F011         	goto	l3176
  5047   00224E                     u2670:
  5048   00224E                     l3174:
  5049                           
  5050                           ;car_black_box.c: 40:         gear_monitor(key);
  5051   00224E  5011               	movf	display_dashboard@key^0,w,c
  5052   002250  ECE1  F00C         	call	_gear_monitor
  5053   002254                     l3176:
  5054                           
  5055                           ;car_black_box.c: 42:     clcd_print(event, (0xC0 + (0)));
  5056   002254  0E86               	movlw	low _event
  5057   002256  6E03               	movwf	clcd_print@data^0,c
  5058   002258  0E00               	movlw	high _event
  5059   00225A  6E04               	movwf	(clcd_print@data+1)^0,c
  5060   00225C  0EC0               	movlw	192
  5061   00225E  6E05               	movwf	clcd_print@addr^0,c
  5062   002260  EC6D  F010         	call	_clcd_print	;wreg free
  5063   002264  0012               	return		;funcret
  5064   002266                     __end_of_display_dashboard:
  5065                           	callstack 0
  5066                           
  5067 ;; *************** function _gear_monitor *****************
  5068 ;; Defined at:
  5069 ;;		line 67 in file "car_black_box.c"
  5070 ;; Parameters:    Size  Location     Type
  5071 ;;  key             1    wreg     unsigned char 
  5072 ;; Auto vars:     Size  Location     Type
  5073 ;;  key             1   15[COMRAM] unsigned char 
  5074 ;; Return value:  Size  Location     Type
  5075 ;;                  1    wreg      void 
  5076 ;; Registers used:
  5077 ;;		wreg, fsr2l, fsr2h, status,2, status,0, tblptrl, tblptrh, tblptru, cstack
  5078 ;; Tracked objects:
  5079 ;;		On entry : 0/0
  5080 ;;		On exit  : 0/0
  5081 ;;		Unchanged: 0/0
  5082 ;; Data sizes:     COMRAM   BANK0   BANK1   BANK2   BANK3   BANK4   BANK5
  5083 ;;      Params:         0       0       0       0       0       0       0
  5084 ;;      Locals:         1       0       0       0       0       0       0
  5085 ;;      Temps:          2       0       0       0       0       0       0
  5086 ;;      Totals:         3       0       0       0       0       0       0
  5087 ;;Total ram usage:        3 bytes
  5088 ;; Hardware stack levels used: 1
  5089 ;; Hardware stack levels required when called: 5
  5090 ;; This function calls:
  5091 ;;		_store_event
  5092 ;; This function is called by:
  5093 ;;		_display_dashboard
  5094 ;; This function uses a non-reentrant model
  5095 ;;
  5096                           
  5097                           	psect	text26
  5098   0019C2                     __ptext26:
  5099                           	callstack 0
  5100   0019C2                     _gear_monitor:
  5101                           	callstack 24
  5102                           
  5103                           ;incstack = 0
  5104                           ;gear_monitor@key stored from wreg
  5105   0019C2  6E10               	movwf	gear_monitor@key^0,c
  5106   0019C4                     
  5107                           ;car_black_box.c: 68:     if (key == 1 && previous_key != 1) {
  5108   0019C4  0410               	decf	gear_monitor@key^0,w,c
  5109   0019C6  A4D8               	btfss	status,2,c
  5110   0019C8  EFE8  F00C         	goto	u2251
  5111   0019CC  EFEA  F00C         	goto	u2250
  5112   0019D0                     u2251:
  5113   0019D0  EFFB  F00C         	goto	l2926
  5114   0019D4                     u2250:
  5115   0019D4  044B               	decf	_previous_key^0,w,c
  5116   0019D6  104C               	iorwf	(_previous_key+1)^0,w,c
  5117   0019D8  B4D8               	btfsc	status,2,c
  5118   0019DA  EFF1  F00C         	goto	u2261
  5119   0019DE  EFF3  F00C         	goto	u2260
  5120   0019E2                     u2261:
  5121   0019E2  EFFB  F00C         	goto	l2926
  5122   0019E6                     u2260:
  5123   0019E6                     
  5124                           ;car_black_box.c: 69:         gear_flag = 1;
  5125   0019E6  0E01               	movlw	1
  5126   0019E8  6E57               	movwf	_gear_flag^0,c
  5127                           
  5128                           ;car_black_box.c: 70:         gear_index = 7;
  5129   0019EA  0E00               	movlw	0
  5130   0019EC  6E52               	movwf	(_gear_index+1)^0,c
  5131   0019EE  0E07               	movlw	7
  5132   0019F0  6E51               	movwf	_gear_index^0,c
  5133                           
  5134                           ;car_black_box.c: 71:     } else if (key == 2 || key == 3) {
  5135   0019F2  EF6E  F00D         	goto	l2956
  5136   0019F6                     l2926:
  5137   0019F6  0E02               	movlw	2
  5138   0019F8  1810               	xorwf	gear_monitor@key^0,w,c
  5139   0019FA  B4D8               	btfsc	status,2,c
  5140   0019FC  EF02  F00D         	goto	u2271
  5141   001A00  EF04  F00D         	goto	u2270
  5142   001A04                     u2271:
  5143   001A04  EF0D  F00D         	goto	l2930
  5144   001A08                     u2270:
  5145   001A08  0E03               	movlw	3
  5146   001A0A  1810               	xorwf	gear_monitor@key^0,w,c
  5147   001A0C  A4D8               	btfss	status,2,c
  5148   001A0E  EF0B  F00D         	goto	u2281
  5149   001A12  EF0D  F00D         	goto	u2280
  5150   001A16                     u2281:
  5151   001A16  EF6E  F00D         	goto	l2956
  5152   001A1A                     u2280:
  5153   001A1A                     l2930:
  5154                           
  5155                           ;car_black_box.c: 72:         if (gear_index == 7 && key == 2 && previous_key != 2) {
  5156   001A1A  0E07               	movlw	7
  5157   001A1C  1851               	xorwf	_gear_index^0,w,c
  5158   001A1E  1052               	iorwf	(_gear_index+1)^0,w,c
  5159   001A20  A4D8               	btfss	status,2,c
  5160   001A22  EF15  F00D         	goto	u2291
  5161   001A26  EF17  F00D         	goto	u2290
  5162   001A2A                     u2291:
  5163   001A2A  EF30  F00D         	goto	l2938
  5164   001A2E                     u2290:
  5165   001A2E  0E02               	movlw	2
  5166   001A30  1810               	xorwf	gear_monitor@key^0,w,c
  5167   001A32  A4D8               	btfss	status,2,c
  5168   001A34  EF1E  F00D         	goto	u2301
  5169   001A38  EF20  F00D         	goto	u2300
  5170   001A3C                     u2301:
  5171   001A3C  EF30  F00D         	goto	l2938
  5172   001A40                     u2300:
  5173   001A40  0E02               	movlw	2
  5174   001A42  184B               	xorwf	_previous_key^0,w,c
  5175   001A44  104C               	iorwf	(_previous_key+1)^0,w,c
  5176   001A46  B4D8               	btfsc	status,2,c
  5177   001A48  EF28  F00D         	goto	u2311
  5178   001A4C  EF2A  F00D         	goto	u2310
  5179   001A50                     u2311:
  5180   001A50  EF30  F00D         	goto	l2938
  5181   001A54                     u2310:
  5182   001A54                     
  5183                           ;car_black_box.c: 73:             gear_flag = 1;
  5184   001A54  0E01               	movlw	1
  5185   001A56  6E57               	movwf	_gear_flag^0,c
  5186                           
  5187                           ;car_black_box.c: 74:             gear_index = 0;
  5188   001A58  0E00               	movlw	0
  5189   001A5A  6E52               	movwf	(_gear_index+1)^0,c
  5190   001A5C  0E00               	movlw	0
  5191   001A5E  6E51               	movwf	_gear_index^0,c
  5192   001A60                     l2938:
  5193                           
  5194                           ;car_black_box.c: 76:         if (key == 2 && gear_index < 6) {
  5195   001A60  0E02               	movlw	2
  5196   001A62  1810               	xorwf	gear_monitor@key^0,w,c
  5197   001A64  A4D8               	btfss	status,2,c
  5198   001A66  EF37  F00D         	goto	u2321
  5199   001A6A  EF39  F00D         	goto	u2320
  5200   001A6E                     u2321:
  5201   001A6E  EF4A  F00D         	goto	l2946
  5202   001A72                     u2320:
  5203   001A72  5052               	movf	(_gear_index+1)^0,w,c
  5204   001A74  E107               	bnz	u2331
  5205   001A76  0E06               	movlw	6
  5206   001A78  5C51               	subwf	_gear_index^0,w,c
  5207   001A7A  B0D8               	btfsc	status,0,c
  5208   001A7C  EF42  F00D         	goto	u2331
  5209   001A80  EF44  F00D         	goto	u2330
  5210   001A84                     u2331:
  5211   001A84  EF4A  F00D         	goto	l2946
  5212   001A88                     u2330:
  5213   001A88                     
  5214                           ;car_black_box.c: 77:             gear_index++;
  5215   001A88  4A51               	infsnz	_gear_index^0,f,c
  5216   001A8A  2A52               	incf	(_gear_index+1)^0,f,c
  5217   001A8C                     l2944:
  5218                           
  5219                           ;car_black_box.c: 78:             gear_flag = 1;
  5220   001A8C  0E01               	movlw	1
  5221   001A8E  6E57               	movwf	_gear_flag^0,c
  5222                           
  5223                           ;car_black_box.c: 79:         } else if (key == 3 && gear_index > 1 && gear_index < 7) {
  5224   001A90  EF6E  F00D         	goto	l2956
  5225   001A94                     l2946:
  5226   001A94  0E03               	movlw	3
  5227   001A96  1810               	xorwf	gear_monitor@key^0,w,c
  5228   001A98  A4D8               	btfss	status,2,c
  5229   001A9A  EF51  F00D         	goto	u2341
  5230   001A9E  EF53  F00D         	goto	u2340
  5231   001AA2                     u2341:
  5232   001AA2  EF6E  F00D         	goto	l183
  5233   001AA6                     u2340:
  5234   001AA6  5052               	movf	(_gear_index+1)^0,w,c
  5235   001AA8  E109               	bnz	u2350
  5236   001AAA  0E02               	movlw	2
  5237   001AAC  5C51               	subwf	_gear_index^0,w,c
  5238   001AAE  A0D8               	btfss	status,0,c
  5239   001AB0  EF5C  F00D         	goto	u2351
  5240   001AB4  EF5E  F00D         	goto	u2350
  5241   001AB8                     u2351:
  5242   001AB8  EF6E  F00D         	goto	l183
  5243   001ABC                     u2350:
  5244   001ABC  5052               	movf	(_gear_index+1)^0,w,c
  5245   001ABE  E107               	bnz	u2361
  5246   001AC0  0E07               	movlw	7
  5247   001AC2  5C51               	subwf	_gear_index^0,w,c
  5248   001AC4  B0D8               	btfsc	status,0,c
  5249   001AC6  EF67  F00D         	goto	u2361
  5250   001ACA  EF69  F00D         	goto	u2360
  5251   001ACE                     u2361:
  5252   001ACE  EF6E  F00D         	goto	l183
  5253   001AD2                     u2360:
  5254   001AD2                     
  5255                           ;car_black_box.c: 80:             gear_index--;
  5256   001AD2  0651               	decf	_gear_index^0,f,c
  5257   001AD4  A0D8               	btfss	status,0,c
  5258   001AD6  0652               	decf	(_gear_index+1)^0,f,c
  5259   001AD8  EF46  F00D         	goto	l2944
  5260   001ADC                     l183:
  5261   001ADC                     l2956:
  5262                           
  5263                           ;car_black_box.c: 84:     if (gear_flag == 1) {
  5264   001ADC  0457               	decf	_gear_flag^0,w,c
  5265   001ADE  A4D8               	btfss	status,2,c
  5266   001AE0  EF74  F00D         	goto	u2371
  5267   001AE4  EF76  F00D         	goto	u2370
  5268   001AE8                     u2371:
  5269   001AE8  EFA6  F00D         	goto	l2966
  5270   001AEC                     u2370:
  5271   001AEC                     
  5272                           ;car_black_box.c: 85:         gear_flag = 0;
  5273   001AEC  0E00               	movlw	0
  5274   001AEE  6E57               	movwf	_gear_flag^0,c
  5275   001AF0                     
  5276                           ;car_black_box.c: 86:         event[10] = gear_data[gear_index][0];
  5277   001AF0  90D8               	bcf	status,0,c
  5278   001AF2  3451               	rlcf	_gear_index^0,w,c
  5279   001AF4  6ED9               	movwf	fsr2l,c
  5280   001AF6  3452               	rlcf	(_gear_index+1)^0,w,c
  5281   001AF8  6EDA               	movwf	fsr2h,c
  5282   001AFA  0E60               	movlw	low _gear_data
  5283   001AFC  26D9               	addwf	fsr2l,f,c
  5284   001AFE  0E00               	movlw	high _gear_data
  5285   001B00  22DA               	addwfc	fsr2h,f,c
  5286   001B02  CFDE FFF6          	movff	postinc2,tblptrl
  5287   001B06  CFDD FFF7          	movff	postdec2,tblptrh
  5288   001B0A                     	if	0	;tblptru may be non-zero
  5289   001B0A                     	endif
  5290   001B0A                     	if	0	;tblptru may be non-zero
  5291   001B0A                     	endif
  5292   001B0A  0008               	tblrd		*
  5293   001B0C  CFF5 F090          	movff	tablat,_event+10
  5294   001B10                     
  5295                           ;car_black_box.c: 87:         event[11] = gear_data[gear_index][1];
  5296   001B10  90D8               	bcf	status,0,c
  5297   001B12  3451               	rlcf	_gear_index^0,w,c
  5298   001B14  6ED9               	movwf	fsr2l,c
  5299   001B16  3452               	rlcf	(_gear_index+1)^0,w,c
  5300   001B18  6EDA               	movwf	fsr2h,c
  5301   001B1A  0E60               	movlw	low _gear_data
  5302   001B1C  26D9               	addwf	fsr2l,f,c
  5303   001B1E  0E00               	movlw	high _gear_data
  5304   001B20  22DA               	addwfc	fsr2h,f,c
  5305   001B22  CFDE F00E          	movff	postinc2,??_gear_monitor
  5306   001B26  CFDD F00F          	movff	postdec2,??_gear_monitor+1
  5307   001B2A  0E01               	movlw	1
  5308   001B2C  260E               	addwf	??_gear_monitor^0,f,c
  5309   001B2E  0E00               	movlw	0
  5310   001B30  220F               	addwfc	(??_gear_monitor+1)^0,f,c
  5311   001B32  C00E  FFF6         	movff	??_gear_monitor,tblptrl
  5312   001B36  C00F  FFF7         	movff	??_gear_monitor+1,tblptrh
  5313   001B3A                     	if	0	;tblptru may be non-zero
  5314   001B3A                     	endif
  5315   001B3A                     	if	0	;tblptru may be non-zero
  5316   001B3A                     	endif
  5317   001B3A  0008               	tblrd		*
  5318   001B3C  CFF5 F091          	movff	tablat,_event+11
  5319   001B40                     
  5320                           ;car_black_box.c: 88:         store_event(event);
  5321   001B40  0E86               	movlw	low _event
  5322   001B42  6E06               	movwf	store_event@event^0,c
  5323   001B44  0E00               	movlw	high _event
  5324   001B46  6E07               	movwf	(store_event@event+1)^0,c
  5325   001B48  ECB1  F00E         	call	_store_event	;wreg free
  5326   001B4C                     l2966:
  5327                           
  5328                           ;car_black_box.c: 90:     previous_key = key;
  5329   001B4C  C010  F04B         	movff	gear_monitor@key,_previous_key
  5330   001B50  6A4C               	clrf	(_previous_key+1)^0,c
  5331   001B52  0012               	return		;funcret
  5332   001B54                     __end_of_gear_monitor:
  5333                           	callstack 0
  5334                           
  5335 ;; *************** function _clear_log *****************
  5336 ;; Defined at:
  5337 ;;		line 395 in file "car_black_box.c"
  5338 ;; Parameters:    Size  Location     Type
  5339 ;;		None
  5340 ;; Auto vars:     Size  Location     Type
  5341 ;;		None
  5342 ;; Return value:  Size  Location     Type
  5343 ;;                  1    wreg      void 
  5344 ;; Registers used:
  5345 ;;		wreg, fsr1l, fsr1h, fsr2l, fsr2h, status,2, status,0, tblptrl, tblptrh, tblptru, cstack
  5346 ;; Tracked objects:
  5347 ;;		On entry : 0/0
  5348 ;;		On exit  : 0/0
  5349 ;;		Unchanged: 0/0
  5350 ;; Data sizes:     COMRAM   BANK0   BANK1   BANK2   BANK3   BANK4   BANK5
  5351 ;;      Params:         0       0       0       0       0       0       0
  5352 ;;      Locals:         0       0       0       0       0       0       0
  5353 ;;      Temps:          2       0       0       0       0       0       0
  5354 ;;      Totals:         2       0       0       0       0       0       0
  5355 ;;Total ram usage:        2 bytes
  5356 ;; Hardware stack levels used: 1
  5357 ;; Hardware stack levels required when called: 5
  5358 ;; This function calls:
  5359 ;;		_clcd_print
  5360 ;;		_store_event
  5361 ;; This function is called by:
  5362 ;;		_main
  5363 ;; This function uses a non-reentrant model
  5364 ;;
  5365                           
  5366                           	psect	text27
  5367   002266                     __ptext27:
  5368                           	callstack 0
  5369   002266                     _clear_log:
  5370                           	callstack 25
  5371   002266                     
  5372                           ;car_black_box.c: 396:     clcd_print("   Log Cleared   ", (0x80 + (0)));
  5373   002266  0E2F               	movlw	low STR_35
  5374   002268  6E03               	movwf	clcd_print@data^0,c
  5375   00226A  0E2E               	movlw	high STR_35
  5376   00226C  6E04               	movwf	(clcd_print@data+1)^0,c
  5377   00226E  0E80               	movlw	128
  5378   002270  6E05               	movwf	clcd_print@addr^0,c
  5379   002272  EC6D  F010         	call	_clcd_print	;wreg free
  5380                           
  5381                           ;car_black_box.c: 397:     clcd_print("  Successfully  ", (0xC0 + (0)));
  5382   002276  0EC9               	movlw	low STR_36
  5383   002278  6E03               	movwf	clcd_print@data^0,c
  5384   00227A  0E2E               	movlw	high STR_36
  5385   00227C  6E04               	movwf	(clcd_print@data+1)^0,c
  5386   00227E  0EC0               	movlw	192
  5387   002280  6E05               	movwf	clcd_print@addr^0,c
  5388   002282  EC6D  F010         	call	_clcd_print	;wreg free
  5389   002286                     
  5390                           ;car_black_box.c: 398:     index_eeprom = 0;
  5391   002286  0E00               	movlw	0
  5392   002288  0100               	movlb	0	; () banked
  5393   00228A  6FB1               	movwf	(_index_eeprom+1)& (0+255),b
  5394   00228C  0E00               	movlw	0
  5395   00228E  6FB0               	movwf	_index_eeprom& (0+255),b
  5396   002290                     
  5397                           ; BSR set to: 0
  5398                           ;car_black_box.c: 399:     count_event = 0;
  5399   002290  0E00               	movlw	0
  5400   002292  6E44               	movwf	(_count_event+1)^0,c
  5401   002294  0E00               	movlw	0
  5402   002296  6E43               	movwf	_count_event^0,c
  5403   002298                     
  5404                           ; BSR set to: 0
  5405                           ;car_black_box.c: 400:     total_index = 0;
  5406   002298  0E00               	movlw	0
  5407   00229A  6E58               	movwf	_total_index^0,c
  5408   00229C                     
  5409                           ; BSR set to: 0
  5410                           ;car_black_box.c: 401:     store_event(event);
  5411   00229C  0E86               	movlw	low _event
  5412   00229E  6E06               	movwf	store_event@event^0,c
  5413   0022A0  0E00               	movlw	high _event
  5414   0022A2  6E07               	movwf	(store_event@event+1)^0,c
  5415   0022A4  ECB1  F00E         	call	_store_event	;wreg free
  5416   0022A8                     
  5417                           ;car_black_box.c: 402:     _delay((unsigned long)((5000)*(20000000/4000.0)));
  5418   0022A8  0E7F               	movlw	127
  5419   0022AA  6E0F               	movwf	(??_clear_log+1)^0,c
  5420   0022AC  0ED4               	movlw	212
  5421   0022AE  6E0E               	movwf	??_clear_log^0,c
  5422   0022B0  0E32               	movlw	50
  5423   0022B2                     u4387:
  5424   0022B2  2EE8               	decfsz	wreg,f,c
  5425   0022B4  D7FE               	bra	u4387
  5426   0022B6  2E0E               	decfsz	??_clear_log^0,f,c
  5427   0022B8  D7FC               	bra	u4387
  5428   0022BA  2E0F               	decfsz	(??_clear_log+1)^0,f,c
  5429   0022BC  D7FA               	bra	u4387
  5430   0022BE  0012               	return		;funcret
  5431   0022C0                     __end_of_clear_log:
  5432                           	callstack 0
  5433                           
  5434 ;; *************** function _change_password *****************
  5435 ;; Defined at:
  5436 ;;		line 407 in file "car_black_box.c"
  5437 ;; Parameters:    Size  Location     Type
  5438 ;;  key             1    wreg     unsigned char 
  5439 ;; Auto vars:     Size  Location     Type
  5440 ;;  key             1   13[COMRAM] unsigned char 
  5441 ;;  i               2   11[COMRAM] int 
  5442 ;; Return value:  Size  Location     Type
  5443 ;;                  1    wreg      void 
  5444 ;; Registers used:
  5445 ;;		wreg, fsr1l, fsr1h, fsr2l, fsr2h, status,2, status,0, tblptrl, tblptrh, tblptru, cstack
  5446 ;; Tracked objects:
  5447 ;;		On entry : 0/0
  5448 ;;		On exit  : 0/0
  5449 ;;		Unchanged: 0/0
  5450 ;; Data sizes:     COMRAM   BANK0   BANK1   BANK2   BANK3   BANK4   BANK5
  5451 ;;      Params:         0       0       0       0       0       0       0
  5452 ;;      Locals:         3       0       0       0       0       0       0
  5453 ;;      Temps:          2       0       0       0       0       0       0
  5454 ;;      Totals:         5       0       0       0       0       0       0
  5455 ;;Total ram usage:        5 bytes
  5456 ;; Hardware stack levels used: 1
  5457 ;; Hardware stack levels required when called: 4
  5458 ;; This function calls:
  5459 ;;		_clcd_print
  5460 ;;		_clcd_putch
  5461 ;;		_validate_password
  5462 ;;		_write_external_eeprom
  5463 ;; This function is called by:
  5464 ;;		_main
  5465 ;; This function uses a non-reentrant model
  5466 ;;
  5467                           
  5468                           	psect	text28
  5469   000012                     __ptext28:
  5470                           	callstack 0
  5471   000012                     _change_password:
  5472                           	callstack 26
  5473                           
  5474                           ;incstack = 0
  5475                           ;change_password@key stored from wreg
  5476   000012  6E0E               	movwf	change_password@key^0,c
  5477   000014                     
  5478                           ;car_black_box.c: 408:     if (pass_flag == 0) {
  5479   000014  5055               	movf	_pass_flag^0,w,c
  5480   000016  A4D8               	btfss	status,2,c
  5481   000018  EF10  F000         	goto	u3481
  5482   00001C  EF12  F000         	goto	u3480
  5483   000020                     u3481:
  5484   000020  EFBB  F000         	goto	l3616
  5485   000024                     u3480:
  5486   000024                     
  5487                           ;car_black_box.c: 409:         clcd_print(" Enter Password ", (0x80 + (0)));
  5488   000024  0EEB               	movlw	low STR_37
  5489   000026  6E03               	movwf	clcd_print@data^0,c
  5490   000028  0E2E               	movlw	high STR_37
  5491   00002A  6E04               	movwf	(clcd_print@data+1)^0,c
  5492   00002C  0E80               	movlw	128
  5493   00002E  6E05               	movwf	clcd_print@addr^0,c
  5494   000030  EC6D  F010         	call	_clcd_print	;wreg free
  5495   000034                     
  5496                           ;car_black_box.c: 410:         if (key == 11) {
  5497   000034  0E0B               	movlw	11
  5498   000036  180E               	xorwf	change_password@key^0,w,c
  5499   000038  A4D8               	btfss	status,2,c
  5500   00003A  EF21  F000         	goto	u3491
  5501   00003E  EF23  F000         	goto	u3490
  5502   000042                     u3491:
  5503   000042  EF39  F000         	goto	l3576
  5504   000046                     u3490:
  5505   000046                     
  5506                           ;car_black_box.c: 411:             enter_password[index] = '1';
  5507   000046  0ECA               	movlw	low _enter_password
  5508   000048  244F               	addwf	_index^0,w,c
  5509   00004A  6ED9               	movwf	fsr2l,c
  5510   00004C  0E00               	movlw	high _enter_password
  5511   00004E  2050               	addwfc	(_index+1)^0,w,c
  5512   000050  6EDA               	movwf	fsr2h,c
  5513   000052  0E31               	movlw	49
  5514   000054  6EDF               	movwf	indf2,c
  5515   000056                     
  5516                           ;car_black_box.c: 412:             clcd_putch('*', (0xC0 + (index + 3)));
  5517   000056  504F               	movf	_index^0,w,c
  5518   000058  0FC3               	addlw	195
  5519   00005A  6E08               	movwf	clcd_putch@addr^0,c
  5520   00005C  0E2A               	movlw	42
  5521   00005E  ECAD  F012         	call	_clcd_putch
  5522   000062                     l3572:
  5523                           
  5524                           ;car_black_box.c: 413:             sec = 0;
  5525   000062  0E00               	movlw	0
  5526   000064  6E54               	movwf	(_sec+1)^0,c
  5527   000066  0E00               	movlw	0
  5528   000068  6E53               	movwf	_sec^0,c
  5529   00006A                     
  5530                           ;car_black_box.c: 414:             index++;
  5531   00006A  4A4F               	infsnz	_index^0,f,c
  5532   00006C  2A50               	incf	(_index+1)^0,f,c
  5533                           
  5534                           ;car_black_box.c: 415:         } else if (key == 12) {
  5535   00006E  EF52  F000         	goto	l3586
  5536   000072                     l3576:
  5537   000072  0E0C               	movlw	12
  5538   000074  180E               	xorwf	change_password@key^0,w,c
  5539   000076  A4D8               	btfss	status,2,c
  5540   000078  EF40  F000         	goto	u3501
  5541   00007C  EF42  F000         	goto	u3500
  5542   000080                     u3501:
  5543   000080  EF52  F000         	goto	l3586
  5544   000084                     u3500:
  5545   000084                     
  5546                           ;car_black_box.c: 416:             enter_password[index] = '0';
  5547   000084  0ECA               	movlw	low _enter_password
  5548   000086  244F               	addwf	_index^0,w,c
  5549   000088  6ED9               	movwf	fsr2l,c
  5550   00008A  0E00               	movlw	high _enter_password
  5551   00008C  2050               	addwfc	(_index+1)^0,w,c
  5552   00008E  6EDA               	movwf	fsr2h,c
  5553   000090  0E30               	movlw	48
  5554   000092  6EDF               	movwf	indf2,c
  5555   000094                     
  5556                           ;car_black_box.c: 417:             clcd_putch('*', (0xC0 + (index + 3)));
  5557   000094  504F               	movf	_index^0,w,c
  5558   000096  0FC3               	addlw	195
  5559   000098  6E08               	movwf	clcd_putch@addr^0,c
  5560   00009A  0E2A               	movlw	42
  5561   00009C  ECAD  F012         	call	_clcd_putch
  5562   0000A0  EF31  F000         	goto	l3572
  5563   0000A4                     l3586:
  5564                           
  5565                           ;car_black_box.c: 421:         if (index == 4) {
  5566   0000A4  0E04               	movlw	4
  5567   0000A6  184F               	xorwf	_index^0,w,c
  5568   0000A8  1050               	iorwf	(_index+1)^0,w,c
  5569   0000AA  A4D8               	btfss	status,2,c
  5570   0000AC  EF5A  F000         	goto	u3511
  5571   0000B0  EF5C  F000         	goto	u3510
  5572   0000B4                     u3511:
  5573   0000B4  EF0C  F002         	goto	l3710
  5574   0000B8                     u3510:
  5575   0000B8                     
  5576                           ;car_black_box.c: 422:             attempt--;
  5577   0000B8  065C               	decf	_attempt^0,f,c
  5578   0000BA                     
  5579                           ;car_black_box.c: 423:             index = 0;
  5580   0000BA  0E00               	movlw	0
  5581   0000BC  6E50               	movwf	(_index+1)^0,c
  5582   0000BE  0E00               	movlw	0
  5583   0000C0  6E4F               	movwf	_index^0,c
  5584   0000C2                     
  5585                           ;car_black_box.c: 424:             enter_password[4] = '\0';
  5586   0000C2  0E00               	movlw	0
  5587   0000C4  0100               	movlb	0	; () banked
  5588   0000C6  6FCE               	movwf	(_enter_password+4)& (0+255),b
  5589   0000C8                     
  5590                           ; BSR set to: 0
  5591                           ;car_black_box.c: 425:             if ((validate_password(original_password, enter_passw
      +                          ord)) != 0) {
  5592   0000C8  0EA0               	movlw	low _original_password
  5593   0000CA  6E01               	movwf	validate_password@original_password^0,c
  5594   0000CC  0E00               	movlw	high _original_password
  5595   0000CE  6E02               	movwf	(validate_password@original_password+1)^0,c
  5596   0000D0  0ECA               	movlw	low _enter_password
  5597   0000D2  6E03               	movwf	validate_password@enter_password^0,c
  5598   0000D4  0E00               	movlw	high _enter_password
  5599   0000D6  6E04               	movwf	(validate_password@enter_password+1)^0,c
  5600   0000D8  EC6A  F00F         	call	_validate_password	;wreg free
  5601   0000DC  5001               	movf	?_validate_password^0,w,c
  5602   0000DE  1002               	iorwf	(?_validate_password+1)^0,w,c
  5603   0000E0  B4D8               	btfsc	status,2,c
  5604   0000E2  EF75  F000         	goto	u3521
  5605   0000E6  EF77  F000         	goto	u3520
  5606   0000EA                     u3521:
  5607   0000EA  EFA2  F000         	goto	l3606
  5608   0000EE                     u3520:
  5609   0000EE                     
  5610                           ;car_black_box.c: 426:                 clcd_print(" Wrong Password ", (0x80 + (0)));
  5611   0000EE  0EDA               	movlw	low STR_38
  5612   0000F0  6E03               	movwf	clcd_print@data^0,c
  5613   0000F2  0E2E               	movlw	high STR_38
  5614   0000F4  6E04               	movwf	(clcd_print@data+1)^0,c
  5615   0000F6  0E80               	movlw	128
  5616   0000F8  6E05               	movwf	clcd_print@addr^0,c
  5617   0000FA  EC6D  F010         	call	_clcd_print	;wreg free
  5618   0000FE                     
  5619                           ;car_black_box.c: 427:                 clcd_putch(attempt, (0xC0 + (0)));
  5620   0000FE  0EC0               	movlw	192
  5621   000100  6E08               	movwf	clcd_putch@addr^0,c
  5622   000102  505C               	movf	_attempt^0,w,c
  5623   000104  ECAD  F012         	call	_clcd_putch
  5624   000108                     
  5625                           ;car_black_box.c: 428:                 clcd_print("-Attempt Remain", (0xC0 + (1)));
  5626   000108  0EB5               	movlw	low STR_22
  5627   00010A  6E03               	movwf	clcd_print@data^0,c
  5628   00010C  0E2F               	movlw	high STR_22
  5629   00010E  6E04               	movwf	(clcd_print@data+1)^0,c
  5630   000110  0EC1               	movlw	193
  5631   000112  6E05               	movwf	clcd_print@addr^0,c
  5632   000114  EC6D  F010         	call	_clcd_print	;wreg free
  5633   000118                     
  5634                           ;car_black_box.c: 429:                 _delay((unsigned long)((1000)*(20000000/4000.0)))
      +                          ;
  5635   000118  0E1A               	movlw	26
  5636   00011A  6E0B               	movwf	(??_change_password+1)^0,c
  5637   00011C  0E5E               	movlw	94
  5638   00011E  6E0A               	movwf	??_change_password^0,c
  5639   000120  0E6E               	movlw	110
  5640   000122                     u4397:
  5641   000122  2EE8               	decfsz	wreg,f,c
  5642   000124  D7FE               	bra	u4397
  5643   000126  2E0A               	decfsz	??_change_password^0,f,c
  5644   000128  D7FC               	bra	u4397
  5645   00012A  2E0B               	decfsz	(??_change_password+1)^0,f,c
  5646   00012C  D7FA               	bra	u4397
  5647   00012E  D000               	nop2	
  5648   000130                     
  5649                           ;car_black_box.c: 430:                 clcd_print("                ", (0xC0 + (0)));
  5650   000130  0E62               	movlw	low STR_1
  5651   000132  6E03               	movwf	clcd_print@data^0,c
  5652   000134  0E2F               	movlw	high STR_1
  5653   000136  6E04               	movwf	(clcd_print@data+1)^0,c
  5654   000138  0EC0               	movlw	192
  5655   00013A  6E05               	movwf	clcd_print@addr^0,c
  5656   00013C  EC6D  F010         	call	_clcd_print	;wreg free
  5657                           
  5658                           ;car_black_box.c: 431:             } else {
  5659   000140  EFAC  F000         	goto	l3610
  5660   000144                     l3606:
  5661                           
  5662                           ;car_black_box.c: 432:                 clcd_print("                ", (0xC0 + (0)));
  5663   000144  0E62               	movlw	low STR_1
  5664   000146  6E03               	movwf	clcd_print@data^0,c
  5665   000148  0E2F               	movlw	high STR_1
  5666   00014A  6E04               	movwf	(clcd_print@data+1)^0,c
  5667   00014C  0EC0               	movlw	192
  5668   00014E  6E05               	movwf	clcd_print@addr^0,c
  5669   000150  EC6D  F010         	call	_clcd_print	;wreg free
  5670   000154                     
  5671                           ;car_black_box.c: 433:                 pass_flag = 1;
  5672   000154  0E01               	movlw	1
  5673   000156  6E55               	movwf	_pass_flag^0,c
  5674   000158                     l3610:
  5675                           
  5676                           ;car_black_box.c: 435:             if (attempt == '0') {
  5677   000158  0E30               	movlw	48
  5678   00015A  185C               	xorwf	_attempt^0,w,c
  5679   00015C  A4D8               	btfss	status,2,c
  5680   00015E  EFB3  F000         	goto	u3531
  5681   000162  EFB5  F000         	goto	u3530
  5682   000166                     u3531:
  5683   000166  EF0C  F002         	goto	l3710
  5684   00016A                     u3530:
  5685   00016A                     
  5686                           ;car_black_box.c: 436:                 pass_flag = 0;
  5687   00016A  0E00               	movlw	0
  5688   00016C  6E55               	movwf	_pass_flag^0,c
  5689                           
  5690                           ;car_black_box.c: 437:                 enter_flag = 2;
  5691   00016E  0E02               	movlw	2
  5692   000170  6E5A               	movwf	_enter_flag^0,c
  5693   000172  EF5A  F002         	goto	l332
  5694   000176                     l3616:
  5695   000176  0455               	decf	_pass_flag^0,w,c
  5696   000178  A4D8               	btfss	status,2,c
  5697   00017A  EFC1  F000         	goto	u3541
  5698   00017E  EFC3  F000         	goto	u3540
  5699   000182                     u3541:
  5700   000182  EF29  F001         	goto	l3650
  5701   000186                     u3540:
  5702   000186                     
  5703                           ;car_black_box.c: 442:         clcd_print("  New Password  ", (0x80 + (0)));
  5704   000186  0EA7               	movlw	low STR_42
  5705   000188  6E03               	movwf	clcd_print@data^0,c
  5706   00018A  0E2E               	movlw	high STR_42
  5707   00018C  6E04               	movwf	(clcd_print@data+1)^0,c
  5708   00018E  0E80               	movlw	128
  5709   000190  6E05               	movwf	clcd_print@addr^0,c
  5710   000192  EC6D  F010         	call	_clcd_print	;wreg free
  5711   000196                     
  5712                           ;car_black_box.c: 443:         if (key == 11) {
  5713   000196  0E0B               	movlw	11
  5714   000198  180E               	xorwf	change_password@key^0,w,c
  5715   00019A  A4D8               	btfss	status,2,c
  5716   00019C  EFD2  F000         	goto	u3551
  5717   0001A0  EFD4  F000         	goto	u3550
  5718   0001A4                     u3551:
  5719   0001A4  EFEA  F000         	goto	l3630
  5720   0001A8                     u3550:
  5721   0001A8                     
  5722                           ;car_black_box.c: 444:             enter_password[index] = '1';
  5723   0001A8  0ECA               	movlw	low _enter_password
  5724   0001AA  244F               	addwf	_index^0,w,c
  5725   0001AC  6ED9               	movwf	fsr2l,c
  5726   0001AE  0E00               	movlw	high _enter_password
  5727   0001B0  2050               	addwfc	(_index+1)^0,w,c
  5728   0001B2  6EDA               	movwf	fsr2h,c
  5729   0001B4  0E31               	movlw	49
  5730   0001B6  6EDF               	movwf	indf2,c
  5731   0001B8                     
  5732                           ;car_black_box.c: 445:             clcd_putch('*', (0xC0 + (index + 3)));
  5733   0001B8  504F               	movf	_index^0,w,c
  5734   0001BA  0FC3               	addlw	195
  5735   0001BC  6E08               	movwf	clcd_putch@addr^0,c
  5736   0001BE  0E2A               	movlw	42
  5737   0001C0  ECAD  F012         	call	_clcd_putch
  5738   0001C4                     l3626:
  5739                           
  5740                           ;car_black_box.c: 446:             sec = 0;
  5741   0001C4  0E00               	movlw	0
  5742   0001C6  6E54               	movwf	(_sec+1)^0,c
  5743   0001C8  0E00               	movlw	0
  5744   0001CA  6E53               	movwf	_sec^0,c
  5745   0001CC                     
  5746                           ;car_black_box.c: 447:             index++;
  5747   0001CC  4A4F               	infsnz	_index^0,f,c
  5748   0001CE  2A50               	incf	(_index+1)^0,f,c
  5749                           
  5750                           ;car_black_box.c: 448:         } else if (key == 12) {
  5751   0001D0  EF03  F001         	goto	l3640
  5752   0001D4                     l3630:
  5753   0001D4  0E0C               	movlw	12
  5754   0001D6  180E               	xorwf	change_password@key^0,w,c
  5755   0001D8  A4D8               	btfss	status,2,c
  5756   0001DA  EFF1  F000         	goto	u3561
  5757   0001DE  EFF3  F000         	goto	u3560
  5758   0001E2                     u3561:
  5759   0001E2  EF03  F001         	goto	l3640
  5760   0001E6                     u3560:
  5761   0001E6                     
  5762                           ;car_black_box.c: 449:             enter_password[index] = '0';
  5763   0001E6  0ECA               	movlw	low _enter_password
  5764   0001E8  244F               	addwf	_index^0,w,c
  5765   0001EA  6ED9               	movwf	fsr2l,c
  5766   0001EC  0E00               	movlw	high _enter_password
  5767   0001EE  2050               	addwfc	(_index+1)^0,w,c
  5768   0001F0  6EDA               	movwf	fsr2h,c
  5769   0001F2  0E30               	movlw	48
  5770   0001F4  6EDF               	movwf	indf2,c
  5771   0001F6                     
  5772                           ;car_black_box.c: 450:             clcd_putch('*', (0xC0 + (index + 3)));
  5773   0001F6  504F               	movf	_index^0,w,c
  5774   0001F8  0FC3               	addlw	195
  5775   0001FA  6E08               	movwf	clcd_putch@addr^0,c
  5776   0001FC  0E2A               	movlw	42
  5777   0001FE  ECAD  F012         	call	_clcd_putch
  5778   000202  EFE2  F000         	goto	l3626
  5779   000206                     l3640:
  5780                           
  5781                           ;car_black_box.c: 454:         if (index == 4) {
  5782   000206  0E04               	movlw	4
  5783   000208  184F               	xorwf	_index^0,w,c
  5784   00020A  1050               	iorwf	(_index+1)^0,w,c
  5785   00020C  A4D8               	btfss	status,2,c
  5786   00020E  EF0B  F001         	goto	u3571
  5787   000212  EF0D  F001         	goto	u3570
  5788   000216                     u3571:
  5789   000216  EF0C  F002         	goto	l3710
  5790   00021A                     u3570:
  5791   00021A                     
  5792                           ;car_black_box.c: 455:             clcd_print("                ", (0xC0 + (0)));
  5793   00021A  0E62               	movlw	low STR_1
  5794   00021C  6E03               	movwf	clcd_print@data^0,c
  5795   00021E  0E2F               	movlw	high STR_1
  5796   000220  6E04               	movwf	(clcd_print@data+1)^0,c
  5797   000222  0EC0               	movlw	192
  5798   000224  6E05               	movwf	clcd_print@addr^0,c
  5799   000226  EC6D  F010         	call	_clcd_print	;wreg free
  5800   00022A                     
  5801                           ;car_black_box.c: 456:             pass_flag = 2;
  5802   00022A  0E02               	movlw	2
  5803   00022C  6E55               	movwf	_pass_flag^0,c
  5804   00022E                     
  5805                           ;car_black_box.c: 457:             index = 0;
  5806   00022E  0E00               	movlw	0
  5807   000230  6E50               	movwf	(_index+1)^0,c
  5808   000232  0E00               	movlw	0
  5809   000234  6E4F               	movwf	_index^0,c
  5810   000236                     
  5811                           ;car_black_box.c: 458:             _delay((unsigned long)((500)*(20000000/4000.0)));
  5812   000236  0E0D               	movlw	13
  5813   000238  6E0B               	movwf	(??_change_password+1)^0,c
  5814   00023A  0EAF               	movlw	175
  5815   00023C  6E0A               	movwf	??_change_password^0,c
  5816   00023E  0EB6               	movlw	182
  5817   000240                     u4407:
  5818   000240  2EE8               	decfsz	wreg,f,c
  5819   000242  D7FE               	bra	u4407
  5820   000244  2E0A               	decfsz	??_change_password^0,f,c
  5821   000246  D7FC               	bra	u4407
  5822   000248  2E0B               	decfsz	(??_change_password+1)^0,f,c
  5823   00024A  D7FA               	bra	u4407
  5824   00024C  D000               	nop2	
  5825   00024E  EF0C  F002         	goto	l3710
  5826   000252                     l3650:
  5827   000252  0E02               	movlw	2
  5828   000254  1855               	xorwf	_pass_flag^0,w,c
  5829   000256  A4D8               	btfss	status,2,c
  5830   000258  EF30  F001         	goto	u3581
  5831   00025C  EF32  F001         	goto	u3580
  5832   000260                     u3581:
  5833   000260  EF0C  F002         	goto	l3710
  5834   000264                     u3580:
  5835   000264                     
  5836                           ;car_black_box.c: 462:         clcd_print("Confirm Password", (0x80 + (0)));
  5837   000264  0E40               	movlw	low STR_44
  5838   000266  6E03               	movwf	clcd_print@data^0,c
  5839   000268  0E2F               	movlw	high STR_44
  5840   00026A  6E04               	movwf	(clcd_print@data+1)^0,c
  5841   00026C  0E80               	movlw	128
  5842   00026E  6E05               	movwf	clcd_print@addr^0,c
  5843   000270  EC6D  F010         	call	_clcd_print	;wreg free
  5844   000274                     
  5845                           ;car_black_box.c: 463:         if (key == 11) {
  5846   000274  0E0B               	movlw	11
  5847   000276  180E               	xorwf	change_password@key^0,w,c
  5848   000278  A4D8               	btfss	status,2,c
  5849   00027A  EF41  F001         	goto	u3591
  5850   00027E  EF43  F001         	goto	u3590
  5851   000282                     u3591:
  5852   000282  EF59  F001         	goto	l3664
  5853   000286                     u3590:
  5854   000286                     
  5855                           ;car_black_box.c: 464:             confirm_password[index] = '1';
  5856   000286  0EC5               	movlw	low _confirm_password
  5857   000288  244F               	addwf	_index^0,w,c
  5858   00028A  6ED9               	movwf	fsr2l,c
  5859   00028C  0E00               	movlw	high _confirm_password
  5860   00028E  2050               	addwfc	(_index+1)^0,w,c
  5861   000290  6EDA               	movwf	fsr2h,c
  5862   000292  0E31               	movlw	49
  5863   000294  6EDF               	movwf	indf2,c
  5864   000296                     
  5865                           ;car_black_box.c: 465:             clcd_putch('*', (0xC0 + (index + 3)));
  5866   000296  504F               	movf	_index^0,w,c
  5867   000298  0FC3               	addlw	195
  5868   00029A  6E08               	movwf	clcd_putch@addr^0,c
  5869   00029C  0E2A               	movlw	42
  5870   00029E  ECAD  F012         	call	_clcd_putch
  5871   0002A2                     l3660:
  5872                           
  5873                           ;car_black_box.c: 466:             sec = 0;
  5874   0002A2  0E00               	movlw	0
  5875   0002A4  6E54               	movwf	(_sec+1)^0,c
  5876   0002A6  0E00               	movlw	0
  5877   0002A8  6E53               	movwf	_sec^0,c
  5878   0002AA                     
  5879                           ;car_black_box.c: 467:             index++;
  5880   0002AA  4A4F               	infsnz	_index^0,f,c
  5881   0002AC  2A50               	incf	(_index+1)^0,f,c
  5882                           
  5883                           ;car_black_box.c: 468:         } else if (key == 12) {
  5884   0002AE  EF72  F001         	goto	l3674
  5885   0002B2                     l3664:
  5886   0002B2  0E0C               	movlw	12
  5887   0002B4  180E               	xorwf	change_password@key^0,w,c
  5888   0002B6  A4D8               	btfss	status,2,c
  5889   0002B8  EF60  F001         	goto	u3601
  5890   0002BC  EF62  F001         	goto	u3600
  5891   0002C0                     u3601:
  5892   0002C0  EF72  F001         	goto	l3674
  5893   0002C4                     u3600:
  5894   0002C4                     
  5895                           ;car_black_box.c: 469:             confirm_password[index] = '0';
  5896   0002C4  0EC5               	movlw	low _confirm_password
  5897   0002C6  244F               	addwf	_index^0,w,c
  5898   0002C8  6ED9               	movwf	fsr2l,c
  5899   0002CA  0E00               	movlw	high _confirm_password
  5900   0002CC  2050               	addwfc	(_index+1)^0,w,c
  5901   0002CE  6EDA               	movwf	fsr2h,c
  5902   0002D0  0E30               	movlw	48
  5903   0002D2  6EDF               	movwf	indf2,c
  5904   0002D4                     
  5905                           ;car_black_box.c: 470:             clcd_putch('*', (0xC0 + (index + 3)));
  5906   0002D4  504F               	movf	_index^0,w,c
  5907   0002D6  0FC3               	addlw	195
  5908   0002D8  6E08               	movwf	clcd_putch@addr^0,c
  5909   0002DA  0E2A               	movlw	42
  5910   0002DC  ECAD  F012         	call	_clcd_putch
  5911   0002E0  EF51  F001         	goto	l3660
  5912   0002E4                     l3674:
  5913                           
  5914                           ;car_black_box.c: 474:         if (index == 4) {
  5915   0002E4  0E04               	movlw	4
  5916   0002E6  184F               	xorwf	_index^0,w,c
  5917   0002E8  1050               	iorwf	(_index+1)^0,w,c
  5918   0002EA  A4D8               	btfss	status,2,c
  5919   0002EC  EF7A  F001         	goto	u3611
  5920   0002F0  EF7C  F001         	goto	u3610
  5921   0002F4                     u3611:
  5922   0002F4  EF0C  F002         	goto	l3710
  5923   0002F8                     u3610:
  5924   0002F8                     
  5925                           ;car_black_box.c: 475:             index = 0;
  5926   0002F8  0E00               	movlw	0
  5927   0002FA  6E50               	movwf	(_index+1)^0,c
  5928   0002FC  0E00               	movlw	0
  5929   0002FE  6E4F               	movwf	_index^0,c
  5930                           
  5931                           ;car_black_box.c: 476:             confirm_password[4] = '\0';
  5932   000300  0E00               	movlw	0
  5933   000302  0100               	movlb	0	; () banked
  5934   000304  6FC9               	movwf	(_confirm_password+4)& (0+255),b
  5935   000306                     
  5936                           ; BSR set to: 0
  5937                           ;car_black_box.c: 477:             if (validate_password(enter_password, confirm_passwor
      +                          d) == 0) {
  5938   000306  0ECA               	movlw	low _enter_password
  5939   000308  6E01               	movwf	validate_password@original_password^0,c
  5940   00030A  0E00               	movlw	high _enter_password
  5941   00030C  6E02               	movwf	(validate_password@original_password+1)^0,c
  5942   00030E  0EC5               	movlw	low _confirm_password
  5943   000310  6E03               	movwf	validate_password@enter_password^0,c
  5944   000312  0E00               	movlw	high _confirm_password
  5945   000314  6E04               	movwf	(validate_password@enter_password+1)^0,c
  5946   000316  EC6A  F00F         	call	_validate_password	;wreg free
  5947   00031A  5001               	movf	?_validate_password^0,w,c
  5948   00031C  1002               	iorwf	(?_validate_password+1)^0,w,c
  5949   00031E  A4D8               	btfss	status,2,c
  5950   000320  EF94  F001         	goto	u3621
  5951   000324  EF96  F001         	goto	u3620
  5952   000328                     u3621:
  5953   000328  EFE8  F001         	goto	l3700
  5954   00032C                     u3620:
  5955   00032C                     
  5956                           ;car_black_box.c: 478:                 clcd_print("Password changed", (0x80 + (0)));
  5957   00032C  0E2F               	movlw	low STR_45
  5958   00032E  6E03               	movwf	clcd_print@data^0,c
  5959   000330  0E2F               	movlw	high STR_45
  5960   000332  6E04               	movwf	(clcd_print@data+1)^0,c
  5961   000334  0E80               	movlw	128
  5962   000336  6E05               	movwf	clcd_print@addr^0,c
  5963   000338  EC6D  F010         	call	_clcd_print	;wreg free
  5964                           
  5965                           ;car_black_box.c: 479:                 clcd_print("  Successfully  ", (0xC0 + (0)));
  5966   00033C  0EC9               	movlw	low STR_36
  5967   00033E  6E03               	movwf	clcd_print@data^0,c
  5968   000340  0E2E               	movlw	high STR_36
  5969   000342  6E04               	movwf	(clcd_print@data+1)^0,c
  5970   000344  0EC0               	movlw	192
  5971   000346  6E05               	movwf	clcd_print@addr^0,c
  5972   000348  EC6D  F010         	call	_clcd_print	;wreg free
  5973                           
  5974                           ;car_black_box.c: 480:                 while (confirm_password[index]) {
  5975   00034C  EFB8  F001         	goto	l3686
  5976   000350                     l3682:
  5977                           
  5978                           ;car_black_box.c: 481:                     original_password[index] = confirm_password[i
      +                          ndex];
  5979   000350  0EC5               	movlw	low _confirm_password
  5980   000352  244F               	addwf	_index^0,w,c
  5981   000354  6ED9               	movwf	fsr2l,c
  5982   000356  0E00               	movlw	high _confirm_password
  5983   000358  2050               	addwfc	(_index+1)^0,w,c
  5984   00035A  6EDA               	movwf	fsr2h,c
  5985   00035C  0EA0               	movlw	low _original_password
  5986   00035E  244F               	addwf	_index^0,w,c
  5987   000360  6EE1               	movwf	fsr1l,c
  5988   000362  0E00               	movlw	high _original_password
  5989   000364  2050               	addwfc	(_index+1)^0,w,c
  5990   000366  6EE2               	movwf	fsr1h,c
  5991   000368  CFDF FFE7          	movff	indf2,indf1
  5992   00036C                     
  5993                           ;car_black_box.c: 482:                     index++;
  5994   00036C  4A4F               	infsnz	_index^0,f,c
  5995   00036E  2A50               	incf	(_index+1)^0,f,c
  5996   000370                     l3686:
  5997                           
  5998                           ;car_black_box.c: 480:                 while (confirm_password[index]) {
  5999   000370  0EC5               	movlw	low _confirm_password
  6000   000372  244F               	addwf	_index^0,w,c
  6001   000374  6ED9               	movwf	fsr2l,c
  6002   000376  0E00               	movlw	high _confirm_password
  6003   000378  2050               	addwfc	(_index+1)^0,w,c
  6004   00037A  6EDA               	movwf	fsr2h,c
  6005   00037C  50DF               	movf	indf2,w,c
  6006   00037E  A4D8               	btfss	status,2,c
  6007   000380  EFC4  F001         	goto	u3631
  6008   000384  EFC6  F001         	goto	u3630
  6009   000388                     u3631:
  6010   000388  EFA8  F001         	goto	l3682
  6011   00038C                     u3630:
  6012   00038C                     
  6013                           ;car_black_box.c: 484:                 for (int i = 0; i < 4; i++) {
  6014   00038C  0E00               	movlw	0
  6015   00038E  6E0D               	movwf	(change_password@i+1)^0,c
  6016   000390  0E00               	movlw	0
  6017   000392  6E0C               	movwf	change_password@i^0,c
  6018   000394                     l3694:
  6019                           
  6020                           ;car_black_box.c: 485:                     write_external_eeprom(0x46 + i, confirm_passw
      +                          ord[i]);
  6021   000394  0EC5               	movlw	low _confirm_password
  6022   000396  240C               	addwf	change_password@i^0,w,c
  6023   000398  6ED9               	movwf	fsr2l,c
  6024   00039A  0E00               	movlw	high _confirm_password
  6025   00039C  200D               	addwfc	(change_password@i+1)^0,w,c
  6026   00039E  6EDA               	movwf	fsr2h,c
  6027   0003A0  50DF               	movf	indf2,w,c
  6028   0003A2  6E02               	movwf	write_external_eeprom@data^0,c
  6029   0003A4  500C               	movf	change_password@i^0,w,c
  6030   0003A6  0F46               	addlw	70
  6031   0003A8  ECEF  F011         	call	_write_external_eeprom
  6032   0003AC                     
  6033                           ;car_black_box.c: 486:                 }
  6034   0003AC  4A0C               	infsnz	change_password@i^0,f,c
  6035   0003AE  2A0D               	incf	(change_password@i+1)^0,f,c
  6036   0003B0  BE0D               	btfsc	(change_password@i+1)^0,7,c
  6037   0003B2  EFE4  F001         	goto	u3641
  6038   0003B6  500D               	movf	(change_password@i+1)^0,w,c
  6039   0003B8  E109               	bnz	u3640
  6040   0003BA  0E04               	movlw	4
  6041   0003BC  5C0C               	subwf	change_password@i^0,w,c
  6042   0003BE  A0D8               	btfss	status,0,c
  6043   0003C0  EFE4  F001         	goto	u3641
  6044   0003C4  EFE6  F001         	goto	u3640
  6045   0003C8                     u3641:
  6046   0003C8  EFCA  F001         	goto	l3694
  6047   0003CC                     u3640:
  6048   0003CC  EFF8  F001         	goto	l3702
  6049   0003D0                     l3700:
  6050                           
  6051                           ;car_black_box.c: 489:                 clcd_print("    Password    ", (0x80 + (0)));
  6052   0003D0  0E74               	movlw	low STR_47
  6053   0003D2  6E03               	movwf	clcd_print@data^0,c
  6054   0003D4  0E2E               	movlw	high STR_47
  6055   0003D6  6E04               	movwf	(clcd_print@data+1)^0,c
  6056   0003D8  0E80               	movlw	128
  6057   0003DA  6E05               	movwf	clcd_print@addr^0,c
  6058   0003DC  EC6D  F010         	call	_clcd_print	;wreg free
  6059                           
  6060                           ;car_black_box.c: 490:                 clcd_print("   Not Matched   ", (0xC0 + (0)));
  6061   0003E0  0E1D               	movlw	low STR_48
  6062   0003E2  6E03               	movwf	clcd_print@data^0,c
  6063   0003E4  0E2E               	movlw	high STR_48
  6064   0003E6  6E04               	movwf	(clcd_print@data+1)^0,c
  6065   0003E8  0EC0               	movlw	192
  6066   0003EA  6E05               	movwf	clcd_print@addr^0,c
  6067   0003EC  EC6D  F010         	call	_clcd_print	;wreg free
  6068   0003F0                     l3702:
  6069                           
  6070                           ;car_black_box.c: 492:             pass_flag = 0;
  6071   0003F0  0E00               	movlw	0
  6072   0003F2  6E55               	movwf	_pass_flag^0,c
  6073   0003F4                     
  6074                           ;car_black_box.c: 493:             enter_flag = 2;
  6075   0003F4  0E02               	movlw	2
  6076   0003F6  6E5A               	movwf	_enter_flag^0,c
  6077   0003F8                     
  6078                           ;car_black_box.c: 494:             index = 0;
  6079   0003F8  0E00               	movlw	0
  6080   0003FA  6E50               	movwf	(_index+1)^0,c
  6081   0003FC  0E00               	movlw	0
  6082   0003FE  6E4F               	movwf	_index^0,c
  6083   000400                     
  6084                           ;car_black_box.c: 495:             _delay((unsigned long)((1000)*(20000000/4000.0)));
  6085   000400  0E1A               	movlw	26
  6086   000402  6E0B               	movwf	(??_change_password+1)^0,c
  6087   000404  0E5E               	movlw	94
  6088   000406  6E0A               	movwf	??_change_password^0,c
  6089   000408  0E6E               	movlw	110
  6090   00040A                     u4417:
  6091   00040A  2EE8               	decfsz	wreg,f,c
  6092   00040C  D7FE               	bra	u4417
  6093   00040E  2E0A               	decfsz	??_change_password^0,f,c
  6094   000410  D7FC               	bra	u4417
  6095   000412  2E0B               	decfsz	(??_change_password+1)^0,f,c
  6096   000414  D7FA               	bra	u4417
  6097   000416  D000               	nop2	
  6098   000418                     l3710:
  6099                           
  6100                           ;car_black_box.c: 498:     if (sec == 5) {
  6101   000418  0E05               	movlw	5
  6102   00041A  1853               	xorwf	_sec^0,w,c
  6103   00041C  1054               	iorwf	(_sec+1)^0,w,c
  6104   00041E  A4D8               	btfss	status,2,c
  6105   000420  EF14  F002         	goto	u3651
  6106   000424  EF16  F002         	goto	u3650
  6107   000428                     u3651:
  6108   000428  EF20  F002         	goto	l3716
  6109   00042C                     u3650:
  6110   00042C                     
  6111                           ;car_black_box.c: 499:         pass_flag = 0;
  6112   00042C  0E00               	movlw	0
  6113   00042E  6E55               	movwf	_pass_flag^0,c
  6114                           
  6115                           ;car_black_box.c: 500:         enter_flag = 2;
  6116   000430  0E02               	movlw	2
  6117   000432  6E5A               	movwf	_enter_flag^0,c
  6118                           
  6119                           ;car_black_box.c: 501:         index = 0;
  6120   000434  0E00               	movlw	0
  6121   000436  6E50               	movwf	(_index+1)^0,c
  6122   000438  0E00               	movlw	0
  6123   00043A  6E4F               	movwf	_index^0,c
  6124   00043C  EF5A  F002         	goto	l332
  6125   000440                     l3716:
  6126                           
  6127                           ;car_black_box.c: 504:     if (wait++ < 800) {
  6128   000440  504D               	movf	_wait^0,w,c
  6129   000442  6E0A               	movwf	??_change_password^0,c
  6130   000444  504E               	movf	(_wait+1)^0,w,c
  6131   000446  6E0B               	movwf	(??_change_password+1)^0,c
  6132   000448  4A4D               	infsnz	_wait^0,f,c
  6133   00044A  2A4E               	incf	(_wait+1)^0,f,c
  6134   00044C  0E20               	movlw	32
  6135   00044E  5C0A               	subwf	??_change_password^0,w,c
  6136   000450  0E03               	movlw	3
  6137   000452  580B               	subwfb	(??_change_password+1)^0,w,c
  6138   000454  B0D8               	btfsc	status,0,c
  6139   000456  EF2F  F002         	goto	u3661
  6140   00045A  EF31  F002         	goto	u3660
  6141   00045E                     u3661:
  6142   00045E  EF39  F002         	goto	l3720
  6143   000462                     u3660:
  6144   000462                     
  6145                           ;car_black_box.c: 505:         clcd_putch('_', (0xC0 + (index + 3)));
  6146   000462  504F               	movf	_index^0,w,c
  6147   000464  0FC3               	addlw	195
  6148   000466  6E08               	movwf	clcd_putch@addr^0,c
  6149   000468  0E5F               	movlw	95
  6150   00046A  ECAD  F012         	call	_clcd_putch
  6151                           
  6152                           ;car_black_box.c: 506:     } else if (wait > 800) {
  6153   00046E  EF5A  F002         	goto	l332
  6154   000472                     l3720:
  6155   000472  0E21               	movlw	33
  6156   000474  5C4D               	subwf	_wait^0,w,c
  6157   000476  0E03               	movlw	3
  6158   000478  584E               	subwfb	(_wait+1)^0,w,c
  6159   00047A  A0D8               	btfss	status,0,c
  6160   00047C  EF42  F002         	goto	u3671
  6161   000480  EF44  F002         	goto	u3670
  6162   000484                     u3671:
  6163   000484  EF5A  F002         	goto	l332
  6164   000488                     u3670:
  6165   000488                     
  6166                           ;car_black_box.c: 507:         clcd_putch(' ', (0xC0 + (index + 3)));
  6167   000488  504F               	movf	_index^0,w,c
  6168   00048A  0FC3               	addlw	195
  6169   00048C  6E08               	movwf	clcd_putch@addr^0,c
  6170   00048E  0E20               	movlw	32
  6171   000490  ECAD  F012         	call	_clcd_putch
  6172   000494                     
  6173                           ;car_black_box.c: 508:         if (wait == 1600)
  6174   000494  0E40               	movlw	64
  6175   000496  184D               	xorwf	_wait^0,w,c
  6176   000498  E107               	bnz	u3681
  6177   00049A  0E06               	movlw	6
  6178   00049C  184E               	xorwf	(_wait+1)^0,w,c
  6179   00049E  A4D8               	btfss	status,2,c
  6180   0004A0  EF54  F002         	goto	u3681
  6181   0004A4  EF56  F002         	goto	u3680
  6182   0004A8                     u3681:
  6183   0004A8  EF5A  F002         	goto	l332
  6184   0004AC                     u3680:
  6185   0004AC                     
  6186                           ;car_black_box.c: 509:             wait = 0;
  6187   0004AC  0E00               	movlw	0
  6188   0004AE  6E4E               	movwf	(_wait+1)^0,c
  6189   0004B0  0E00               	movlw	0
  6190   0004B2  6E4D               	movwf	_wait^0,c
  6191   0004B4                     l332:
  6192   0004B4  0012               	return		;funcret
  6193   0004B6                     __end_of_change_password:
  6194                           	callstack 0
  6195                           
  6196 ;; *************** function _validate_password *****************
  6197 ;; Defined at:
  6198 ;;		line 179 in file "car_black_box.c"
  6199 ;; Parameters:    Size  Location     Type
  6200 ;;  original_pas    2    0[COMRAM] PTR unsigned char 
  6201 ;;		 -> enter_password(5), original_password(5), 
  6202 ;;  enter_passwo    2    2[COMRAM] PTR unsigned char 
  6203 ;;		 -> confirm_password(5), enter_password(5), 
  6204 ;; Auto vars:     Size  Location     Type
  6205 ;;  ind_compare     2    7[COMRAM] unsigned short 
  6206 ;; Return value:  Size  Location     Type
  6207 ;;                  2    0[COMRAM] int 
  6208 ;; Registers used:
  6209 ;;		wreg, fsr2l, fsr2h, status,2, status,0
  6210 ;; Tracked objects:
  6211 ;;		On entry : 0/0
  6212 ;;		On exit  : 0/0
  6213 ;;		Unchanged: 0/0
  6214 ;; Data sizes:     COMRAM   BANK0   BANK1   BANK2   BANK3   BANK4   BANK5
  6215 ;;      Params:         4       0       0       0       0       0       0
  6216 ;;      Locals:         2       0       0       0       0       0       0
  6217 ;;      Temps:          3       0       0       0       0       0       0
  6218 ;;      Totals:         9       0       0       0       0       0       0
  6219 ;;Total ram usage:        9 bytes
  6220 ;; Hardware stack levels used: 1
  6221 ;; Hardware stack levels required when called: 1
  6222 ;; This function calls:
  6223 ;;		Nothing
  6224 ;; This function is called by:
  6225 ;;		_read_password
  6226 ;;		_change_password
  6227 ;; This function uses a non-reentrant model
  6228 ;;
  6229                           
  6230                           	psect	text29
  6231   001ED4                     __ptext29:
  6232                           	callstack 0
  6233   001ED4                     _validate_password:
  6234                           	callstack 28
  6235   001ED4                     
  6236                           ;car_black_box.c: 180:     unsigned short ind_compare = 0;
  6237   001ED4  0E00               	movlw	0
  6238   001ED6  6E09               	movwf	(validate_password@ind_compare+1)^0,c
  6239   001ED8  0E00               	movlw	0
  6240   001EDA  6E08               	movwf	validate_password@ind_compare^0,c
  6241                           
  6242                           ;car_black_box.c: 181:     while (original_password[ind_compare]) {
  6243   001EDC  EFA8  F00F         	goto	l2980
  6244   001EE0                     l2972:
  6245                           
  6246                           ;car_black_box.c: 182:         if (original_password[ind_compare] - enter_password[ind_c
      +                          ompare] != 0) {
  6247   001EE0  5008               	movf	validate_password@ind_compare^0,w,c
  6248   001EE2  2401               	addwf	validate_password@original_password^0,w,c
  6249   001EE4  6ED9               	movwf	fsr2l,c
  6250   001EE6  5009               	movf	(validate_password@ind_compare+1)^0,w,c
  6251   001EE8  2002               	addwfc	(validate_password@original_password+1)^0,w,c
  6252   001EEA  6EDA               	movwf	fsr2h,c
  6253   001EEC  50DF               	movf	indf2,w,c
  6254   001EEE  6E05               	movwf	??_validate_password^0,c
  6255   001EF0  6A06               	clrf	(??_validate_password+1)^0,c
  6256   001EF2  5008               	movf	validate_password@ind_compare^0,w,c
  6257   001EF4  2403               	addwf	validate_password@enter_password^0,w,c
  6258   001EF6  6ED9               	movwf	fsr2l,c
  6259   001EF8  5009               	movf	(validate_password@ind_compare+1)^0,w,c
  6260   001EFA  2004               	addwfc	(validate_password@enter_password+1)^0,w,c
  6261   001EFC  6EDA               	movwf	fsr2h,c
  6262   001EFE  50DF               	movf	indf2,w,c
  6263   001F00  6E07               	movwf	(??_validate_password+2)^0,c
  6264   001F02  5007               	movf	(??_validate_password+2)^0,w,c
  6265   001F04  5E05               	subwf	??_validate_password^0,f,c
  6266   001F06  0E00               	movlw	0
  6267   001F08  5A06               	subwfb	(??_validate_password+1)^0,f,c
  6268   001F0A  5005               	movf	??_validate_password^0,w,c
  6269   001F0C  1006               	iorwf	(??_validate_password+1)^0,w,c
  6270   001F0E  B4D8               	btfsc	status,2,c
  6271   001F10  EF8C  F00F         	goto	u2381
  6272   001F14  EF8E  F00F         	goto	u2380
  6273   001F18                     u2381:
  6274   001F18  EFA6  F00F         	goto	l2978
  6275   001F1C                     u2380:
  6276   001F1C                     l2974:
  6277                           
  6278                           ;car_black_box.c: 183:             return original_password[ind_compare] - enter_passwor
      +                          d[ind_compare];
  6279   001F1C  5008               	movf	validate_password@ind_compare^0,w,c
  6280   001F1E  2401               	addwf	validate_password@original_password^0,w,c
  6281   001F20  6ED9               	movwf	fsr2l,c
  6282   001F22  5009               	movf	(validate_password@ind_compare+1)^0,w,c
  6283   001F24  2002               	addwfc	(validate_password@original_password+1)^0,w,c
  6284   001F26  6EDA               	movwf	fsr2h,c
  6285   001F28  50DF               	movf	indf2,w,c
  6286   001F2A  6E05               	movwf	??_validate_password^0,c
  6287   001F2C  5008               	movf	validate_password@ind_compare^0,w,c
  6288   001F2E  2403               	addwf	validate_password@enter_password^0,w,c
  6289   001F30  6ED9               	movwf	fsr2l,c
  6290   001F32  5009               	movf	(validate_password@ind_compare+1)^0,w,c
  6291   001F34  2004               	addwfc	(validate_password@enter_password+1)^0,w,c
  6292   001F36  6EDA               	movwf	fsr2h,c
  6293   001F38  50DF               	movf	indf2,w,c
  6294   001F3A  6E06               	movwf	(??_validate_password+1)^0,c
  6295   001F3C  5006               	movf	(??_validate_password+1)^0,w,c
  6296   001F3E  5C05               	subwf	??_validate_password^0,w,c
  6297   001F40  6E01               	movwf	?_validate_password^0,c
  6298   001F42  6A02               	clrf	(?_validate_password+1)^0,c
  6299   001F44  A0D8               	btfss	status,0,c
  6300   001F46  0602               	decf	(?_validate_password+1)^0,f,c
  6301   001F48  EFB8  F00F         	goto	l228
  6302   001F4C                     l2978:
  6303                           
  6304                           ;car_black_box.c: 185:         ind_compare++;
  6305   001F4C  4A08               	infsnz	validate_password@ind_compare^0,f,c
  6306   001F4E  2A09               	incf	(validate_password@ind_compare+1)^0,f,c
  6307   001F50                     l2980:
  6308                           
  6309                           ;car_black_box.c: 181:     while (original_password[ind_compare]) {
  6310   001F50  5008               	movf	validate_password@ind_compare^0,w,c
  6311   001F52  2401               	addwf	validate_password@original_password^0,w,c
  6312   001F54  6ED9               	movwf	fsr2l,c
  6313   001F56  5009               	movf	(validate_password@ind_compare+1)^0,w,c
  6314   001F58  2002               	addwfc	(validate_password@original_password+1)^0,w,c
  6315   001F5A  6EDA               	movwf	fsr2h,c
  6316   001F5C  50DF               	movf	indf2,w,c
  6317   001F5E  A4D8               	btfss	status,2,c
  6318   001F60  EFB4  F00F         	goto	u2391
  6319   001F64  EFB6  F00F         	goto	u2390
  6320   001F68                     u2391:
  6321   001F68  EF70  F00F         	goto	l2972
  6322   001F6C                     u2390:
  6323   001F6C  EF8E  F00F         	goto	l2974
  6324   001F70                     l228:
  6325   001F70  0012               	return		;funcret
  6326   001F72                     __end_of_validate_password:
  6327                           	callstack 0
  6328                           
  6329 ;; *************** function _car_menu *****************
  6330 ;; Defined at:
  6331 ;;		line 192 in file "car_black_box.c"
  6332 ;; Parameters:    Size  Location     Type
  6333 ;;  key             1    wreg     unsigned char 
  6334 ;; Auto vars:     Size  Location     Type
  6335 ;;  key             1   15[COMRAM] unsigned char 
  6336 ;; Return value:  Size  Location     Type
  6337 ;;                  1    wreg      void 
  6338 ;; Registers used:
  6339 ;;		wreg, fsr1l, fsr1h, fsr2l, fsr2h, status,2, status,0, tblptrl, tblptrh, tblptru, cstack
  6340 ;; Tracked objects:
  6341 ;;		On entry : 0/0
  6342 ;;		On exit  : 0/0
  6343 ;;		Unchanged: 0/0
  6344 ;; Data sizes:     COMRAM   BANK0   BANK1   BANK2   BANK3   BANK4   BANK5
  6345 ;;      Params:         0       0       0       0       0       0       0
  6346 ;;      Locals:         1       0       0       0       0       0       0
  6347 ;;      Temps:          2       0       0       0       0       0       0
  6348 ;;      Totals:         3       0       0       0       0       0       0
  6349 ;;Total ram usage:        3 bytes
  6350 ;; Hardware stack levels used: 1
  6351 ;; Hardware stack levels required when called: 5
  6352 ;; This function calls:
  6353 ;;		_clcd_print
  6354 ;;		_clcd_putch
  6355 ;;		_store_event
  6356 ;; This function is called by:
  6357 ;;		_main
  6358 ;; This function uses a non-reentrant model
  6359 ;;
  6360                           
  6361                           	psect	text30
  6362   00087C                     __ptext30:
  6363                           	callstack 0
  6364   00087C                     _car_menu:
  6365                           	callstack 25
  6366                           
  6367                           ;incstack = 0
  6368                           ;car_menu@key stored from wreg
  6369   00087C  6E10               	movwf	car_menu@key^0,c
  6370   00087E                     
  6371                           ;car_black_box.c: 193:     if (key == 11) {
  6372   00087E  0E0B               	movlw	11
  6373   000880  1810               	xorwf	car_menu@key^0,w,c
  6374   000882  A4D8               	btfss	status,2,c
  6375   000884  EF46  F004         	goto	u2781
  6376   000888  EF48  F004         	goto	u2780
  6377   00088C                     u2781:
  6378   00088C  EFCA  F004         	goto	l3296
  6379   000890                     u2780:
  6380   000890                     
  6381                           ;car_black_box.c: 194:         sec = 0;
  6382   000890  0E00               	movlw	0
  6383   000892  6E54               	movwf	(_sec+1)^0,c
  6384   000894  0E00               	movlw	0
  6385   000896  6E53               	movwf	_sec^0,c
  6386   000898                     
  6387                           ;car_black_box.c: 195:         previous_key = key;
  6388   000898  C010  F04B         	movff	car_menu@key,_previous_key
  6389   00089C  6A4C               	clrf	(_previous_key+1)^0,c
  6390   00089E                     
  6391                           ;car_black_box.c: 196:         if (wait1++ > 400) {
  6392   00089E  5045               	movf	_wait1^0,w,c
  6393   0008A0  6E0E               	movwf	??_car_menu^0,c
  6394   0008A2  5046               	movf	(_wait1+1)^0,w,c
  6395   0008A4  6E0F               	movwf	(??_car_menu+1)^0,c
  6396   0008A6  4A45               	infsnz	_wait1^0,f,c
  6397   0008A8  2A46               	incf	(_wait1+1)^0,f,c
  6398   0008AA  0E91               	movlw	145
  6399   0008AC  5C0E               	subwf	??_car_menu^0,w,c
  6400   0008AE  0E01               	movlw	1
  6401   0008B0  580F               	subwfb	(??_car_menu+1)^0,w,c
  6402   0008B2  A0D8               	btfss	status,0,c
  6403   0008B4  EF5E  F004         	goto	u2791
  6404   0008B8  EF60  F004         	goto	u2790
  6405   0008BC                     u2791:
  6406   0008BC  EF2A  F005         	goto	l3320
  6407   0008C0                     u2790:
  6408   0008C0                     
  6409                           ;car_black_box.c: 197:             if (menu_index == 4 || menu_index == 3 || menu_index 
      +                          == 1)
  6410   0008C0  0E04               	movlw	4
  6411   0008C2  1847               	xorwf	_menu_index^0,w,c
  6412   0008C4  1048               	iorwf	(_menu_index+1)^0,w,c
  6413   0008C6  B4D8               	btfsc	status,2,c
  6414   0008C8  EF68  F004         	goto	u2801
  6415   0008CC  EF6A  F004         	goto	u2800
  6416   0008D0                     u2801:
  6417   0008D0  EF7D  F004         	goto	l3280
  6418   0008D4                     u2800:
  6419   0008D4  0E03               	movlw	3
  6420   0008D6  1847               	xorwf	_menu_index^0,w,c
  6421   0008D8  1048               	iorwf	(_menu_index+1)^0,w,c
  6422   0008DA  B4D8               	btfsc	status,2,c
  6423   0008DC  EF72  F004         	goto	u2811
  6424   0008E0  EF74  F004         	goto	u2810
  6425   0008E4                     u2811:
  6426   0008E4  EF7D  F004         	goto	l3280
  6427   0008E8                     u2810:
  6428   0008E8  0447               	decf	_menu_index^0,w,c
  6429   0008EA  1048               	iorwf	(_menu_index+1)^0,w,c
  6430   0008EC  A4D8               	btfss	status,2,c
  6431   0008EE  EF7B  F004         	goto	u2821
  6432   0008F2  EF7D  F004         	goto	u2820
  6433   0008F6                     u2821:
  6434   0008F6  EF81  F004         	goto	l3282
  6435   0008FA                     u2820:
  6436   0008FA                     l3280:
  6437                           
  6438                           ;car_black_box.c: 198:                 wait1 = 0;
  6439   0008FA  0E00               	movlw	0
  6440   0008FC  6E46               	movwf	(_wait1+1)^0,c
  6441   0008FE  0E00               	movlw	0
  6442   000900  6E45               	movwf	_wait1^0,c
  6443   000902                     l3282:
  6444                           
  6445                           ;car_black_box.c: 199:             if(menu_index == 1)
  6446   000902  0447               	decf	_menu_index^0,w,c
  6447   000904  1048               	iorwf	(_menu_index+1)^0,w,c
  6448   000906  A4D8               	btfss	status,2,c
  6449   000908  EF88  F004         	goto	u2831
  6450   00090C  EF8A  F004         	goto	u2830
  6451   000910                     u2831:
  6452   000910  EF8E  F004         	goto	l3286
  6453   000914                     u2830:
  6454   000914                     
  6455                           ;car_black_box.c: 200:                 index = 6;
  6456   000914  0E00               	movlw	0
  6457   000916  6E50               	movwf	(_index+1)^0,c
  6458   000918  0E06               	movlw	6
  6459   00091A  6E4F               	movwf	_index^0,c
  6460   00091C                     l3286:
  6461                           
  6462                           ;car_black_box.c: 202:             enter_flag = menu_index + 3;
  6463   00091C  5047               	movf	_menu_index^0,w,c
  6464   00091E  0F03               	addlw	3
  6465   000920  6E5A               	movwf	_enter_flag^0,c
  6466   000922                     
  6467                           ;car_black_box.c: 203:             if (menu_index > 0) {
  6468   000922  5047               	movf	_menu_index^0,w,c
  6469   000924  1048               	iorwf	(_menu_index+1)^0,w,c
  6470   000926  B4D8               	btfsc	status,2,c
  6471   000928  EF98  F004         	goto	u2841
  6472   00092C  EF9A  F004         	goto	u2840
  6473   000930                     u2841:
  6474   000930  EF14  F006         	goto	l241
  6475   000934                     u2840:
  6476   000934                     
  6477                           ;car_black_box.c: 204:                 event[10] = menu_event[menu_index - 1][0];
  6478   000934  90D8               	bcf	status,0,c
  6479   000936  3447               	rlcf	_menu_index^0,w,c
  6480   000938  6ED9               	movwf	fsr2l,c
  6481   00093A  3448               	rlcf	(_menu_index+1)^0,w,c
  6482   00093C  6EDA               	movwf	fsr2h,c
  6483   00093E  0E78               	movlw	low (_menu_event+65534)
  6484   000940  26D9               	addwf	fsr2l,f,c
  6485   000942  0E00               	movlw	high (_menu_event+65534)
  6486   000944  22DA               	addwfc	fsr2h,f,c
  6487   000946  CFDE FFF6          	movff	postinc2,tblptrl
  6488   00094A  CFDD FFF7          	movff	postdec2,tblptrh
  6489   00094E                     	if	0	;tblptru may be non-zero
  6490   00094E                     	endif
  6491   00094E                     	if	0	;tblptru may be non-zero
  6492   00094E                     	endif
  6493   00094E  0008               	tblrd		*
  6494   000950  CFF5 F090          	movff	tablat,_event+10
  6495                           
  6496                           ;car_black_box.c: 205:                 event[11] = menu_event[menu_index - 1][1];
  6497   000954  90D8               	bcf	status,0,c
  6498   000956  3447               	rlcf	_menu_index^0,w,c
  6499   000958  6ED9               	movwf	fsr2l,c
  6500   00095A  3448               	rlcf	(_menu_index+1)^0,w,c
  6501   00095C  6EDA               	movwf	fsr2h,c
  6502   00095E  0E78               	movlw	low (_menu_event+65534)
  6503   000960  26D9               	addwf	fsr2l,f,c
  6504   000962  0E00               	movlw	high (_menu_event+65534)
  6505   000964  22DA               	addwfc	fsr2h,f,c
  6506   000966  CFDE F00E          	movff	postinc2,??_car_menu
  6507   00096A  CFDD F00F          	movff	postdec2,??_car_menu+1
  6508   00096E  0E01               	movlw	1
  6509   000970  260E               	addwf	??_car_menu^0,f,c
  6510   000972  0E00               	movlw	0
  6511   000974  220F               	addwfc	(??_car_menu+1)^0,f,c
  6512   000976  C00E  FFF6         	movff	??_car_menu,tblptrl
  6513   00097A  C00F  FFF7         	movff	??_car_menu+1,tblptrh
  6514   00097E                     	if	0	;tblptru may be non-zero
  6515   00097E                     	endif
  6516   00097E                     	if	0	;tblptru may be non-zero
  6517   00097E                     	endif
  6518   00097E  0008               	tblrd		*
  6519   000980  CFF5 F091          	movff	tablat,_event+11
  6520   000984                     
  6521                           ;car_black_box.c: 206:                 store_event(event);
  6522   000984  0E86               	movlw	low _event
  6523   000986  6E06               	movwf	store_event@event^0,c
  6524   000988  0E00               	movlw	high _event
  6525   00098A  6E07               	movwf	(store_event@event+1)^0,c
  6526   00098C  ECB1  F00E         	call	_store_event	;wreg free
  6527   000990  EF14  F006         	goto	l241
  6528   000994                     l3296:
  6529   000994  5045               	movf	_wait1^0,w,c
  6530   000996  1046               	iorwf	(_wait1+1)^0,w,c
  6531   000998  B4D8               	btfsc	status,2,c
  6532   00099A  EFD1  F004         	goto	u2851
  6533   00099E  EFD3  F004         	goto	u2850
  6534   0009A2                     u2851:
  6535   0009A2  EF2A  F005         	goto	l3320
  6536   0009A6                     u2850:
  6537   0009A6  0E90               	movlw	144
  6538   0009A8  5C45               	subwf	_wait1^0,w,c
  6539   0009AA  0E01               	movlw	1
  6540   0009AC  5846               	subwfb	(_wait1+1)^0,w,c
  6541   0009AE  B0D8               	btfsc	status,0,c
  6542   0009B0  EFDC  F004         	goto	u2861
  6543   0009B4  EFDE  F004         	goto	u2860
  6544   0009B8                     u2861:
  6545   0009B8  EF2A  F005         	goto	l3320
  6546   0009BC                     u2860:
  6547   0009BC  0E0B               	movlw	11
  6548   0009BE  184B               	xorwf	_previous_key^0,w,c
  6549   0009C0  104C               	iorwf	(_previous_key+1)^0,w,c
  6550   0009C2  A4D8               	btfss	status,2,c
  6551   0009C4  EFE6  F004         	goto	u2871
  6552   0009C8  EFE8  F004         	goto	u2870
  6553   0009CC                     u2871:
  6554   0009CC  EF2A  F005         	goto	l3320
  6555   0009D0                     u2870:
  6556   0009D0  2810               	incf	car_menu@key^0,w,c
  6557   0009D2  A4D8               	btfss	status,2,c
  6558   0009D4  EFEE  F004         	goto	u2881
  6559   0009D8  EFF0  F004         	goto	u2880
  6560   0009DC                     u2881:
  6561   0009DC  EF2A  F005         	goto	l3320
  6562   0009E0                     u2880:
  6563   0009E0  0100               	movlb	0	; () banked
  6564   0009E2  5184               	movf	_index_2& (0+255),w,b
  6565   0009E4  1185               	iorwf	(_index_2+1)& (0+255),w,b
  6566   0009E6  B4D8               	btfsc	status,2,c
  6567   0009E8  EFF8  F004         	goto	u2891
  6568   0009EC  EFFA  F004         	goto	u2890
  6569   0009F0                     u2891:
  6570   0009F0  EF2A  F005         	goto	l3320
  6571   0009F4                     u2890:
  6572   0009F4                     
  6573                           ; BSR set to: 0
  6574                           ;car_black_box.c: 211:         if (star_flag == 0) {
  6575   0009F4  5182               	movf	_star_flag& (0+255),w,b
  6576   0009F6  1183               	iorwf	(_star_flag+1)& (0+255),w,b
  6577   0009F8  A4D8               	btfss	status,2,c
  6578   0009FA  EF01  F005         	goto	u2901
  6579   0009FE  EF03  F005         	goto	u2900
  6580   000A02                     u2901:
  6581   000A02  EF09  F005         	goto	l3310
  6582   000A06                     u2900:
  6583   000A06                     
  6584                           ; BSR set to: 0
  6585                           ;car_black_box.c: 212:             star_flag = 1;
  6586   000A06  0E00               	movlw	0
  6587   000A08  6F83               	movwf	(_star_flag+1)& (0+255),b
  6588   000A0A  0E01               	movlw	1
  6589   000A0C  6F82               	movwf	_star_flag& (0+255),b
  6590                           
  6591                           ;car_black_box.c: 213:         } else if (index_2 > 1) {
  6592   000A0E  EF1A  F005         	goto	l3314
  6593   000A12                     l3310:
  6594                           
  6595                           ; BSR set to: 0
  6596   000A12  5185               	movf	(_index_2+1)& (0+255),w,b
  6597   000A14  E109               	bnz	u2910
  6598   000A16  0E02               	movlw	2
  6599   000A18  5D84               	subwf	_index_2& (0+255),w,b
  6600   000A1A  A0D8               	btfss	status,0,c
  6601   000A1C  EF12  F005         	goto	u2911
  6602   000A20  EF14  F005         	goto	u2910
  6603   000A24                     u2911:
  6604   000A24  EF1A  F005         	goto	l3314
  6605   000A28                     u2910:
  6606   000A28                     
  6607                           ; BSR set to: 0
  6608                           ;car_black_box.c: 214:             index_1--;
  6609   000A28  0649               	decf	_index_1^0,f,c
  6610   000A2A  A0D8               	btfss	status,0,c
  6611   000A2C  064A               	decf	(_index_1+1)^0,f,c
  6612                           
  6613                           ;car_black_box.c: 215:             index_2--;
  6614   000A2E  0784               	decf	_index_2& (0+255),f,b
  6615   000A30  A0D8               	btfss	status,0,c
  6616   000A32  0785               	decf	(_index_2+1)& (0+255),f,b
  6617   000A34                     l3314:
  6618                           
  6619                           ; BSR set to: 0
  6620                           ;car_black_box.c: 217:         if (menu_index > 0) {
  6621   000A34  5047               	movf	_menu_index^0,w,c
  6622   000A36  1048               	iorwf	(_menu_index+1)^0,w,c
  6623   000A38  B4D8               	btfsc	status,2,c
  6624   000A3A  EF21  F005         	goto	u2921
  6625   000A3E  EF23  F005         	goto	u2920
  6626   000A42                     u2921:
  6627   000A42  EF26  F005         	goto	l3318
  6628   000A46                     u2920:
  6629   000A46                     
  6630                           ; BSR set to: 0
  6631                           ;car_black_box.c: 218:             menu_index--;
  6632   000A46  0647               	decf	_menu_index^0,f,c
  6633   000A48  A0D8               	btfss	status,0,c
  6634   000A4A  0648               	decf	(_menu_index+1)^0,f,c
  6635   000A4C                     l3318:
  6636                           
  6637                           ; BSR set to: 0
  6638                           ;car_black_box.c: 220:         wait1 = 0;
  6639   000A4C  0E00               	movlw	0
  6640   000A4E  6E46               	movwf	(_wait1+1)^0,c
  6641   000A50  0E00               	movlw	0
  6642   000A52  6E45               	movwf	_wait1^0,c
  6643   000A54                     l3320:
  6644                           
  6645                           ;car_black_box.c: 222:     if (key == 12) {
  6646   000A54  0E0C               	movlw	12
  6647   000A56  1810               	xorwf	car_menu@key^0,w,c
  6648   000A58  A4D8               	btfss	status,2,c
  6649   000A5A  EF31  F005         	goto	u2931
  6650   000A5E  EF33  F005         	goto	u2930
  6651   000A62                     u2931:
  6652   000A62  EF64  F005         	goto	l3332
  6653   000A66                     u2930:
  6654   000A66                     
  6655                           ;car_black_box.c: 223:         sec = 0;
  6656   000A66  0E00               	movlw	0
  6657   000A68  6E54               	movwf	(_sec+1)^0,c
  6658   000A6A  0E00               	movlw	0
  6659   000A6C  6E53               	movwf	_sec^0,c
  6660   000A6E                     
  6661                           ;car_black_box.c: 224:         previous_key = key;
  6662   000A6E  C010  F04B         	movff	car_menu@key,_previous_key
  6663   000A72  6A4C               	clrf	(_previous_key+1)^0,c
  6664   000A74                     
  6665                           ;car_black_box.c: 225:         if (wait1++ > 400) {
  6666   000A74  5045               	movf	_wait1^0,w,c
  6667   000A76  6E0E               	movwf	??_car_menu^0,c
  6668   000A78  5046               	movf	(_wait1+1)^0,w,c
  6669   000A7A  6E0F               	movwf	(??_car_menu+1)^0,c
  6670   000A7C  4A45               	infsnz	_wait1^0,f,c
  6671   000A7E  2A46               	incf	(_wait1+1)^0,f,c
  6672   000A80  0E91               	movlw	145
  6673   000A82  5C0E               	subwf	??_car_menu^0,w,c
  6674   000A84  0E01               	movlw	1
  6675   000A86  580F               	subwfb	(??_car_menu+1)^0,w,c
  6676   000A88  A0D8               	btfss	status,0,c
  6677   000A8A  EF49  F005         	goto	u2941
  6678   000A8E  EF4B  F005         	goto	u2940
  6679   000A92                     u2941:
  6680   000A92  EFC5  F005         	goto	l3356
  6681   000A96                     u2940:
  6682   000A96                     l3328:
  6683                           
  6684                           ;car_black_box.c: 226:             index_1 = 0;
  6685   000A96  0E00               	movlw	0
  6686   000A98  6E4A               	movwf	(_index_1+1)^0,c
  6687   000A9A  0E00               	movlw	0
  6688   000A9C  6E49               	movwf	_index_1^0,c
  6689                           
  6690                           ;car_black_box.c: 227:             index_2 = 1;
  6691   000A9E  0E00               	movlw	0
  6692   000AA0  0100               	movlb	0	; () banked
  6693   000AA2  6F85               	movwf	(_index_2+1)& (0+255),b
  6694   000AA4  0E01               	movlw	1
  6695   000AA6  6F84               	movwf	_index_2& (0+255),b
  6696                           
  6697                           ;car_black_box.c: 228:             star_flag = 1;
  6698   000AA8  0E00               	movlw	0
  6699   000AAA  6F83               	movwf	(_star_flag+1)& (0+255),b
  6700   000AAC  0E01               	movlw	1
  6701   000AAE  6F82               	movwf	_star_flag& (0+255),b
  6702                           
  6703                           ;car_black_box.c: 229:             menu_index = 0;
  6704   000AB0  0E00               	movlw	0
  6705   000AB2  6E48               	movwf	(_menu_index+1)^0,c
  6706   000AB4  0E00               	movlw	0
  6707   000AB6  6E47               	movwf	_menu_index^0,c
  6708                           
  6709                           ;car_black_box.c: 230:             enter_flag = 0;
  6710   000AB8  0E00               	movlw	0
  6711   000ABA  6E5A               	movwf	_enter_flag^0,c
  6712                           
  6713                           ;car_black_box.c: 231:             wait1 = 0;
  6714   000ABC  0E00               	movlw	0
  6715   000ABE  6E46               	movwf	(_wait1+1)^0,c
  6716   000AC0  0E00               	movlw	0
  6717   000AC2  6E45               	movwf	_wait1^0,c
  6718   000AC4  EF14  F006         	goto	l241
  6719   000AC8                     l3332:
  6720   000AC8  5045               	movf	_wait1^0,w,c
  6721   000ACA  1046               	iorwf	(_wait1+1)^0,w,c
  6722   000ACC  B4D8               	btfsc	status,2,c
  6723   000ACE  EF6B  F005         	goto	u2951
  6724   000AD2  EF6D  F005         	goto	u2950
  6725   000AD6                     u2951:
  6726   000AD6  EFC5  F005         	goto	l3356
  6727   000ADA                     u2950:
  6728   000ADA  0E90               	movlw	144
  6729   000ADC  5C45               	subwf	_wait1^0,w,c
  6730   000ADE  0E01               	movlw	1
  6731   000AE0  5846               	subwfb	(_wait1+1)^0,w,c
  6732   000AE2  B0D8               	btfsc	status,0,c
  6733   000AE4  EF76  F005         	goto	u2961
  6734   000AE8  EF78  F005         	goto	u2960
  6735   000AEC                     u2961:
  6736   000AEC  EFC5  F005         	goto	l3356
  6737   000AF0                     u2960:
  6738   000AF0  0E0C               	movlw	12
  6739   000AF2  184B               	xorwf	_previous_key^0,w,c
  6740   000AF4  104C               	iorwf	(_previous_key+1)^0,w,c
  6741   000AF6  A4D8               	btfss	status,2,c
  6742   000AF8  EF80  F005         	goto	u2971
  6743   000AFC  EF82  F005         	goto	u2970
  6744   000B00                     u2971:
  6745   000B00  EFC5  F005         	goto	l3356
  6746   000B04                     u2970:
  6747   000B04  2810               	incf	car_menu@key^0,w,c
  6748   000B06  A4D8               	btfss	status,2,c
  6749   000B08  EF88  F005         	goto	u2981
  6750   000B0C  EF8A  F005         	goto	u2980
  6751   000B10                     u2981:
  6752   000B10  EFC5  F005         	goto	l3356
  6753   000B14                     u2980:
  6754   000B14  504A               	movf	(_index_1+1)^0,w,c
  6755   000B16  E107               	bnz	u2991
  6756   000B18  0E04               	movlw	4
  6757   000B1A  5C49               	subwf	_index_1^0,w,c
  6758   000B1C  B0D8               	btfsc	status,0,c
  6759   000B1E  EF93  F005         	goto	u2991
  6760   000B22  EF95  F005         	goto	u2990
  6761   000B26                     u2991:
  6762   000B26  EFC5  F005         	goto	l3356
  6763   000B2A                     u2990:
  6764   000B2A                     
  6765                           ;car_black_box.c: 235:         if (star_flag == 1) {
  6766   000B2A  0100               	movlb	0	; () banked
  6767   000B2C  0582               	decf	_star_flag& (0+255),w,b
  6768   000B2E  1183               	iorwf	(_star_flag+1)& (0+255),w,b
  6769   000B30  A4D8               	btfss	status,2,c
  6770   000B32  EF9D  F005         	goto	u3001
  6771   000B36  EF9F  F005         	goto	u3000
  6772   000B3A                     u3001:
  6773   000B3A  EFA5  F005         	goto	l3346
  6774   000B3E                     u3000:
  6775   000B3E                     
  6776                           ; BSR set to: 0
  6777                           ;car_black_box.c: 236:             star_flag = 0;
  6778   000B3E  0E00               	movlw	0
  6779   000B40  6F83               	movwf	(_star_flag+1)& (0+255),b
  6780   000B42  0E00               	movlw	0
  6781   000B44  6F82               	movwf	_star_flag& (0+255),b
  6782                           
  6783                           ;car_black_box.c: 237:         } else if (index_1 < 3) {
  6784   000B46  EFB4  F005         	goto	l3350
  6785   000B4A                     l3346:
  6786                           
  6787                           ; BSR set to: 0
  6788   000B4A  504A               	movf	(_index_1+1)^0,w,c
  6789   000B4C  E107               	bnz	u3011
  6790   000B4E  0E03               	movlw	3
  6791   000B50  5C49               	subwf	_index_1^0,w,c
  6792   000B52  B0D8               	btfsc	status,0,c
  6793   000B54  EFAE  F005         	goto	u3011
  6794   000B58  EFB0  F005         	goto	u3010
  6795   000B5C                     u3011:
  6796   000B5C  EFB4  F005         	goto	l3350
  6797   000B60                     u3010:
  6798   000B60                     
  6799                           ; BSR set to: 0
  6800                           ;car_black_box.c: 238:             index_1++;
  6801   000B60  4A49               	infsnz	_index_1^0,f,c
  6802   000B62  2A4A               	incf	(_index_1+1)^0,f,c
  6803                           
  6804                           ;car_black_box.c: 239:             index_2++;
  6805   000B64  4B84               	infsnz	_index_2& (0+255),f,b
  6806   000B66  2B85               	incf	(_index_2+1)& (0+255),f,b
  6807   000B68                     l3350:
  6808                           
  6809                           ; BSR set to: 0
  6810                           ;car_black_box.c: 241:         if (menu_index < 4) {
  6811   000B68  5048               	movf	(_menu_index+1)^0,w,c
  6812   000B6A  E107               	bnz	u3021
  6813   000B6C  0E04               	movlw	4
  6814   000B6E  5C47               	subwf	_menu_index^0,w,c
  6815   000B70  B0D8               	btfsc	status,0,c
  6816   000B72  EFBD  F005         	goto	u3021
  6817   000B76  EFBF  F005         	goto	u3020
  6818   000B7A                     u3021:
  6819   000B7A  EFC1  F005         	goto	l3354
  6820   000B7E                     u3020:
  6821   000B7E                     
  6822                           ; BSR set to: 0
  6823                           ;car_black_box.c: 242:             menu_index++;
  6824   000B7E  4A47               	infsnz	_menu_index^0,f,c
  6825   000B80  2A48               	incf	(_menu_index+1)^0,f,c
  6826   000B82                     l3354:
  6827                           
  6828                           ; BSR set to: 0
  6829                           ;car_black_box.c: 244:         wait1 = 0;
  6830   000B82  0E00               	movlw	0
  6831   000B84  6E46               	movwf	(_wait1+1)^0,c
  6832   000B86  0E00               	movlw	0
  6833   000B88  6E45               	movwf	_wait1^0,c
  6834   000B8A                     l3356:
  6835                           
  6836                           ;car_black_box.c: 246:     if (sec == 5) {
  6837   000B8A  0E05               	movlw	5
  6838   000B8C  1853               	xorwf	_sec^0,w,c
  6839   000B8E  1054               	iorwf	(_sec+1)^0,w,c
  6840   000B90  A4D8               	btfss	status,2,c
  6841   000B92  EFCD  F005         	goto	u3031
  6842   000B96  EFCF  F005         	goto	u3030
  6843   000B9A                     u3031:
  6844   000B9A  EFD1  F005         	goto	l3362
  6845   000B9E                     u3030:
  6846   000B9E  EF4B  F005         	goto	l3328
  6847   000BA2                     l3362:
  6848                           
  6849                           ;car_black_box.c: 255:     if (star_flag == 1) {
  6850   000BA2  0100               	movlb	0	; () banked
  6851   000BA4  0582               	decf	_star_flag& (0+255),w,b
  6852   000BA6  1183               	iorwf	(_star_flag+1)& (0+255),w,b
  6853   000BA8  A4D8               	btfss	status,2,c
  6854   000BAA  EFD9  F005         	goto	u3041
  6855   000BAE  EFDB  F005         	goto	u3040
  6856   000BB2                     u3041:
  6857   000BB2  EFE7  F005         	goto	l3366
  6858   000BB6                     u3040:
  6859   000BB6                     
  6860                           ; BSR set to: 0
  6861                           ;car_black_box.c: 256:         clcd_putch('*', (0x80 + (0)));
  6862   000BB6  0E80               	movlw	128
  6863   000BB8  6E08               	movwf	clcd_putch@addr^0,c
  6864   000BBA  0E2A               	movlw	42
  6865   000BBC  ECAD  F012         	call	_clcd_putch
  6866                           
  6867                           ;car_black_box.c: 257:         clcd_putch(' ', (0xC0 + (0)));
  6868   000BC0  0EC0               	movlw	192
  6869   000BC2  6E08               	movwf	clcd_putch@addr^0,c
  6870   000BC4  0E20               	movlw	32
  6871   000BC6  ECAD  F012         	call	_clcd_putch
  6872                           
  6873                           ;car_black_box.c: 258:     } else {
  6874   000BCA  EFF1  F005         	goto	l3368
  6875   000BCE                     l3366:
  6876                           
  6877                           ; BSR set to: 0
  6878                           ;car_black_box.c: 259:         clcd_putch(' ', (0x80 + (0)));
  6879   000BCE  0E80               	movlw	128
  6880   000BD0  6E08               	movwf	clcd_putch@addr^0,c
  6881   000BD2  0E20               	movlw	32
  6882   000BD4  ECAD  F012         	call	_clcd_putch
  6883                           
  6884                           ;car_black_box.c: 260:         clcd_putch('*', (0xC0 + (0)));
  6885   000BD8  0EC0               	movlw	192
  6886   000BDA  6E08               	movwf	clcd_putch@addr^0,c
  6887   000BDC  0E2A               	movlw	42
  6888   000BDE  ECAD  F012         	call	_clcd_putch
  6889   000BE2                     l3368:
  6890                           
  6891                           ;car_black_box.c: 262:     clcd_print(menu[index_1], (0x80 + (1)));
  6892   000BE2  90D8               	bcf	status,0,c
  6893   000BE4  3449               	rlcf	_index_1^0,w,c
  6894   000BE6  6ED9               	movwf	fsr2l,c
  6895   000BE8  344A               	rlcf	(_index_1+1)^0,w,c
  6896   000BEA  6EDA               	movwf	fsr2h,c
  6897   000BEC  0E70               	movlw	low _menu
  6898   000BEE  26D9               	addwf	fsr2l,f,c
  6899   000BF0  0E00               	movlw	high _menu
  6900   000BF2  22DA               	addwfc	fsr2h,f,c
  6901   000BF4  CFDE F003          	movff	postinc2,clcd_print@data
  6902   000BF8  CFDD F004          	movff	postdec2,clcd_print@data+1
  6903   000BFC  0E81               	movlw	129
  6904   000BFE  6E05               	movwf	clcd_print@addr^0,c
  6905   000C00  EC6D  F010         	call	_clcd_print	;wreg free
  6906   000C04                     
  6907                           ;car_black_box.c: 263:     clcd_print(menu[index_2], (0xC0 + (1)));
  6908   000C04  90D8               	bcf	status,0,c
  6909   000C06  0100               	movlb	0	; () banked
  6910   000C08  3584               	rlcf	_index_2& (0+255),w,b
  6911   000C0A  6ED9               	movwf	fsr2l,c
  6912   000C0C  3585               	rlcf	(_index_2+1)& (0+255),w,b
  6913   000C0E  6EDA               	movwf	fsr2h,c
  6914   000C10  0E70               	movlw	low _menu
  6915   000C12  26D9               	addwf	fsr2l,f,c
  6916   000C14  0E00               	movlw	high _menu
  6917   000C16  22DA               	addwfc	fsr2h,f,c
  6918   000C18  CFDE F003          	movff	postinc2,clcd_print@data
  6919   000C1C  CFDD F004          	movff	postdec2,clcd_print@data+1
  6920   000C20  0EC1               	movlw	193
  6921   000C22  6E05               	movwf	clcd_print@addr^0,c
  6922   000C24  EC6D  F010         	call	_clcd_print	;wreg free
  6923   000C28                     l241:
  6924   000C28  0012               	return		;funcret
  6925   000C2A                     __end_of_car_menu:
  6926                           	callstack 0
  6927                           
  6928 ;; *************** function _store_event *****************
  6929 ;; Defined at:
  6930 ;;		line 99 in file "car_black_box.c"
  6931 ;; Parameters:    Size  Location     Type
  6932 ;;  event           2    5[COMRAM] PTR unsigned char 
  6933 ;;		 -> event(17), 
  6934 ;; Auto vars:     Size  Location     Type
  6935 ;;  ind             2   11[COMRAM] int 
  6936 ;;  address         2    9[COMRAM] int 
  6937 ;; Return value:  Size  Location     Type
  6938 ;;                  1    wreg      void 
  6939 ;; Registers used:
  6940 ;;		wreg, fsr2l, fsr2h, status,2, status,0, cstack
  6941 ;; Tracked objects:
  6942 ;;		On entry : 0/0
  6943 ;;		On exit  : 0/0
  6944 ;;		Unchanged: 0/0
  6945 ;; Data sizes:     COMRAM   BANK0   BANK1   BANK2   BANK3   BANK4   BANK5
  6946 ;;      Params:         2       0       0       0       0       0       0
  6947 ;;      Locals:         4       0       0       0       0       0       0
  6948 ;;      Temps:          2       0       0       0       0       0       0
  6949 ;;      Totals:         8       0       0       0       0       0       0
  6950 ;;Total ram usage:        8 bytes
  6951 ;; Hardware stack levels used: 1
  6952 ;; Hardware stack levels required when called: 4
  6953 ;; This function calls:
  6954 ;;		_write_external_eeprom
  6955 ;; This function is called by:
  6956 ;;		_main
  6957 ;;		_gear_monitor
  6958 ;;		_car_menu
  6959 ;;		_clear_log
  6960 ;; This function uses a non-reentrant model
  6961 ;;
  6962                           
  6963                           	psect	text31
  6964   001D62                     __ptext31:
  6965                           	callstack 0
  6966   001D62                     _store_event:
  6967                           	callstack 26
  6968   001D62                     
  6969                           ;car_black_box.c: 100:     int address;;car_black_box.c: 101:     address = 0x00 + (16 *
      +                           index_eeprom);
  6970   001D62  C0B0  F008         	movff	_index_eeprom,??_store_event
  6971   001D66  C0B1  F009         	movff	_index_eeprom+1,??_store_event+1
  6972   001D6A  3A08               	swapf	??_store_event^0,f,c
  6973   001D6C  3A09               	swapf	(??_store_event+1)^0,f,c
  6974   001D6E  0EF0               	movlw	240
  6975   001D70  1609               	andwf	(??_store_event+1)^0,f,c
  6976   001D72  5008               	movf	??_store_event^0,w,c
  6977   001D74  0B0F               	andlw	15
  6978   001D76  1209               	iorwf	(??_store_event+1)^0,f,c
  6979   001D78  0EF0               	movlw	240
  6980   001D7A  1608               	andwf	??_store_event^0,f,c
  6981   001D7C  C008  F00A         	movff	??_store_event,store_event@address
  6982   001D80  C009  F00B         	movff	??_store_event+1,store_event@address+1
  6983   001D84                     
  6984                           ;car_black_box.c: 102:     for (int ind = 0; ind < 16; ind++) {
  6985   001D84  0E00               	movlw	0
  6986   001D86  6E0D               	movwf	(store_event@ind+1)^0,c
  6987   001D88  0E00               	movlw	0
  6988   001D8A  6E0C               	movwf	store_event@ind^0,c
  6989   001D8C                     l2756:
  6990                           
  6991                           ;car_black_box.c: 103:         write_external_eeprom((address + ind), event[ind]);
  6992   001D8C  500C               	movf	store_event@ind^0,w,c
  6993   001D8E  2406               	addwf	store_event@event^0,w,c
  6994   001D90  6ED9               	movwf	fsr2l,c
  6995   001D92  500D               	movf	(store_event@ind+1)^0,w,c
  6996   001D94  2007               	addwfc	(store_event@event+1)^0,w,c
  6997   001D96  6EDA               	movwf	fsr2h,c
  6998   001D98  50DF               	movf	indf2,w,c
  6999   001D9A  6E02               	movwf	write_external_eeprom@data^0,c
  7000   001D9C  500A               	movf	store_event@address^0,w,c
  7001   001D9E  240C               	addwf	store_event@ind^0,w,c
  7002   001DA0  ECEF  F011         	call	_write_external_eeprom
  7003   001DA4                     
  7004                           ;car_black_box.c: 104:     }
  7005   001DA4  4A0C               	infsnz	store_event@ind^0,f,c
  7006   001DA6  2A0D               	incf	(store_event@ind+1)^0,f,c
  7007   001DA8  BE0D               	btfsc	(store_event@ind+1)^0,7,c
  7008   001DAA  EFE0  F00E         	goto	u2151
  7009   001DAE  500D               	movf	(store_event@ind+1)^0,w,c
  7010   001DB0  E109               	bnz	u2150
  7011   001DB2  0E10               	movlw	16
  7012   001DB4  5C0C               	subwf	store_event@ind^0,w,c
  7013   001DB6  A0D8               	btfss	status,0,c
  7014   001DB8  EFE0  F00E         	goto	u2151
  7015   001DBC  EFE2  F00E         	goto	u2150
  7016   001DC0                     u2151:
  7017   001DC0  EFC6  F00E         	goto	l2756
  7018   001DC4                     u2150:
  7019   001DC4                     
  7020                           ;car_black_box.c: 105:     index_eeprom++;
  7021   001DC4  0100               	movlb	0	; () banked
  7022   001DC6  4BB0               	infsnz	_index_eeprom& (0+255),f,b
  7023   001DC8  2BB1               	incf	(_index_eeprom+1)& (0+255),f,b
  7024   001DCA                     
  7025                           ; BSR set to: 0
  7026                           ;car_black_box.c: 107:     if (total_index < 10)
  7027   001DCA  0E0A               	movlw	10
  7028   001DCC  6058               	cpfslt	_total_index^0,c
  7029   001DCE  EFEB  F00E         	goto	u2161
  7030   001DD2  EFED  F00E         	goto	u2160
  7031   001DD6                     u2161:
  7032   001DD6  EFF0  F00E         	goto	l2768
  7033   001DDA                     u2160:
  7034   001DDA                     
  7035                           ; BSR set to: 0
  7036                           ;car_black_box.c: 108:         total_index++;
  7037   001DDA  2A58               	incf	_total_index^0,f,c
  7038   001DDC  EF03  F00F         	goto	l2774
  7039   001DE0                     l2768:
  7040                           
  7041                           ; BSR set to: 0
  7042   001DE0  5044               	movf	(_count_event+1)^0,w,c
  7043   001DE2  E107               	bnz	u2171
  7044   001DE4  0E09               	movlw	9
  7045   001DE6  5C43               	subwf	_count_event^0,w,c
  7046   001DE8  B0D8               	btfsc	status,0,c
  7047   001DEA  EFF9  F00E         	goto	u2171
  7048   001DEE  EFFB  F00E         	goto	u2170
  7049   001DF2                     u2171:
  7050   001DF2  EFFF  F00E         	goto	l2772
  7051   001DF6                     u2170:
  7052   001DF6                     
  7053                           ; BSR set to: 0
  7054                           ;car_black_box.c: 110:         count_event++;
  7055   001DF6  4A43               	infsnz	_count_event^0,f,c
  7056   001DF8  2A44               	incf	(_count_event+1)^0,f,c
  7057   001DFA  EF03  F00F         	goto	l2774
  7058   001DFE                     l2772:
  7059                           
  7060                           ; BSR set to: 0
  7061                           ;car_black_box.c: 112:         count_event = 0;
  7062   001DFE  0E00               	movlw	0
  7063   001E00  6E44               	movwf	(_count_event+1)^0,c
  7064   001E02  0E00               	movlw	0
  7065   001E04  6E43               	movwf	_count_event^0,c
  7066   001E06                     l2774:
  7067                           
  7068                           ; BSR set to: 0
  7069                           ;car_black_box.c: 114:     if (index_eeprom == 10)
  7070   001E06  0E0A               	movlw	10
  7071   001E08  19B0               	xorwf	_index_eeprom& (0+255),w,b
  7072   001E0A  11B1               	iorwf	(_index_eeprom+1)& (0+255),w,b
  7073   001E0C  A4D8               	btfss	status,2,c
  7074   001E0E  EF0B  F00F         	goto	u2181
  7075   001E12  EF0D  F00F         	goto	u2180
  7076   001E16                     u2181:
  7077   001E16  EF11  F00F         	goto	l204
  7078   001E1A                     u2180:
  7079   001E1A                     
  7080                           ; BSR set to: 0
  7081                           ;car_black_box.c: 115:         index_eeprom = 0;
  7082   001E1A  0E00               	movlw	0
  7083   001E1C  6FB1               	movwf	(_index_eeprom+1)& (0+255),b
  7084   001E1E  0E00               	movlw	0
  7085   001E20  6FB0               	movwf	_index_eeprom& (0+255),b
  7086   001E22                     l204:
  7087                           
  7088                           ; BSR set to: 0
  7089   001E22  0012               	return		;funcret
  7090   001E24                     __end_of_store_event:
  7091                           	callstack 0
  7092                           
  7093 ;; *************** function _write_external_eeprom *****************
  7094 ;; Defined at:
  7095 ;;		line 13 in file "ext_eeprom.c"
  7096 ;; Parameters:    Size  Location     Type
  7097 ;;  address         1    wreg     unsigned char 
  7098 ;;  data            1    1[COMRAM] unsigned char 
  7099 ;; Auto vars:     Size  Location     Type
  7100 ;;  address         1    4[COMRAM] unsigned char 
  7101 ;;  i               2    2[COMRAM] unsigned int 
  7102 ;; Return value:  Size  Location     Type
  7103 ;;                  1    wreg      void 
  7104 ;; Registers used:
  7105 ;;		wreg, status,2, status,0, cstack
  7106 ;; Tracked objects:
  7107 ;;		On entry : 0/0
  7108 ;;		On exit  : 0/0
  7109 ;;		Unchanged: 0/0
  7110 ;; Data sizes:     COMRAM   BANK0   BANK1   BANK2   BANK3   BANK4   BANK5
  7111 ;;      Params:         1       0       0       0       0       0       0
  7112 ;;      Locals:         3       0       0       0       0       0       0
  7113 ;;      Temps:          0       0       0       0       0       0       0
  7114 ;;      Totals:         4       0       0       0       0       0       0
  7115 ;;Total ram usage:        4 bytes
  7116 ;; Hardware stack levels used: 1
  7117 ;; Hardware stack levels required when called: 3
  7118 ;; This function calls:
  7119 ;;		_i2c_start
  7120 ;;		_i2c_stop
  7121 ;;		_i2c_write
  7122 ;; This function is called by:
  7123 ;;		_main
  7124 ;;		_store_event
  7125 ;;		_change_password
  7126 ;; This function uses a non-reentrant model
  7127 ;;
  7128                           
  7129                           	psect	text32
  7130   0023DE                     __ptext32:
  7131                           	callstack 0
  7132   0023DE                     _write_external_eeprom:
  7133                           	callstack 27
  7134                           
  7135                           ; BSR set to: 0
  7136                           ;incstack = 0
  7137                           ;write_external_eeprom@address stored from wreg
  7138   0023DE  6E05               	movwf	write_external_eeprom@address^0,c
  7139   0023E0                     
  7140                           ;ext_eeprom.c: 13: void write_external_eeprom(unsigned char address, unsigned char data)
      +                          ;ext_eeprom.c: 14: {;ext_eeprom.c: 15:  i2c_start();
  7141   0023E0  ECE9  F012         	call	_i2c_start	;wreg free
  7142   0023E4                     
  7143                           ;ext_eeprom.c: 16:  i2c_write(0xA0);
  7144   0023E4  0EA0               	movlw	160
  7145   0023E6  ECD3  F012         	call	_i2c_write
  7146   0023EA                     
  7147                           ;ext_eeprom.c: 17:  i2c_write(address);
  7148   0023EA  5005               	movf	write_external_eeprom@address^0,w,c
  7149   0023EC  ECD3  F012         	call	_i2c_write
  7150   0023F0                     
  7151                           ;ext_eeprom.c: 18:  i2c_write(data);
  7152   0023F0  5002               	movf	write_external_eeprom@data^0,w,c
  7153   0023F2  ECD3  F012         	call	_i2c_write
  7154   0023F6                     
  7155                           ;ext_eeprom.c: 19:  i2c_stop();
  7156   0023F6  ECE5  F012         	call	_i2c_stop	;wreg free
  7157   0023FA                     
  7158                           ;ext_eeprom.c: 20:  for(unsigned int i = 3000;i--;);
  7159   0023FA  0E0B               	movlw	11
  7160   0023FC  6E04               	movwf	(write_external_eeprom@i+1)^0,c
  7161   0023FE  0EB8               	movlw	184
  7162   002400  6E03               	movwf	write_external_eeprom@i^0,c
  7163   002402                     l2736:
  7164   002402  0603               	decf	write_external_eeprom@i^0,f,c
  7165   002404  A0D8               	btfss	status,0,c
  7166   002406  0604               	decf	(write_external_eeprom@i+1)^0,f,c
  7167   002408  2803               	incf	write_external_eeprom@i^0,w,c
  7168   00240A  E106               	bnz	u2141
  7169   00240C  2804               	incf	(write_external_eeprom@i+1)^0,w,c
  7170   00240E  A4D8               	btfss	status,2,c
  7171   002410  EF0C  F012         	goto	u2141
  7172   002414  EF0E  F012         	goto	u2140
  7173   002418                     u2141:
  7174   002418  EF01  F012         	goto	l2736
  7175   00241C                     u2140:
  7176   00241C  0012               	return		;funcret
  7177   00241E                     __end_of_write_external_eeprom:
  7178                           	callstack 0
  7179                           
  7180 ;; *************** function _i2c_write *****************
  7181 ;; Defined at:
  7182 ;;		line 64 in file "i2c.c"
  7183 ;; Parameters:    Size  Location     Type
  7184 ;;  data            1    wreg     unsigned char 
  7185 ;; Auto vars:     Size  Location     Type
  7186 ;;  data            1    0[COMRAM] unsigned char 
  7187 ;; Return value:  Size  Location     Type
  7188 ;;                  1    wreg      void 
  7189 ;; Registers used:
  7190 ;;		wreg, cstack
  7191 ;; Tracked objects:
  7192 ;;		On entry : 0/0
  7193 ;;		On exit  : 0/0
  7194 ;;		Unchanged: 0/0
  7195 ;; Data sizes:     COMRAM   BANK0   BANK1   BANK2   BANK3   BANK4   BANK5
  7196 ;;      Params:         0       0       0       0       0       0       0
  7197 ;;      Locals:         1       0       0       0       0       0       0
  7198 ;;      Temps:          0       0       0       0       0       0       0
  7199 ;;      Totals:         1       0       0       0       0       0       0
  7200 ;;Total ram usage:        1 bytes
  7201 ;; Hardware stack levels used: 1
  7202 ;; Hardware stack levels required when called: 2
  7203 ;; This function calls:
  7204 ;;		_i2c_idle
  7205 ;; This function is called by:
  7206 ;;		_write_external_eeprom
  7207 ;;		_read_external_eeprom
  7208 ;;		_write_ds1307
  7209 ;;		_read_ds1307
  7210 ;; This function uses a non-reentrant model
  7211 ;;
  7212                           
  7213                           	psect	text33
  7214   0025A6                     __ptext33:
  7215                           	callstack 0
  7216   0025A6                     _i2c_write:
  7217                           	callstack 27
  7218                           
  7219                           ;incstack = 0
  7220                           ;i2c_write@data stored from wreg
  7221   0025A6  6E01               	movwf	i2c_write@data^0,c
  7222   0025A8                     
  7223                           ;i2c.c: 64: void i2c_write(unsigned char data);i2c.c: 65: {;i2c.c: 66:  SSPBUF = data;
  7224   0025A8  C001  FFC9         	movff	i2c_write@data,4041	;volatile
  7225   0025AC                     
  7226                           ;i2c.c: 67:  i2c_idle();
  7227   0025AC  ECC4  F012         	call	_i2c_idle	;wreg free
  7228   0025B0  0012               	return		;funcret
  7229   0025B2                     __end_of_i2c_write:
  7230                           	callstack 0
  7231                           
  7232 ;; *************** function _i2c_stop *****************
  7233 ;; Defined at:
  7234 ;;		line 52 in file "i2c.c"
  7235 ;; Parameters:    Size  Location     Type
  7236 ;;		None
  7237 ;; Auto vars:     Size  Location     Type
  7238 ;;		None
  7239 ;; Return value:  Size  Location     Type
  7240 ;;                  1    wreg      void 
  7241 ;; Registers used:
  7242 ;;		cstack
  7243 ;; Tracked objects:
  7244 ;;		On entry : 0/0
  7245 ;;		On exit  : 0/0
  7246 ;;		Unchanged: 0/0
  7247 ;; Data sizes:     COMRAM   BANK0   BANK1   BANK2   BANK3   BANK4   BANK5
  7248 ;;      Params:         0       0       0       0       0       0       0
  7249 ;;      Locals:         0       0       0       0       0       0       0
  7250 ;;      Temps:          0       0       0       0       0       0       0
  7251 ;;      Totals:         0       0       0       0       0       0       0
  7252 ;;Total ram usage:        0 bytes
  7253 ;; Hardware stack levels used: 1
  7254 ;; Hardware stack levels required when called: 2
  7255 ;; This function calls:
  7256 ;;		_i2c_idle
  7257 ;; This function is called by:
  7258 ;;		_write_external_eeprom
  7259 ;;		_read_external_eeprom
  7260 ;;		_write_ds1307
  7261 ;;		_read_ds1307
  7262 ;; This function uses a non-reentrant model
  7263 ;;
  7264                           
  7265                           	psect	text34
  7266   0025CA                     __ptext34:
  7267                           	callstack 0
  7268   0025CA                     _i2c_stop:
  7269                           	callstack 27
  7270   0025CA                     
  7271                           ;i2c.c: 54:  PEN = 1;
  7272   0025CA  84C5               	bsf	4037,2,c	;volatile
  7273   0025CC                     
  7274                           ;i2c.c: 55:  i2c_idle();
  7275   0025CC  ECC4  F012         	call	_i2c_idle	;wreg free
  7276   0025D0  0012               	return		;funcret
  7277   0025D2                     __end_of_i2c_stop:
  7278                           	callstack 0
  7279                           
  7280 ;; *************** function _i2c_start *****************
  7281 ;; Defined at:
  7282 ;;		line 46 in file "i2c.c"
  7283 ;; Parameters:    Size  Location     Type
  7284 ;;		None
  7285 ;; Auto vars:     Size  Location     Type
  7286 ;;		None
  7287 ;; Return value:  Size  Location     Type
  7288 ;;                  1    wreg      void 
  7289 ;; Registers used:
  7290 ;;		cstack
  7291 ;; Tracked objects:
  7292 ;;		On entry : 0/0
  7293 ;;		On exit  : 0/0
  7294 ;;		Unchanged: 0/0
  7295 ;; Data sizes:     COMRAM   BANK0   BANK1   BANK2   BANK3   BANK4   BANK5
  7296 ;;      Params:         0       0       0       0       0       0       0
  7297 ;;      Locals:         0       0       0       0       0       0       0
  7298 ;;      Temps:          0       0       0       0       0       0       0
  7299 ;;      Totals:         0       0       0       0       0       0       0
  7300 ;;Total ram usage:        0 bytes
  7301 ;; Hardware stack levels used: 1
  7302 ;; Hardware stack levels required when called: 2
  7303 ;; This function calls:
  7304 ;;		_i2c_idle
  7305 ;; This function is called by:
  7306 ;;		_write_external_eeprom
  7307 ;;		_read_external_eeprom
  7308 ;;		_write_ds1307
  7309 ;;		_read_ds1307
  7310 ;; This function uses a non-reentrant model
  7311 ;;
  7312                           
  7313                           	psect	text35
  7314   0025D2                     __ptext35:
  7315                           	callstack 0
  7316   0025D2                     _i2c_start:
  7317                           	callstack 27
  7318   0025D2                     
  7319                           ;i2c.c: 48:  SEN = 1;
  7320   0025D2  80C5               	bsf	4037,0,c	;volatile
  7321   0025D4                     
  7322                           ;i2c.c: 49:  i2c_idle();
  7323   0025D4  ECC4  F012         	call	_i2c_idle	;wreg free
  7324   0025D8  0012               	return		;funcret
  7325   0025DA                     __end_of_i2c_start:
  7326                           	callstack 0
  7327                           
  7328 ;; *************** function _i2c_idle *****************
  7329 ;; Defined at:
  7330 ;;		line 32 in file "i2c.c"
  7331 ;; Parameters:    Size  Location     Type
  7332 ;;		None
  7333 ;; Auto vars:     Size  Location     Type
  7334 ;;		None
  7335 ;; Return value:  Size  Location     Type
  7336 ;;                  1    wreg      void 
  7337 ;; Registers used:
  7338 ;;		None
  7339 ;; Tracked objects:
  7340 ;;		On entry : 0/0
  7341 ;;		On exit  : 0/0
  7342 ;;		Unchanged: 0/0
  7343 ;; Data sizes:     COMRAM   BANK0   BANK1   BANK2   BANK3   BANK4   BANK5
  7344 ;;      Params:         0       0       0       0       0       0       0
  7345 ;;      Locals:         0       0       0       0       0       0       0
  7346 ;;      Temps:          0       0       0       0       0       0       0
  7347 ;;      Totals:         0       0       0       0       0       0       0
  7348 ;;Total ram usage:        0 bytes
  7349 ;; Hardware stack levels used: 1
  7350 ;; Hardware stack levels required when called: 1
  7351 ;; This function calls:
  7352 ;;		Nothing
  7353 ;; This function is called by:
  7354 ;;		_i2c_start
  7355 ;;		_i2c_stop
  7356 ;;		_i2c_rep_start
  7357 ;;		_i2c_write
  7358 ;;		_i2c_rx_mode
  7359 ;; This function uses a non-reentrant model
  7360 ;;
  7361                           
  7362                           	psect	text36
  7363   002588                     __ptext36:
  7364                           	callstack 0
  7365   002588                     _i2c_idle:
  7366                           	callstack 27
  7367   002588                     l568:
  7368   002588  A69E               	btfss	3998,3,c	;volatile
  7369   00258A  EFC9  F012         	goto	u2131
  7370   00258E  EFCB  F012         	goto	u2130
  7371   002592                     u2131:
  7372   002592  EFC4  F012         	goto	l568
  7373   002596                     u2130:
  7374   002596                     
  7375                           ;i2c.c: 35:  SSPIF = 0;
  7376   002596  969E               	bcf	3998,3,c	;volatile
  7377   002598  0012               	return		;funcret
  7378   00259A                     __end_of_i2c_idle:
  7379                           	callstack 0
  7380                           
  7381 ;; *************** function _clcd_putch *****************
  7382 ;; Defined at:
  7383 ;;		line 75 in file "clcd.c"
  7384 ;; Parameters:    Size  Location     Type
  7385 ;;  data            1    wreg     const unsigned char 
  7386 ;;  addr            1    7[COMRAM] unsigned char 
  7387 ;; Auto vars:     Size  Location     Type
  7388 ;;  data            1    8[COMRAM] const unsigned char 
  7389 ;; Return value:  Size  Location     Type
  7390 ;;                  1    wreg      void 
  7391 ;; Registers used:
  7392 ;;		wreg, status,2, cstack
  7393 ;; Tracked objects:
  7394 ;;		On entry : 0/0
  7395 ;;		On exit  : 0/0
  7396 ;;		Unchanged: 0/0
  7397 ;; Data sizes:     COMRAM   BANK0   BANK1   BANK2   BANK3   BANK4   BANK5
  7398 ;;      Params:         1       0       0       0       0       0       0
  7399 ;;      Locals:         1       0       0       0       0       0       0
  7400 ;;      Temps:          0       0       0       0       0       0       0
  7401 ;;      Totals:         2       0       0       0       0       0       0
  7402 ;;Total ram usage:        2 bytes
  7403 ;; Hardware stack levels used: 1
  7404 ;; Hardware stack levels required when called: 2
  7405 ;; This function calls:
  7406 ;;		_clcd_write
  7407 ;; This function is called by:
  7408 ;;		_read_password
  7409 ;;		_car_menu
  7410 ;;		_view_log
  7411 ;;		_set_time
  7412 ;;		_change_password
  7413 ;; This function uses a non-reentrant model
  7414 ;;
  7415                           
  7416                           	psect	text37
  7417   00255A                     __ptext37:
  7418                           	callstack 0
  7419   00255A                     _clcd_putch:
  7420                           	callstack 27
  7421                           
  7422                           ;incstack = 0
  7423                           ;clcd_putch@data stored from wreg
  7424   00255A  6E09               	movwf	clcd_putch@data^0,c
  7425   00255C                     
  7426                           ;clcd.c: 75: void clcd_putch(const unsigned char data, unsigned char addr);clcd.c: 76: {
      +                          ;clcd.c: 77:  clcd_write(addr, 0);
  7427   00255C  0E00               	movlw	0
  7428   00255E  6E01               	movwf	clcd_write@control_bit^0,c
  7429   002560  5008               	movf	clcd_putch@addr^0,w,c
  7430   002562  EC2E  F012         	call	_clcd_write
  7431                           
  7432                           ;clcd.c: 78:  clcd_write(data, 1);
  7433   002566  0E01               	movlw	1
  7434   002568  6E01               	movwf	clcd_write@control_bit^0,c
  7435   00256A  5009               	movf	clcd_putch@data^0,w,c
  7436   00256C  EC2E  F012         	call	_clcd_write
  7437   002570  0012               	return		;funcret
  7438   002572                     __end_of_clcd_putch:
  7439                           	callstack 0
  7440                           
  7441 ;; *************** function _clcd_print *****************
  7442 ;; Defined at:
  7443 ;;		line 66 in file "clcd.c"
  7444 ;; Parameters:    Size  Location     Type
  7445 ;;  data            2    2[COMRAM] PTR const unsigned char 
  7446 ;;		 -> STR_48(18), STR_47(17), STR_46(17), STR_45(17), 
  7447 ;;		 -> STR_44(17), STR_43(17), STR_42(17), STR_41(17), 
  7448 ;;		 -> STR_40(17), STR_39(16), STR_38(17), STR_37(17), 
  7449 ;;		 -> STR_36(17), STR_35(18), STR_34(3), view_event(17), 
  7450 ;;		 -> STR_33(12), STR_32(10), STR_27(17), STR_26(17), 
  7451 ;;		 -> STR_25(17), STR_24(17), STR_23(17), STR_22(16), 
  7452 ;;		 -> STR_21(16), STR_20(17), STR_19(17), STR_18(16), 
  7453 ;;		 -> STR_17(17), STR_16(17), STR_15(17), STR_14(17), 
  7454 ;;		 -> STR_5(17), STR_4(17), time(9), STR_3(17), 
  7455 ;;		 -> STR_2(17), STR_1(17), event(17), 
  7456 ;;  addr            1    4[COMRAM] unsigned char 
  7457 ;; Auto vars:     Size  Location     Type
  7458 ;;		None
  7459 ;; Return value:  Size  Location     Type
  7460 ;;                  1    wreg      void 
  7461 ;; Registers used:
  7462 ;;		wreg, fsr1l, fsr1h, status,2, status,0, tblptrl, tblptrh, tblptru, cstack
  7463 ;; Tracked objects:
  7464 ;;		On entry : 0/0
  7465 ;;		On exit  : 0/0
  7466 ;;		Unchanged: 0/0
  7467 ;; Data sizes:     COMRAM   BANK0   BANK1   BANK2   BANK3   BANK4   BANK5
  7468 ;;      Params:         3       0       0       0       0       0       0
  7469 ;;      Locals:         0       0       0       0       0       0       0
  7470 ;;      Temps:          0       0       0       0       0       0       0
  7471 ;;      Totals:         3       0       0       0       0       0       0
  7472 ;;Total ram usage:        3 bytes
  7473 ;; Hardware stack levels used: 1
  7474 ;; Hardware stack levels required when called: 2
  7475 ;; This function calls:
  7476 ;;		_clcd_write
  7477 ;; This function is called by:
  7478 ;;		_main
  7479 ;;		_display_dashboard
  7480 ;;		_read_password
  7481 ;;		_car_menu
  7482 ;;		_view_log
  7483 ;;		_set_time
  7484 ;;		_clear_log
  7485 ;;		_change_password
  7486 ;; This function uses a non-reentrant model
  7487 ;;
  7488                           
  7489                           	psect	text38
  7490   0020DA                     __ptext38:
  7491                           	callstack 0
  7492   0020DA                     _clcd_print:
  7493                           	callstack 27
  7494   0020DA                     
  7495                           ;clcd.c: 66: void clcd_print(const unsigned char *data, unsigned char addr);clcd.c: 67: 
      +                          {;clcd.c: 68:  clcd_write(addr, 0);
  7496   0020DA  0E00               	movlw	0
  7497   0020DC  6E01               	movwf	clcd_write@control_bit^0,c
  7498   0020DE  5005               	movf	clcd_print@addr^0,w,c
  7499   0020E0  EC2E  F012         	call	_clcd_write
  7500                           
  7501                           ;clcd.c: 69:  while (*data != '\0')
  7502   0020E4  EF8A  F010         	goto	l2918
  7503   0020E8                     l2914:
  7504                           
  7505                           ;clcd.c: 70:  {;clcd.c: 71:   clcd_write(*data++, 1);
  7506   0020E8  0E01               	movlw	1
  7507   0020EA  6E01               	movwf	clcd_write@control_bit^0,c
  7508   0020EC  C003  FFF6         	movff	clcd_print@data,tblptrl
  7509   0020F0  C004  FFF7         	movff	clcd_print@data+1,tblptrh
  7510   0020F4  6AF8               	clrf	tblptru,c
  7511   0020F6  0E05               	movlw	(high __ramtop+-1)
  7512   0020F8  64F7               	cpfsgt	tblptrh,c
  7513   0020FA  D003               	bra	u2227
  7514   0020FC  0008               	tblrd		*
  7515   0020FE  50F5               	movf	tablat,w,c
  7516   002100  D005               	bra	u2220
  7517   002102                     u2227:
  7518   002102  CFF6 FFE1          	movff	tblptrl,fsr1l
  7519   002106  CFF7 FFE2          	movff	tblptrh,fsr1h
  7520   00210A  50E7               	movf	indf1,w,c
  7521   00210C                     u2220:
  7522   00210C  EC2E  F012         	call	_clcd_write
  7523   002110  4A03               	infsnz	clcd_print@data^0,f,c
  7524   002112  2A04               	incf	(clcd_print@data+1)^0,f,c
  7525   002114                     l2918:
  7526                           
  7527                           ;clcd.c: 69:  while (*data != '\0')
  7528   002114  C003  FFF6         	movff	clcd_print@data,tblptrl
  7529   002118  C004  FFF7         	movff	clcd_print@data+1,tblptrh
  7530   00211C  6AF8               	clrf	tblptru,c
  7531   00211E  0E05               	movlw	(high __ramtop+-1)
  7532   002120  64F7               	cpfsgt	tblptrh,c
  7533   002122  D003               	bra	u2237
  7534   002124  0008               	tblrd		*
  7535   002126  50F5               	movf	tablat,w,c
  7536   002128  D005               	bra	u2230
  7537   00212A                     u2237:
  7538   00212A  CFF6 FFE1          	movff	tblptrl,fsr1l
  7539   00212E  CFF7 FFE2          	movff	tblptrh,fsr1h
  7540   002132  50E7               	movf	indf1,w,c
  7541   002134                     u2230:
  7542   002134  0900               	iorlw	0
  7543   002136  A4D8               	btfss	status,2,c
  7544   002138  EFA0  F010         	goto	u2241
  7545   00213C  EFA2  F010         	goto	u2240
  7546   002140                     u2241:
  7547   002140  EF74  F010         	goto	l2914
  7548   002144                     u2240:
  7549   002144  0012               	return		;funcret
  7550   002146                     __end_of_clcd_print:
  7551                           	callstack 0
  7552                           
  7553 ;; *************** function _clcd_write *****************
  7554 ;; Defined at:
  7555 ;;		line 12 in file "clcd.c"
  7556 ;; Parameters:    Size  Location     Type
  7557 ;;  byte            1    wreg     unsigned char 
  7558 ;;  control_bit     1    0[COMRAM] unsigned char 
  7559 ;; Auto vars:     Size  Location     Type
  7560 ;;  byte            1    1[COMRAM] unsigned char 
  7561 ;; Return value:  Size  Location     Type
  7562 ;;                  1    wreg      void 
  7563 ;; Registers used:
  7564 ;;		wreg
  7565 ;; Tracked objects:
  7566 ;;		On entry : 0/0
  7567 ;;		On exit  : 0/0
  7568 ;;		Unchanged: 0/0
  7569 ;; Data sizes:     COMRAM   BANK0   BANK1   BANK2   BANK3   BANK4   BANK5
  7570 ;;      Params:         1       0       0       0       0       0       0
  7571 ;;      Locals:         1       0       0       0       0       0       0
  7572 ;;      Temps:          0       0       0       0       0       0       0
  7573 ;;      Totals:         2       0       0       0       0       0       0
  7574 ;;Total ram usage:        2 bytes
  7575 ;; Hardware stack levels used: 1
  7576 ;; Hardware stack levels required when called: 1
  7577 ;; This function calls:
  7578 ;;		Nothing
  7579 ;; This function is called by:
  7580 ;;		_init_clcd
  7581 ;;		_clcd_print
  7582 ;;		_clcd_putch
  7583 ;; This function uses a non-reentrant model
  7584 ;;
  7585                           
  7586                           	psect	text39
  7587   00245C                     __ptext39:
  7588                           	callstack 0
  7589   00245C                     _clcd_write:
  7590                           	callstack 27
  7591                           
  7592                           ;incstack = 0
  7593                           ;clcd_write@byte stored from wreg
  7594   00245C  6E02               	movwf	clcd_write@byte^0,c
  7595   00245E                     
  7596                           ;clcd.c: 12: void clcd_write(unsigned char byte, unsigned char control_bit);clcd.c: 13: 
      +                          {;clcd.c: 14:  RC1 = control_bit;
  7597   00245E  B001               	btfsc	clcd_write@control_bit^0,0,c
  7598   002460  EF34  F012         	goto	u2191
  7599   002464  EF37  F012         	goto	u2190
  7600   002468                     u2191:
  7601   002468  8282               	bsf	3970,1,c	;volatile
  7602   00246A  EF38  F012         	goto	u2205
  7603   00246E                     u2190:
  7604   00246E  9282               	bcf	3970,1,c	;volatile
  7605   002470                     u2205:
  7606   002470                     
  7607                           ;clcd.c: 15:  PORTD = byte;
  7608   002470  C002  FF83         	movff	clcd_write@byte,3971	;volatile
  7609   002474                     
  7610                           ;clcd.c: 18:  RC2 = 1;
  7611   002474  8482               	bsf	3970,2,c	;volatile
  7612   002476                     
  7613                           ;clcd.c: 19:  RC2 = 0;
  7614   002476  9482               	bcf	3970,2,c	;volatile
  7615   002478                     
  7616                           ;clcd.c: 21:  TRISD7 = 0xFF;
  7617   002478  8E95               	bsf	3989,7,c	;volatile
  7618   00247A                     
  7619                           ;clcd.c: 22:  RC0 = 1;
  7620   00247A  8082               	bsf	3970,0,c	;volatile
  7621   00247C                     
  7622                           ;clcd.c: 23:  RC1 = 0;
  7623   00247C  9282               	bcf	3970,1,c	;volatile
  7624   00247E                     l2806:
  7625                           
  7626                           ;clcd.c: 26:  {;clcd.c: 27:   RC2 = 1;
  7627   00247E  8482               	bsf	3970,2,c	;volatile
  7628   002480                     
  7629                           ;clcd.c: 28:   RC2 = 0;
  7630   002480  9482               	bcf	3970,2,c	;volatile
  7631   002482                     
  7632                           ;clcd.c: 29:  } while (RD7);
  7633   002482  BE83               	btfsc	3971,7,c	;volatile
  7634   002484  EF46  F012         	goto	u2211
  7635   002488  EF48  F012         	goto	u2210
  7636   00248C                     u2211:
  7637   00248C  EF3F  F012         	goto	l2806
  7638   002490                     u2210:
  7639   002490                     
  7640                           ;clcd.c: 31:  RC0 = 0;
  7641   002490  9082               	bcf	3970,0,c	;volatile
  7642                           
  7643                           ;clcd.c: 32:  TRISD7 = 0x00;
  7644   002492  9E95               	bcf	3989,7,c	;volatile
  7645   002494  0012               	return		;funcret
  7646   002496                     __end_of_clcd_write:
  7647                           	callstack 0
  7648                           
  7649 ;; *************** function ___xxtofl *****************
  7650 ;; Defined at:
  7651 ;;		line 10 in file "C:\Program Files\Microchip\xc8\v2.41\pic\sources\c99\common\xxtofl.c"
  7652 ;; Parameters:    Size  Location     Type
  7653 ;;  sign            1    wreg     unsigned char 
  7654 ;;  val             4    8[COMRAM] long 
  7655 ;; Auto vars:     Size  Location     Type
  7656 ;;  sign            1   16[COMRAM] unsigned char 
  7657 ;;  arg             4   18[COMRAM] unsigned long 
  7658 ;;  exp             1   17[COMRAM] unsigned char 
  7659 ;; Return value:  Size  Location     Type
  7660 ;;                  4    8[COMRAM] unsigned char 
  7661 ;; Registers used:
  7662 ;;		wreg, status,2, status,0
  7663 ;; Tracked objects:
  7664 ;;		On entry : 0/0
  7665 ;;		On exit  : 0/0
  7666 ;;		Unchanged: 0/0
  7667 ;; Data sizes:     COMRAM   BANK0   BANK1   BANK2   BANK3   BANK4   BANK5
  7668 ;;      Params:         4       0       0       0       0       0       0
  7669 ;;      Locals:         6       0       0       0       0       0       0
  7670 ;;      Temps:          4       0       0       0       0       0       0
  7671 ;;      Totals:        14       0       0       0       0       0       0
  7672 ;;Total ram usage:       14 bytes
  7673 ;; Hardware stack levels used: 1
  7674 ;; Hardware stack levels required when called: 1
  7675 ;; This function calls:
  7676 ;;		Nothing
  7677 ;; This function is called by:
  7678 ;;		_main
  7679 ;; This function uses a non-reentrant model
  7680 ;;
  7681                           
  7682                           	psect	text40
  7683   00180E                     __ptext40:
  7684                           	callstack 0
  7685   00180E                     ___xxtofl:
  7686                           	callstack 29
  7687                           
  7688                           ;incstack = 0
  7689                           ;___xxtofl@sign stored from wreg
  7690   00180E  6E11               	movwf	___xxtofl@sign^0,c
  7691   001810  5011               	movf	___xxtofl@sign^0,w,c
  7692   001812  B4D8               	btfsc	status,2,c
  7693   001814  EF0E  F00C         	goto	u3991
  7694   001818  EF10  F00C         	goto	u3990
  7695   00181C                     u3991:
  7696   00181C  EF32  F00C         	goto	l1296
  7697   001820                     u3990:
  7698   001820  BE0C               	btfsc	(___xxtofl@val+3)^0,7,c
  7699   001822  EF17  F00C         	goto	u4000
  7700   001826  EF15  F00C         	goto	u4001
  7701   00182A                     u4001:
  7702   00182A  EF32  F00C         	goto	l1296
  7703   00182E                     u4000:
  7704   00182E  C009  F00D         	movff	___xxtofl@val,??___xxtofl
  7705   001832  C00A  F00E         	movff	___xxtofl@val+1,??___xxtofl+1
  7706   001836  C00B  F00F         	movff	___xxtofl@val+2,??___xxtofl+2
  7707   00183A  C00C  F010         	movff	___xxtofl@val+3,??___xxtofl+3
  7708   00183E  1E0D               	comf	??___xxtofl^0,f,c
  7709   001840  1E0E               	comf	(??___xxtofl+1)^0,f,c
  7710   001842  1E0F               	comf	(??___xxtofl+2)^0,f,c
  7711   001844  1E10               	comf	(??___xxtofl+3)^0,f,c
  7712   001846  2A0D               	incf	??___xxtofl^0,f,c
  7713   001848  0E00               	movlw	0
  7714   00184A  220E               	addwfc	(??___xxtofl+1)^0,f,c
  7715   00184C  220F               	addwfc	(??___xxtofl+2)^0,f,c
  7716   00184E  2210               	addwfc	(??___xxtofl+3)^0,f,c
  7717   001850  C00D  F013         	movff	??___xxtofl,___xxtofl@arg
  7718   001854  C00E  F014         	movff	??___xxtofl+1,___xxtofl@arg+1
  7719   001858  C00F  F015         	movff	??___xxtofl+2,___xxtofl@arg+2
  7720   00185C  C010  F016         	movff	??___xxtofl+3,___xxtofl@arg+3
  7721   001860  EF3A  F00C         	goto	l3916
  7722   001864                     l1296:
  7723   001864  C009  F013         	movff	___xxtofl@val,___xxtofl@arg
  7724   001868  C00A  F014         	movff	___xxtofl@val+1,___xxtofl@arg+1
  7725   00186C  C00B  F015         	movff	___xxtofl@val+2,___xxtofl@arg+2
  7726   001870  C00C  F016         	movff	___xxtofl@val+3,___xxtofl@arg+3
  7727   001874                     l3916:
  7728   001874  5009               	movf	___xxtofl@val^0,w,c
  7729   001876  100A               	iorwf	(___xxtofl@val+1)^0,w,c
  7730   001878  100B               	iorwf	(___xxtofl@val+2)^0,w,c
  7731   00187A  100C               	iorwf	(___xxtofl@val+3)^0,w,c
  7732   00187C  A4D8               	btfss	status,2,c
  7733   00187E  EF43  F00C         	goto	u4011
  7734   001882  EF45  F00C         	goto	u4010
  7735   001886                     u4011:
  7736   001886  EF4F  F00C         	goto	l3922
  7737   00188A                     u4010:
  7738   00188A  0E00               	movlw	0
  7739   00188C  6E09               	movwf	?___xxtofl^0,c
  7740   00188E  0E00               	movlw	0
  7741   001890  6E0A               	movwf	(?___xxtofl+1)^0,c
  7742   001892  0E00               	movlw	0
  7743   001894  6E0B               	movwf	(?___xxtofl+2)^0,c
  7744   001896  0E00               	movlw	0
  7745   001898  6E0C               	movwf	(?___xxtofl+3)^0,c
  7746   00189A  EFE0  F00C         	goto	l1299
  7747   00189E                     l3922:
  7748   00189E  0E96               	movlw	150
  7749   0018A0  6E12               	movwf	___xxtofl@exp^0,c
  7750   0018A2  EF59  F00C         	goto	l3926
  7751   0018A6                     l3924:
  7752   0018A6  2A12               	incf	___xxtofl@exp^0,f,c
  7753   0018A8  90D8               	bcf	status,0,c
  7754   0018AA  3216               	rrcf	(___xxtofl@arg+3)^0,f,c
  7755   0018AC  3215               	rrcf	(___xxtofl@arg+2)^0,f,c
  7756   0018AE  3214               	rrcf	(___xxtofl@arg+1)^0,f,c
  7757   0018B0  3213               	rrcf	___xxtofl@arg^0,f,c
  7758   0018B2                     l3926:
  7759   0018B2  0E00               	movlw	0
  7760   0018B4  1413               	andwf	___xxtofl@arg^0,w,c
  7761   0018B6  6E0D               	movwf	??___xxtofl^0,c
  7762   0018B8  0E00               	movlw	0
  7763   0018BA  1414               	andwf	(___xxtofl@arg+1)^0,w,c
  7764   0018BC  6E0E               	movwf	(??___xxtofl+1)^0,c
  7765   0018BE  0E00               	movlw	0
  7766   0018C0  1415               	andwf	(___xxtofl@arg+2)^0,w,c
  7767   0018C2  6E0F               	movwf	(??___xxtofl+2)^0,c
  7768   0018C4  0EFE               	movlw	254
  7769   0018C6  1416               	andwf	(___xxtofl@arg+3)^0,w,c
  7770   0018C8  6E10               	movwf	(??___xxtofl+3)^0,c
  7771   0018CA  500D               	movf	??___xxtofl^0,w,c
  7772   0018CC  100E               	iorwf	(??___xxtofl+1)^0,w,c
  7773   0018CE  100F               	iorwf	(??___xxtofl+2)^0,w,c
  7774   0018D0  1010               	iorwf	(??___xxtofl+3)^0,w,c
  7775   0018D2  A4D8               	btfss	status,2,c
  7776   0018D4  EF6E  F00C         	goto	u4021
  7777   0018D8  EF70  F00C         	goto	u4020
  7778   0018DC                     u4021:
  7779   0018DC  EF53  F00C         	goto	l3924
  7780   0018E0                     u4020:
  7781   0018E0  EF7E  F00C         	goto	l1303
  7782   0018E4                     l3928:
  7783   0018E4  2A12               	incf	___xxtofl@exp^0,f,c
  7784   0018E6  0E01               	movlw	1
  7785   0018E8  2613               	addwf	___xxtofl@arg^0,f,c
  7786   0018EA  0E00               	movlw	0
  7787   0018EC  2214               	addwfc	(___xxtofl@arg+1)^0,f,c
  7788   0018EE  2215               	addwfc	(___xxtofl@arg+2)^0,f,c
  7789   0018F0  2216               	addwfc	(___xxtofl@arg+3)^0,f,c
  7790   0018F2  90D8               	bcf	status,0,c
  7791   0018F4  3216               	rrcf	(___xxtofl@arg+3)^0,f,c
  7792   0018F6  3215               	rrcf	(___xxtofl@arg+2)^0,f,c
  7793   0018F8  3214               	rrcf	(___xxtofl@arg+1)^0,f,c
  7794   0018FA  3213               	rrcf	___xxtofl@arg^0,f,c
  7795   0018FC                     l1303:
  7796   0018FC  0E00               	movlw	0
  7797   0018FE  1413               	andwf	___xxtofl@arg^0,w,c
  7798   001900  6E0D               	movwf	??___xxtofl^0,c
  7799   001902  0E00               	movlw	0
  7800   001904  1414               	andwf	(___xxtofl@arg+1)^0,w,c
  7801   001906  6E0E               	movwf	(??___xxtofl+1)^0,c
  7802   001908  0E00               	movlw	0
  7803   00190A  1415               	andwf	(___xxtofl@arg+2)^0,w,c
  7804   00190C  6E0F               	movwf	(??___xxtofl+2)^0,c
  7805   00190E  0EFF               	movlw	255
  7806   001910  1416               	andwf	(___xxtofl@arg+3)^0,w,c
  7807   001912  6E10               	movwf	(??___xxtofl+3)^0,c
  7808   001914  500D               	movf	??___xxtofl^0,w,c
  7809   001916  100E               	iorwf	(??___xxtofl+1)^0,w,c
  7810   001918  100F               	iorwf	(??___xxtofl+2)^0,w,c
  7811   00191A  1010               	iorwf	(??___xxtofl+3)^0,w,c
  7812   00191C  A4D8               	btfss	status,2,c
  7813   00191E  EF93  F00C         	goto	u4031
  7814   001922  EF95  F00C         	goto	u4030
  7815   001926                     u4031:
  7816   001926  EF72  F00C         	goto	l3928
  7817   00192A                     u4030:
  7818   00192A  EF9D  F00C         	goto	l3936
  7819   00192E                     l3934:
  7820   00192E  0612               	decf	___xxtofl@exp^0,f,c
  7821   001930  90D8               	bcf	status,0,c
  7822   001932  3613               	rlcf	___xxtofl@arg^0,f,c
  7823   001934  3614               	rlcf	(___xxtofl@arg+1)^0,f,c
  7824   001936  3615               	rlcf	(___xxtofl@arg+2)^0,f,c
  7825   001938  3616               	rlcf	(___xxtofl@arg+3)^0,f,c
  7826   00193A                     l3936:
  7827   00193A  BE15               	btfsc	(___xxtofl@arg+2)^0,7,c
  7828   00193C  EFA2  F00C         	goto	u4041
  7829   001940  EFA4  F00C         	goto	u4040
  7830   001944                     u4041:
  7831   001944  EFAC  F00C         	goto	l1310
  7832   001948                     u4040:
  7833   001948  0E02               	movlw	2
  7834   00194A  6012               	cpfslt	___xxtofl@exp^0,c
  7835   00194C  EFAA  F00C         	goto	u4051
  7836   001950  EFAC  F00C         	goto	u4050
  7837   001954                     u4051:
  7838   001954  EF97  F00C         	goto	l3934
  7839   001958                     u4050:
  7840   001958                     l1310:
  7841   001958  B012               	btfsc	___xxtofl@exp^0,0,c
  7842   00195A  EFB1  F00C         	goto	u4061
  7843   00195E  EFB3  F00C         	goto	u4060
  7844   001962                     u4061:
  7845   001962  EFB4  F00C         	goto	l3942
  7846   001966                     u4060:
  7847   001966  9E15               	bcf	(___xxtofl@arg+2)^0,7,c
  7848   001968                     l3942:
  7849   001968  90D8               	bcf	status,0,c
  7850   00196A  3212               	rrcf	___xxtofl@exp^0,f,c
  7851   00196C  C012  F00D         	movff	___xxtofl@exp,??___xxtofl
  7852   001970  6A0E               	clrf	(??___xxtofl+1)^0,c
  7853   001972  6A0F               	clrf	(??___xxtofl+2)^0,c
  7854   001974  6A10               	clrf	(??___xxtofl+3)^0,c
  7855   001976  C00D  F010         	movff	??___xxtofl,??___xxtofl+3
  7856   00197A  6A0F               	clrf	(??___xxtofl+2)^0,c
  7857   00197C  6A0E               	clrf	(??___xxtofl+1)^0,c
  7858   00197E  6A0D               	clrf	??___xxtofl^0,c
  7859   001980  500D               	movf	??___xxtofl^0,w,c
  7860   001982  1213               	iorwf	___xxtofl@arg^0,f,c
  7861   001984  500E               	movf	(??___xxtofl+1)^0,w,c
  7862   001986  1214               	iorwf	(___xxtofl@arg+1)^0,f,c
  7863   001988  500F               	movf	(??___xxtofl+2)^0,w,c
  7864   00198A  1215               	iorwf	(___xxtofl@arg+2)^0,f,c
  7865   00198C  5010               	movf	(??___xxtofl+3)^0,w,c
  7866   00198E  1216               	iorwf	(___xxtofl@arg+3)^0,f,c
  7867   001990  5011               	movf	___xxtofl@sign^0,w,c
  7868   001992  B4D8               	btfsc	status,2,c
  7869   001994  EFCE  F00C         	goto	u4071
  7870   001998  EFD0  F00C         	goto	u4070
  7871   00199C                     u4071:
  7872   00199C  EFD8  F00C         	goto	l3952
  7873   0019A0                     u4070:
  7874   0019A0  BE0C               	btfsc	(___xxtofl@val+3)^0,7,c
  7875   0019A2  EFD7  F00C         	goto	u4080
  7876   0019A6  EFD5  F00C         	goto	u4081
  7877   0019AA                     u4081:
  7878   0019AA  EFD8  F00C         	goto	l3952
  7879   0019AE                     u4080:
  7880   0019AE  8E16               	bsf	(___xxtofl@arg+3)^0,7,c
  7881   0019B0                     l3952:
  7882   0019B0  C013  F009         	movff	___xxtofl@arg,?___xxtofl
  7883   0019B4  C014  F00A         	movff	___xxtofl@arg+1,?___xxtofl+1
  7884   0019B8  C015  F00B         	movff	___xxtofl@arg+2,?___xxtofl+2
  7885   0019BC  C016  F00C         	movff	___xxtofl@arg+3,?___xxtofl+3
  7886   0019C0                     l1299:
  7887   0019C0  0012               	return		;funcret
  7888   0019C2                     __end_of___xxtofl:
  7889                           	callstack 0
  7890                           
  7891 ;; *************** function ___fltol *****************
  7892 ;; Defined at:
  7893 ;;		line 43 in file "C:\Program Files\Microchip\xc8\v2.41\pic\sources\c99\common\fltol.c"
  7894 ;; Parameters:    Size  Location     Type
  7895 ;;  f1              4   47[COMRAM] unsigned char 
  7896 ;; Auto vars:     Size  Location     Type
  7897 ;;  exp1            1   56[COMRAM] unsigned char 
  7898 ;;  sign1           1   55[COMRAM] unsigned char 
  7899 ;; Return value:  Size  Location     Type
  7900 ;;                  4   47[COMRAM] long 
  7901 ;; Registers used:
  7902 ;;		wreg, status,2, status,0
  7903 ;; Tracked objects:
  7904 ;;		On entry : 0/0
  7905 ;;		On exit  : 0/0
  7906 ;;		Unchanged: 0/0
  7907 ;; Data sizes:     COMRAM   BANK0   BANK1   BANK2   BANK3   BANK4   BANK5
  7908 ;;      Params:         4       0       0       0       0       0       0
  7909 ;;      Locals:         2       0       0       0       0       0       0
  7910 ;;      Temps:          4       0       0       0       0       0       0
  7911 ;;      Totals:        10       0       0       0       0       0       0
  7912 ;;Total ram usage:       10 bytes
  7913 ;; Hardware stack levels used: 1
  7914 ;; Hardware stack levels required when called: 1
  7915 ;; This function calls:
  7916 ;;		Nothing
  7917 ;; This function is called by:
  7918 ;;		_main
  7919 ;; This function uses a non-reentrant model
  7920 ;;
  7921                           
  7922                           	psect	text41
  7923   001C5C                     __ptext41:
  7924                           	callstack 0
  7925   001C5C                     ___fltol:
  7926                           	callstack 29
  7927   001C5C  3432               	rlcf	(___fltol@f1+2)^0,w,c
  7928   001C5E  3433               	rlcf	(___fltol@f1+3)^0,w,c
  7929   001C60  6E39               	movwf	___fltol@exp1^0,c
  7930   001C62  5039               	movf	___fltol@exp1^0,w,c
  7931   001C64  A4D8               	btfss	status,2,c
  7932   001C66  EF37  F00E         	goto	u3921
  7933   001C6A  EF39  F00E         	goto	u3920
  7934   001C6E                     u3921:
  7935   001C6E  EF43  F00E         	goto	l3872
  7936   001C72                     u3920:
  7937   001C72                     l3868:
  7938   001C72  0E00               	movlw	0
  7939   001C74  6E30               	movwf	?___fltol^0,c
  7940   001C76  0E00               	movlw	0
  7941   001C78  6E31               	movwf	(?___fltol+1)^0,c
  7942   001C7A  0E00               	movlw	0
  7943   001C7C  6E32               	movwf	(?___fltol+2)^0,c
  7944   001C7E  0E00               	movlw	0
  7945   001C80  6E33               	movwf	(?___fltol+3)^0,c
  7946   001C82  EFB0  F00E         	goto	l938
  7947   001C86                     l3872:
  7948   001C86  C030  F034         	movff	___fltol@f1,??___fltol
  7949   001C8A  C031  F035         	movff	___fltol@f1+1,??___fltol+1
  7950   001C8E  C032  F036         	movff	___fltol@f1+2,??___fltol+2
  7951   001C92  C033  F037         	movff	___fltol@f1+3,??___fltol+3
  7952   001C96  0E20               	movlw	32
  7953   001C98  EF53  F00E         	goto	u3930
  7954   001C9C                     u3935:
  7955   001C9C  90D8               	bcf	status,0,c
  7956   001C9E  3237               	rrcf	(??___fltol+3)^0,f,c
  7957   001CA0  3236               	rrcf	(??___fltol+2)^0,f,c
  7958   001CA2  3235               	rrcf	(??___fltol+1)^0,f,c
  7959   001CA4  3234               	rrcf	??___fltol^0,f,c
  7960   001CA6                     u3930:
  7961   001CA6  2EE8               	decfsz	wreg,f,c
  7962   001CA8  EF4E  F00E         	goto	u3935
  7963   001CAC  5034               	movf	??___fltol^0,w,c
  7964   001CAE  6E38               	movwf	___fltol@sign1^0,c
  7965   001CB0  8E32               	bsf	(___fltol@f1+2)^0,7,c
  7966   001CB2  0EFF               	movlw	255
  7967   001CB4  1630               	andwf	___fltol@f1^0,f,c
  7968   001CB6  0EFF               	movlw	255
  7969   001CB8  1631               	andwf	(___fltol@f1+1)^0,f,c
  7970   001CBA  0EFF               	movlw	255
  7971   001CBC  1632               	andwf	(___fltol@f1+2)^0,f,c
  7972   001CBE  0E00               	movlw	0
  7973   001CC0  1633               	andwf	(___fltol@f1+3)^0,f,c
  7974   001CC2  0E96               	movlw	150
  7975   001CC4  5E39               	subwf	___fltol@exp1^0,f,c
  7976   001CC6  BE39               	btfsc	___fltol@exp1^0,7,c
  7977   001CC8  EF6A  F00E         	goto	u3940
  7978   001CCC  EF68  F00E         	goto	u3941
  7979   001CD0                     u3941:
  7980   001CD0  EF80  F00E         	goto	l3892
  7981   001CD4                     u3940:
  7982   001CD4  5039               	movf	___fltol@exp1^0,w,c
  7983   001CD6  0A80               	xorlw	128
  7984   001CD8  0F97               	addlw	151
  7985   001CDA  B0D8               	btfsc	status,0,c
  7986   001CDC  EF72  F00E         	goto	u3951
  7987   001CE0  EF74  F00E         	goto	u3950
  7988   001CE4                     u3951:
  7989   001CE4  EF76  F00E         	goto	l3888
  7990   001CE8                     u3950:
  7991   001CE8  EF39  F00E         	goto	l3868
  7992   001CEC                     l3888:
  7993   001CEC  90D8               	bcf	status,0,c
  7994   001CEE  3233               	rrcf	(___fltol@f1+3)^0,f,c
  7995   001CF0  3232               	rrcf	(___fltol@f1+2)^0,f,c
  7996   001CF2  3231               	rrcf	(___fltol@f1+1)^0,f,c
  7997   001CF4  3230               	rrcf	___fltol@f1^0,f,c
  7998   001CF6  3E39               	incfsz	___fltol@exp1^0,f,c
  7999   001CF8  EF76  F00E         	goto	l3888
  8000   001CFC  EF98  F00E         	goto	l3902
  8001   001D00                     l3892:
  8002   001D00  0E1F               	movlw	31
  8003   001D02  6439               	cpfsgt	___fltol@exp1^0,c
  8004   001D04  EF86  F00E         	goto	u3961
  8005   001D08  EF88  F00E         	goto	u3960
  8006   001D0C                     u3961:
  8007   001D0C  EF90  F00E         	goto	l3900
  8008   001D10                     u3960:
  8009   001D10  EF39  F00E         	goto	l3868
  8010   001D14                     l3898:
  8011   001D14  90D8               	bcf	status,0,c
  8012   001D16  3630               	rlcf	___fltol@f1^0,f,c
  8013   001D18  3631               	rlcf	(___fltol@f1+1)^0,f,c
  8014   001D1A  3632               	rlcf	(___fltol@f1+2)^0,f,c
  8015   001D1C  3633               	rlcf	(___fltol@f1+3)^0,f,c
  8016   001D1E  0639               	decf	___fltol@exp1^0,f,c
  8017   001D20                     l3900:
  8018   001D20  5039               	movf	___fltol@exp1^0,w,c
  8019   001D22  A4D8               	btfss	status,2,c
  8020   001D24  EF96  F00E         	goto	u3971
  8021   001D28  EF98  F00E         	goto	u3970
  8022   001D2C                     u3971:
  8023   001D2C  EF8A  F00E         	goto	l3898
  8024   001D30                     u3970:
  8025   001D30                     l3902:
  8026   001D30  5038               	movf	___fltol@sign1^0,w,c
  8027   001D32  B4D8               	btfsc	status,2,c
  8028   001D34  EF9E  F00E         	goto	u3981
  8029   001D38  EFA0  F00E         	goto	u3980
  8030   001D3C                     u3981:
  8031   001D3C  EFA8  F00E         	goto	l3906
  8032   001D40                     u3980:
  8033   001D40  1E33               	comf	(___fltol@f1+3)^0,f,c
  8034   001D42  1E32               	comf	(___fltol@f1+2)^0,f,c
  8035   001D44  1E31               	comf	(___fltol@f1+1)^0,f,c
  8036   001D46  6C30               	negf	___fltol@f1^0,c
  8037   001D48  0E00               	movlw	0
  8038   001D4A  2231               	addwfc	(___fltol@f1+1)^0,f,c
  8039   001D4C  2232               	addwfc	(___fltol@f1+2)^0,f,c
  8040   001D4E  2233               	addwfc	(___fltol@f1+3)^0,f,c
  8041   001D50                     l3906:
  8042   001D50  C030  F030         	movff	___fltol@f1,?___fltol
  8043   001D54  C031  F031         	movff	___fltol@f1+1,?___fltol+1
  8044   001D58  C032  F032         	movff	___fltol@f1+2,?___fltol+2
  8045   001D5C  C033  F033         	movff	___fltol@f1+3,?___fltol+3
  8046   001D60                     l938:
  8047   001D60  0012               	return		;funcret
  8048   001D62                     __end_of___fltol:
  8049                           	callstack 0
  8050                           
  8051 ;; *************** function ___fldiv *****************
  8052 ;; Defined at:
  8053 ;;		line 11 in file "C:\Program Files\Microchip\xc8\v2.41\pic\sources\c99\common\sprcdiv.c"
  8054 ;; Parameters:    Size  Location     Type
  8055 ;;  b               4   22[COMRAM] long 
  8056 ;;  a               4   26[COMRAM] long 
  8057 ;; Auto vars:     Size  Location     Type
  8058 ;;  grs             4   41[COMRAM] unsigned long 
  8059 ;;  rem             4   34[COMRAM] unsigned long 
  8060 ;;  new_exp         2   39[COMRAM] short 
  8061 ;;  aexp            1   46[COMRAM] unsigned char 
  8062 ;;  bexp            1   45[COMRAM] unsigned char 
  8063 ;;  sign            1   38[COMRAM] unsigned char 
  8064 ;; Return value:  Size  Location     Type
  8065 ;;                  4   22[COMRAM] unsigned char 
  8066 ;; Registers used:
  8067 ;;		wreg, status,2, status,0
  8068 ;; Tracked objects:
  8069 ;;		On entry : 0/0
  8070 ;;		On exit  : 0/0
  8071 ;;		Unchanged: 0/0
  8072 ;; Data sizes:     COMRAM   BANK0   BANK1   BANK2   BANK3   BANK4   BANK5
  8073 ;;      Params:         8       0       0       0       0       0       0
  8074 ;;      Locals:        13       0       0       0       0       0       0
  8075 ;;      Temps:          4       0       0       0       0       0       0
  8076 ;;      Totals:        25       0       0       0       0       0       0
  8077 ;;Total ram usage:       25 bytes
  8078 ;; Hardware stack levels used: 1
  8079 ;; Hardware stack levels required when called: 1
  8080 ;; This function calls:
  8081 ;;		Nothing
  8082 ;; This function is called by:
  8083 ;;		_main
  8084 ;; This function uses a non-reentrant model
  8085 ;;
  8086                           
  8087                           	psect	text42
  8088   000C2A                     __ptext42:
  8089                           	callstack 0
  8090   000C2A                     ___fldiv:
  8091                           	callstack 29
  8092   000C2A  501A               	movf	(___fldiv@b+3)^0,w,c
  8093   000C2C  0B80               	andlw	128
  8094   000C2E  6E27               	movwf	___fldiv@sign^0,c
  8095   000C30  501A               	movf	(___fldiv@b+3)^0,w,c
  8096   000C32  241A               	addwf	(___fldiv@b+3)^0,w,c
  8097   000C34  6E2E               	movwf	___fldiv@bexp^0,c
  8098   000C36  AE19               	btfss	(___fldiv@b+2)^0,7,c
  8099   000C38  EF20  F006         	goto	u3691
  8100   000C3C  EF22  F006         	goto	u3690
  8101   000C40                     u3691:
  8102   000C40  EF23  F006         	goto	l3734
  8103   000C44                     u3690:
  8104   000C44  802E               	bsf	___fldiv@bexp^0,0,c
  8105   000C46                     l3734:
  8106   000C46  502E               	movf	___fldiv@bexp^0,w,c
  8107   000C48  B4D8               	btfsc	status,2,c
  8108   000C4A  EF29  F006         	goto	u3701
  8109   000C4E  EF2B  F006         	goto	u3700
  8110   000C52                     u3701:
  8111   000C52  EF40  F006         	goto	l3744
  8112   000C56                     u3700:
  8113   000C56  282E               	incf	___fldiv@bexp^0,w,c
  8114   000C58  A4D8               	btfss	status,2,c
  8115   000C5A  EF31  F006         	goto	u3711
  8116   000C5E  EF33  F006         	goto	u3710
  8117   000C62                     u3711:
  8118   000C62  EF3B  F006         	goto	l3740
  8119   000C66                     u3710:
  8120   000C66  0E00               	movlw	0
  8121   000C68  6E17               	movwf	___fldiv@b^0,c
  8122   000C6A  0E00               	movlw	0
  8123   000C6C  6E18               	movwf	(___fldiv@b+1)^0,c
  8124   000C6E  0E00               	movlw	0
  8125   000C70  6E19               	movwf	(___fldiv@b+2)^0,c
  8126   000C72  0E00               	movlw	0
  8127   000C74  6E1A               	movwf	(___fldiv@b+3)^0,c
  8128   000C76                     l3740:
  8129   000C76  8E19               	bsf	(___fldiv@b+2)^0,7,c
  8130   000C78  0E00               	movlw	0
  8131   000C7A  6E1A               	movwf	(___fldiv@b+3)^0,c
  8132   000C7C  EF48  F006         	goto	l3746
  8133   000C80                     l3744:
  8134   000C80  0E00               	movlw	0
  8135   000C82  6E17               	movwf	___fldiv@b^0,c
  8136   000C84  0E00               	movlw	0
  8137   000C86  6E18               	movwf	(___fldiv@b+1)^0,c
  8138   000C88  0E00               	movlw	0
  8139   000C8A  6E19               	movwf	(___fldiv@b+2)^0,c
  8140   000C8C  0E00               	movlw	0
  8141   000C8E  6E1A               	movwf	(___fldiv@b+3)^0,c
  8142   000C90                     l3746:
  8143   000C90  501E               	movf	(___fldiv@a+3)^0,w,c
  8144   000C92  0B80               	andlw	128
  8145   000C94  1A27               	xorwf	___fldiv@sign^0,f,c
  8146   000C96  501E               	movf	(___fldiv@a+3)^0,w,c
  8147   000C98  241E               	addwf	(___fldiv@a+3)^0,w,c
  8148   000C9A  6E2F               	movwf	___fldiv@aexp^0,c
  8149   000C9C  AE1D               	btfss	(___fldiv@a+2)^0,7,c
  8150   000C9E  EF53  F006         	goto	u3721
  8151   000CA2  EF55  F006         	goto	u3720
  8152   000CA6                     u3721:
  8153   000CA6  EF56  F006         	goto	l3754
  8154   000CAA                     u3720:
  8155   000CAA  802F               	bsf	___fldiv@aexp^0,0,c
  8156   000CAC                     l3754:
  8157   000CAC  502F               	movf	___fldiv@aexp^0,w,c
  8158   000CAE  B4D8               	btfsc	status,2,c
  8159   000CB0  EF5C  F006         	goto	u3731
  8160   000CB4  EF5E  F006         	goto	u3730
  8161   000CB8                     u3731:
  8162   000CB8  EF73  F006         	goto	l3764
  8163   000CBC                     u3730:
  8164   000CBC  282F               	incf	___fldiv@aexp^0,w,c
  8165   000CBE  A4D8               	btfss	status,2,c
  8166   000CC0  EF64  F006         	goto	u3741
  8167   000CC4  EF66  F006         	goto	u3740
  8168   000CC8                     u3741:
  8169   000CC8  EF6E  F006         	goto	l3760
  8170   000CCC                     u3740:
  8171   000CCC  0E00               	movlw	0
  8172   000CCE  6E1B               	movwf	___fldiv@a^0,c
  8173   000CD0  0E00               	movlw	0
  8174   000CD2  6E1C               	movwf	(___fldiv@a+1)^0,c
  8175   000CD4  0E00               	movlw	0
  8176   000CD6  6E1D               	movwf	(___fldiv@a+2)^0,c
  8177   000CD8  0E00               	movlw	0
  8178   000CDA  6E1E               	movwf	(___fldiv@a+3)^0,c
  8179   000CDC                     l3760:
  8180   000CDC  8E1D               	bsf	(___fldiv@a+2)^0,7,c
  8181   000CDE  0E00               	movlw	0
  8182   000CE0  6E1E               	movwf	(___fldiv@a+3)^0,c
  8183   000CE2  EF7B  F006         	goto	l3766
  8184   000CE6                     l3764:
  8185   000CE6  0E00               	movlw	0
  8186   000CE8  6E1B               	movwf	___fldiv@a^0,c
  8187   000CEA  0E00               	movlw	0
  8188   000CEC  6E1C               	movwf	(___fldiv@a+1)^0,c
  8189   000CEE  0E00               	movlw	0
  8190   000CF0  6E1D               	movwf	(___fldiv@a+2)^0,c
  8191   000CF2  0E00               	movlw	0
  8192   000CF4  6E1E               	movwf	(___fldiv@a+3)^0,c
  8193   000CF6                     l3766:
  8194   000CF6  501B               	movf	___fldiv@a^0,w,c
  8195   000CF8  101C               	iorwf	(___fldiv@a+1)^0,w,c
  8196   000CFA  101D               	iorwf	(___fldiv@a+2)^0,w,c
  8197   000CFC  101E               	iorwf	(___fldiv@a+3)^0,w,c
  8198   000CFE  A4D8               	btfss	status,2,c
  8199   000D00  EF84  F006         	goto	u3751
  8200   000D04  EF86  F006         	goto	u3750
  8201   000D08                     u3751:
  8202   000D08  EF9E  F006         	goto	l3778
  8203   000D0C                     u3750:
  8204   000D0C  0E00               	movlw	0
  8205   000D0E  6E17               	movwf	___fldiv@b^0,c
  8206   000D10  0E00               	movlw	0
  8207   000D12  6E18               	movwf	(___fldiv@b+1)^0,c
  8208   000D14  0E00               	movlw	0
  8209   000D16  6E19               	movwf	(___fldiv@b+2)^0,c
  8210   000D18  0E00               	movlw	0
  8211   000D1A  6E1A               	movwf	(___fldiv@b+3)^0,c
  8212   000D1C  0E80               	movlw	128
  8213   000D1E  1219               	iorwf	(___fldiv@b+2)^0,f,c
  8214   000D20  0E7F               	movlw	127
  8215   000D22  121A               	iorwf	(___fldiv@b+3)^0,f,c
  8216   000D24                     l3772:
  8217   000D24  5027               	movf	___fldiv@sign^0,w,c
  8218   000D26  121A               	iorwf	(___fldiv@b+3)^0,f,c
  8219   000D28  C017  F017         	movff	___fldiv@b,?___fldiv
  8220   000D2C  C018  F018         	movff	___fldiv@b+1,?___fldiv+1
  8221   000D30  C019  F019         	movff	___fldiv@b+2,?___fldiv+2
  8222   000D34  C01A  F01A         	movff	___fldiv@b+3,?___fldiv+3
  8223   000D38  EFE1  F007         	goto	l1223
  8224   000D3C                     l3778:
  8225   000D3C  502E               	movf	___fldiv@bexp^0,w,c
  8226   000D3E  A4D8               	btfss	status,2,c
  8227   000D40  EFA4  F006         	goto	u3761
  8228   000D44  EFA6  F006         	goto	u3760
  8229   000D48                     u3761:
  8230   000D48  EFB0  F006         	goto	l3786
  8231   000D4C                     u3760:
  8232   000D4C  0E00               	movlw	0
  8233   000D4E  6E17               	movwf	?___fldiv^0,c
  8234   000D50  0E00               	movlw	0
  8235   000D52  6E18               	movwf	(?___fldiv+1)^0,c
  8236   000D54  0E00               	movlw	0
  8237   000D56  6E19               	movwf	(?___fldiv+2)^0,c
  8238   000D58  0E00               	movlw	0
  8239   000D5A  6E1A               	movwf	(?___fldiv+3)^0,c
  8240   000D5C  EFE1  F007         	goto	l1223
  8241   000D60                     l3786:
  8242   000D60  502F               	movf	___fldiv@aexp^0,w,c
  8243   000D62  C02E  F01F         	movff	___fldiv@bexp,??___fldiv
  8244   000D66  6A20               	clrf	(??___fldiv+1)^0,c
  8245   000D68  5E1F               	subwf	??___fldiv^0,f,c
  8246   000D6A  0E00               	movlw	0
  8247   000D6C  5A20               	subwfb	(??___fldiv+1)^0,f,c
  8248   000D6E  0E7F               	movlw	127
  8249   000D70  241F               	addwf	??___fldiv^0,w,c
  8250   000D72  6E28               	movwf	___fldiv@new_exp^0,c
  8251   000D74  0E00               	movlw	0
  8252   000D76  2020               	addwfc	(??___fldiv+1)^0,w,c
  8253   000D78  6E29               	movwf	(___fldiv@new_exp+1)^0,c
  8254   000D7A  C017  F023         	movff	___fldiv@b,___fldiv@rem
  8255   000D7E  C018  F024         	movff	___fldiv@b+1,___fldiv@rem+1
  8256   000D82  C019  F025         	movff	___fldiv@b+2,___fldiv@rem+2
  8257   000D86  C01A  F026         	movff	___fldiv@b+3,___fldiv@rem+3
  8258   000D8A  0E00               	movlw	0
  8259   000D8C  6E17               	movwf	___fldiv@b^0,c
  8260   000D8E  0E00               	movlw	0
  8261   000D90  6E18               	movwf	(___fldiv@b+1)^0,c
  8262   000D92  0E00               	movlw	0
  8263   000D94  6E19               	movwf	(___fldiv@b+2)^0,c
  8264   000D96  0E00               	movlw	0
  8265   000D98  6E1A               	movwf	(___fldiv@b+3)^0,c
  8266   000D9A  0E00               	movlw	0
  8267   000D9C  6E2A               	movwf	___fldiv@grs^0,c
  8268   000D9E  0E00               	movlw	0
  8269   000DA0  6E2B               	movwf	(___fldiv@grs+1)^0,c
  8270   000DA2  0E00               	movlw	0
  8271   000DA4  6E2C               	movwf	(___fldiv@grs+2)^0,c
  8272   000DA6  0E00               	movlw	0
  8273   000DA8  6E2D               	movwf	(___fldiv@grs+3)^0,c
  8274   000DAA  0E00               	movlw	0
  8275   000DAC  6E2F               	movwf	___fldiv@aexp^0,c
  8276   000DAE  EF11  F007         	goto	l1225
  8277   000DB2                     l3796:
  8278   000DB2  502F               	movf	___fldiv@aexp^0,w,c
  8279   000DB4  B4D8               	btfsc	status,2,c
  8280   000DB6  EFDF  F006         	goto	u3771
  8281   000DBA  EFE1  F006         	goto	u3770
  8282   000DBE                     u3771:
  8283   000DBE  EFF8  F006         	goto	l3804
  8284   000DC2                     u3770:
  8285   000DC2  90D8               	bcf	status,0,c
  8286   000DC4  3623               	rlcf	___fldiv@rem^0,f,c
  8287   000DC6  3624               	rlcf	(___fldiv@rem+1)^0,f,c
  8288   000DC8  3625               	rlcf	(___fldiv@rem+2)^0,f,c
  8289   000DCA  3626               	rlcf	(___fldiv@rem+3)^0,f,c
  8290   000DCC  90D8               	bcf	status,0,c
  8291   000DCE  3617               	rlcf	___fldiv@b^0,f,c
  8292   000DD0  3618               	rlcf	(___fldiv@b+1)^0,f,c
  8293   000DD2  3619               	rlcf	(___fldiv@b+2)^0,f,c
  8294   000DD4  361A               	rlcf	(___fldiv@b+3)^0,f,c
  8295   000DD6  AE2D               	btfss	(___fldiv@grs+3)^0,7,c
  8296   000DD8  EFF0  F006         	goto	u3781
  8297   000DDC  EFF2  F006         	goto	u3780
  8298   000DE0                     u3781:
  8299   000DE0  EFF3  F006         	goto	l1228
  8300   000DE4                     u3780:
  8301   000DE4  8017               	bsf	___fldiv@b^0,0,c
  8302   000DE6                     l1228:
  8303   000DE6  90D8               	bcf	status,0,c
  8304   000DE8  362A               	rlcf	___fldiv@grs^0,f,c
  8305   000DEA  362B               	rlcf	(___fldiv@grs+1)^0,f,c
  8306   000DEC  362C               	rlcf	(___fldiv@grs+2)^0,f,c
  8307   000DEE  362D               	rlcf	(___fldiv@grs+3)^0,f,c
  8308   000DF0                     l3804:
  8309   000DF0  501B               	movf	___fldiv@a^0,w,c
  8310   000DF2  5C23               	subwf	___fldiv@rem^0,w,c
  8311   000DF4  501C               	movf	(___fldiv@a+1)^0,w,c
  8312   000DF6  5824               	subwfb	(___fldiv@rem+1)^0,w,c
  8313   000DF8  501D               	movf	(___fldiv@a+2)^0,w,c
  8314   000DFA  5825               	subwfb	(___fldiv@rem+2)^0,w,c
  8315   000DFC  501E               	movf	(___fldiv@a+3)^0,w,c
  8316   000DFE  5826               	subwfb	(___fldiv@rem+3)^0,w,c
  8317   000E00  A0D8               	btfss	status,0,c
  8318   000E02  EF05  F007         	goto	u3791
  8319   000E06  EF07  F007         	goto	u3790
  8320   000E0A                     u3791:
  8321   000E0A  EF10  F007         	goto	l3810
  8322   000E0E                     u3790:
  8323   000E0E  8C2D               	bsf	(___fldiv@grs+3)^0,6,c
  8324   000E10  501B               	movf	___fldiv@a^0,w,c
  8325   000E12  5E23               	subwf	___fldiv@rem^0,f,c
  8326   000E14  501C               	movf	(___fldiv@a+1)^0,w,c
  8327   000E16  5A24               	subwfb	(___fldiv@rem+1)^0,f,c
  8328   000E18  501D               	movf	(___fldiv@a+2)^0,w,c
  8329   000E1A  5A25               	subwfb	(___fldiv@rem+2)^0,f,c
  8330   000E1C  501E               	movf	(___fldiv@a+3)^0,w,c
  8331   000E1E  5A26               	subwfb	(___fldiv@rem+3)^0,f,c
  8332   000E20                     l3810:
  8333   000E20  2A2F               	incf	___fldiv@aexp^0,f,c
  8334   000E22                     l1225:
  8335   000E22  0E19               	movlw	25
  8336   000E24  642F               	cpfsgt	___fldiv@aexp^0,c
  8337   000E26  EF17  F007         	goto	u3801
  8338   000E2A  EF19  F007         	goto	u3800
  8339   000E2E                     u3801:
  8340   000E2E  EFD9  F006         	goto	l3796
  8341   000E32                     u3800:
  8342   000E32  5023               	movf	___fldiv@rem^0,w,c
  8343   000E34  1024               	iorwf	(___fldiv@rem+1)^0,w,c
  8344   000E36  1025               	iorwf	(___fldiv@rem+2)^0,w,c
  8345   000E38  1026               	iorwf	(___fldiv@rem+3)^0,w,c
  8346   000E3A  B4D8               	btfsc	status,2,c
  8347   000E3C  EF22  F007         	goto	u3811
  8348   000E40  EF24  F007         	goto	u3810
  8349   000E44                     u3811:
  8350   000E44  EF3C  F007         	goto	l3822
  8351   000E48                     u3810:
  8352   000E48  802A               	bsf	___fldiv@grs^0,0,c
  8353   000E4A  EF3C  F007         	goto	l3822
  8354   000E4E                     l3816:
  8355   000E4E  90D8               	bcf	status,0,c
  8356   000E50  3617               	rlcf	___fldiv@b^0,f,c
  8357   000E52  3618               	rlcf	(___fldiv@b+1)^0,f,c
  8358   000E54  3619               	rlcf	(___fldiv@b+2)^0,f,c
  8359   000E56  361A               	rlcf	(___fldiv@b+3)^0,f,c
  8360   000E58  AE2D               	btfss	(___fldiv@grs+3)^0,7,c
  8361   000E5A  EF31  F007         	goto	u3821
  8362   000E5E  EF33  F007         	goto	u3820
  8363   000E62                     u3821:
  8364   000E62  EF34  F007         	goto	l1234
  8365   000E66                     u3820:
  8366   000E66  8017               	bsf	___fldiv@b^0,0,c
  8367   000E68                     l1234:
  8368   000E68  90D8               	bcf	status,0,c
  8369   000E6A  362A               	rlcf	___fldiv@grs^0,f,c
  8370   000E6C  362B               	rlcf	(___fldiv@grs+1)^0,f,c
  8371   000E6E  362C               	rlcf	(___fldiv@grs+2)^0,f,c
  8372   000E70  362D               	rlcf	(___fldiv@grs+3)^0,f,c
  8373   000E72  0628               	decf	___fldiv@new_exp^0,f,c
  8374   000E74  A0D8               	btfss	status,0,c
  8375   000E76  0629               	decf	(___fldiv@new_exp+1)^0,f,c
  8376   000E78                     l3822:
  8377   000E78  AE19               	btfss	(___fldiv@b+2)^0,7,c
  8378   000E7A  EF41  F007         	goto	u3831
  8379   000E7E  EF43  F007         	goto	u3830
  8380   000E82                     u3831:
  8381   000E82  EF27  F007         	goto	l3816
  8382   000E86                     u3830:
  8383   000E86  0E00               	movlw	0
  8384   000E88  6E2F               	movwf	___fldiv@aexp^0,c
  8385   000E8A  AE2D               	btfss	(___fldiv@grs+3)^0,7,c
  8386   000E8C  EF4A  F007         	goto	u3841
  8387   000E90  EF4C  F007         	goto	u3840
  8388   000E94                     u3841:
  8389   000E94  EF70  F007         	goto	l1236
  8390   000E98                     u3840:
  8391   000E98  0EFF               	movlw	255
  8392   000E9A  142A               	andwf	___fldiv@grs^0,w,c
  8393   000E9C  6E1F               	movwf	??___fldiv^0,c
  8394   000E9E  0EFF               	movlw	255
  8395   000EA0  142B               	andwf	(___fldiv@grs+1)^0,w,c
  8396   000EA2  6E20               	movwf	(??___fldiv+1)^0,c
  8397   000EA4  0EFF               	movlw	255
  8398   000EA6  142C               	andwf	(___fldiv@grs+2)^0,w,c
  8399   000EA8  6E21               	movwf	(??___fldiv+2)^0,c
  8400   000EAA  0E7F               	movlw	127
  8401   000EAC  142D               	andwf	(___fldiv@grs+3)^0,w,c
  8402   000EAE  6E22               	movwf	(??___fldiv+3)^0,c
  8403   000EB0  501F               	movf	??___fldiv^0,w,c
  8404   000EB2  1020               	iorwf	(??___fldiv+1)^0,w,c
  8405   000EB4  1021               	iorwf	(??___fldiv+2)^0,w,c
  8406   000EB6  1022               	iorwf	(??___fldiv+3)^0,w,c
  8407   000EB8  B4D8               	btfsc	status,2,c
  8408   000EBA  EF61  F007         	goto	u3851
  8409   000EBE  EF63  F007         	goto	u3850
  8410   000EC2                     u3851:
  8411   000EC2  EF67  F007         	goto	l1237
  8412   000EC6                     u3850:
  8413   000EC6                     l3830:
  8414   000EC6  0E01               	movlw	1
  8415   000EC8  6E2F               	movwf	___fldiv@aexp^0,c
  8416   000ECA  EF70  F007         	goto	l1236
  8417   000ECE                     l1237:
  8418   000ECE  A017               	btfss	___fldiv@b^0,0,c
  8419   000ED0  EF6C  F007         	goto	u3861
  8420   000ED4  EF6E  F007         	goto	u3860
  8421   000ED8                     u3861:
  8422   000ED8  EF70  F007         	goto	l1236
  8423   000EDC                     u3860:
  8424   000EDC  EF63  F007         	goto	l3830
  8425   000EE0                     l1236:
  8426   000EE0  502F               	movf	___fldiv@aexp^0,w,c
  8427   000EE2  B4D8               	btfsc	status,2,c
  8428   000EE4  EF76  F007         	goto	u3871
  8429   000EE8  EF78  F007         	goto	u3870
  8430   000EEC                     u3871:
  8431   000EEC  EF9C  F007         	goto	l3842
  8432   000EF0                     u3870:
  8433   000EF0  0E01               	movlw	1
  8434   000EF2  2617               	addwf	___fldiv@b^0,f,c
  8435   000EF4  0E00               	movlw	0
  8436   000EF6  2218               	addwfc	(___fldiv@b+1)^0,f,c
  8437   000EF8  2219               	addwfc	(___fldiv@b+2)^0,f,c
  8438   000EFA  221A               	addwfc	(___fldiv@b+3)^0,f,c
  8439   000EFC  A01A               	btfss	(___fldiv@b+3)^0,0,c
  8440   000EFE  EF83  F007         	goto	u3881
  8441   000F02  EF85  F007         	goto	u3880
  8442   000F06                     u3881:
  8443   000F06  EF9C  F007         	goto	l3842
  8444   000F0A                     u3880:
  8445   000F0A  C017  F01F         	movff	___fldiv@b,??___fldiv
  8446   000F0E  C018  F020         	movff	___fldiv@b+1,??___fldiv+1
  8447   000F12  C019  F021         	movff	___fldiv@b+2,??___fldiv+2
  8448   000F16  C01A  F022         	movff	___fldiv@b+3,??___fldiv+3
  8449   000F1A  3422               	rlcf	(??___fldiv+3)^0,w,c
  8450   000F1C  3222               	rrcf	(??___fldiv+3)^0,f,c
  8451   000F1E  3221               	rrcf	(??___fldiv+2)^0,f,c
  8452   000F20  3220               	rrcf	(??___fldiv+1)^0,f,c
  8453   000F22  321F               	rrcf	??___fldiv^0,f,c
  8454   000F24  C01F  F017         	movff	??___fldiv,___fldiv@b
  8455   000F28  C020  F018         	movff	??___fldiv+1,___fldiv@b+1
  8456   000F2C  C021  F019         	movff	??___fldiv+2,___fldiv@b+2
  8457   000F30  C022  F01A         	movff	??___fldiv+3,___fldiv@b+3
  8458   000F34  4A28               	infsnz	___fldiv@new_exp^0,f,c
  8459   000F36  2A29               	incf	(___fldiv@new_exp+1)^0,f,c
  8460   000F38                     l3842:
  8461   000F38  BE29               	btfsc	(___fldiv@new_exp+1)^0,7,c
  8462   000F3A  EFA7  F007         	goto	u3891
  8463   000F3E  5029               	movf	(___fldiv@new_exp+1)^0,w,c
  8464   000F40  E108               	bnz	u3890
  8465   000F42  2828               	incf	___fldiv@new_exp^0,w,c
  8466   000F44  A0D8               	btfss	status,0,c
  8467   000F46  EFA7  F007         	goto	u3891
  8468   000F4A  EFA9  F007         	goto	u3890
  8469   000F4E                     u3891:
  8470   000F4E  EFB4  F007         	goto	l3846
  8471   000F52                     u3890:
  8472   000F52  0E00               	movlw	0
  8473   000F54  6E29               	movwf	(___fldiv@new_exp+1)^0,c
  8474   000F56  6828               	setf	___fldiv@new_exp^0,c
  8475   000F58  0E00               	movlw	0
  8476   000F5A  6E17               	movwf	___fldiv@b^0,c
  8477   000F5C  0E00               	movlw	0
  8478   000F5E  6E18               	movwf	(___fldiv@b+1)^0,c
  8479   000F60  0E00               	movlw	0
  8480   000F62  6E19               	movwf	(___fldiv@b+2)^0,c
  8481   000F64  0E00               	movlw	0
  8482   000F66  6E1A               	movwf	(___fldiv@b+3)^0,c
  8483   000F68                     l3846:
  8484   000F68  BE29               	btfsc	(___fldiv@new_exp+1)^0,7,c
  8485   000F6A  EFC1  F007         	goto	u3900
  8486   000F6E  5029               	movf	(___fldiv@new_exp+1)^0,w,c
  8487   000F70  E106               	bnz	u3901
  8488   000F72  0428               	decf	___fldiv@new_exp^0,w,c
  8489   000F74  B0D8               	btfsc	status,0,c
  8490   000F76  EFBF  F007         	goto	u3901
  8491   000F7A  EFC1  F007         	goto	u3900
  8492   000F7E                     u3901:
  8493   000F7E  EFCF  F007         	goto	l3850
  8494   000F82                     u3900:
  8495   000F82  0E00               	movlw	0
  8496   000F84  6E29               	movwf	(___fldiv@new_exp+1)^0,c
  8497   000F86  0E00               	movlw	0
  8498   000F88  6E28               	movwf	___fldiv@new_exp^0,c
  8499   000F8A  0E00               	movlw	0
  8500   000F8C  6E17               	movwf	___fldiv@b^0,c
  8501   000F8E  0E00               	movlw	0
  8502   000F90  6E18               	movwf	(___fldiv@b+1)^0,c
  8503   000F92  0E00               	movlw	0
  8504   000F94  6E19               	movwf	(___fldiv@b+2)^0,c
  8505   000F96  0E00               	movlw	0
  8506   000F98  6E1A               	movwf	(___fldiv@b+3)^0,c
  8507   000F9A  0E00               	movlw	0
  8508   000F9C  6E27               	movwf	___fldiv@sign^0,c
  8509   000F9E                     l3850:
  8510   000F9E  C028  F02E         	movff	___fldiv@new_exp,___fldiv@bexp
  8511   000FA2  A02E               	btfss	___fldiv@bexp^0,0,c
  8512   000FA4  EFD6  F007         	goto	u3911
  8513   000FA8  EFD8  F007         	goto	u3910
  8514   000FAC                     u3911:
  8515   000FAC  EFDB  F007         	goto	l3856
  8516   000FB0                     u3910:
  8517   000FB0  8E19               	bsf	(___fldiv@b+2)^0,7,c
  8518   000FB2  EFDC  F007         	goto	l3858
  8519   000FB6                     l3856:
  8520   000FB6  9E19               	bcf	(___fldiv@b+2)^0,7,c
  8521   000FB8                     l3858:
  8522   000FB8  90D8               	bcf	status,0,c
  8523   000FBA  302E               	rrcf	___fldiv@bexp^0,w,c
  8524   000FBC  6E1A               	movwf	(___fldiv@b+3)^0,c
  8525   000FBE  EF92  F006         	goto	l3772
  8526   000FC2                     l1223:
  8527   000FC2  0012               	return		;funcret
  8528   000FC4                     __end_of___fldiv:
  8529                           	callstack 0
  8530                           
  8531 ;; *************** function _isr *****************
  8532 ;; Defined at:
  8533 ;;		line 13 in file "isr.c"
  8534 ;; Parameters:    Size  Location     Type
  8535 ;;		None
  8536 ;; Auto vars:     Size  Location     Type
  8537 ;;		None
  8538 ;; Return value:  Size  Location     Type
  8539 ;;                  1    wreg      void 
  8540 ;; Registers used:
  8541 ;;		wreg, status,2, status,0
  8542 ;; Tracked objects:
  8543 ;;		On entry : 0/0
  8544 ;;		On exit  : 0/0
  8545 ;;		Unchanged: 0/0
  8546 ;; Data sizes:     COMRAM   BANK0   BANK1   BANK2   BANK3   BANK4   BANK5
  8547 ;;      Params:         0       0       0       0       0       0       0
  8548 ;;      Locals:         0       0       0       0       0       0       0
  8549 ;;      Temps:          0       0       0       0       0       0       0
  8550 ;;      Totals:         0       0       0       0       0       0       0
  8551 ;;Total ram usage:        0 bytes
  8552 ;; Hardware stack levels used: 1
  8553 ;; This function calls:
  8554 ;;		Nothing
  8555 ;; This function is called by:
  8556 ;;		Interrupt level 2
  8557 ;; This function uses a non-reentrant model
  8558 ;;
  8559                           
  8560                           	psect	intcode
  8561   000008                     __pintcode:
  8562                           	callstack 0
  8563   000008                     _isr:
  8564                           	callstack 24
  8565                           
  8566                           ;incstack = 0
  8567   000008  825D               	bsf	int$flags,1,c	;set compiler interrupt flag (level 2)
  8568   00000A  EDA8  F011         	call	int_func,f	;refresh shadow registers
  8569                           
  8570                           	psect	intcode_body
  8571   002350                     __pintcode_body:
  8572                           	callstack 24
  8573   002350                     int_func:
  8574                           	callstack 24
  8575   002350  0006               	pop		; remove dummy address from shadow register refresh
  8576   002352                     
  8577                           ;isr.c: 16:     TMR0 = TMR0 + 3038;
  8578   002352  0EDE               	movlw	222
  8579   002354  24D6               	addwf	214,w,c	;volatile
  8580   002356  6ED6               	movwf	214,c	;volatile
  8581   002358  0E0B               	movlw	11
  8582   00235A  20D7               	addwfc	215,w,c	;volatile
  8583   00235C  6ED7               	movwf	215,c	;volatile
  8584   00235E                     
  8585                           ;isr.c: 17:     if(TMR0IF)
  8586   00235E  A4F2               	btfss	4082,2,c	;volatile
  8587   002360  EFB4  F011         	goto	i2u423_41
  8588   002364  EFB6  F011         	goto	i2u423_40
  8589   002368                     i2u423_41:
  8590   002368  EFCA  F011         	goto	i2l530
  8591   00236C                     i2u423_40:
  8592   00236C                     
  8593                           ;isr.c: 18:     {;isr.c: 19:         if(count++ == 80)
  8594   00236C  0100               	movlb	0	; () banked
  8595   00236E  4BA8               	infsnz	_count& (0+255),f,b
  8596   002370  2BA9               	incf	(_count+1)& (0+255),f,b
  8597   002372  0E51               	movlw	81
  8598   002374  19A8               	xorwf	_count& (0+255),w,b
  8599   002376  11A9               	iorwf	(_count+1)& (0+255),w,b
  8600   002378  A4D8               	btfss	status,2,c
  8601   00237A  EFC1  F011         	goto	i2u424_41
  8602   00237E  EFC3  F011         	goto	i2u424_40
  8603   002382                     i2u424_41:
  8604   002382  EFC9  F011         	goto	i2l4094
  8605   002386                     i2u424_40:
  8606   002386                     
  8607                           ; BSR set to: 0
  8608                           ;isr.c: 20:         {;isr.c: 21:             count = 0;
  8609   002386  0E00               	movlw	0
  8610   002388  6FA9               	movwf	(_count+1)& (0+255),b
  8611   00238A  0E00               	movlw	0
  8612   00238C  6FA8               	movwf	_count& (0+255),b
  8613   00238E                     
  8614                           ; BSR set to: 0
  8615                           ;isr.c: 22:             sec++;
  8616   00238E  4A53               	infsnz	_sec^0,f,c
  8617   002390  2A54               	incf	(_sec+1)^0,f,c
  8618   002392                     i2l4094:
  8619                           
  8620                           ; BSR set to: 0
  8621                           ;isr.c: 24:         TMR0IF = 0;
  8622   002392  94F2               	bcf	4082,2,c	;volatile
  8623   002394                     i2l530:
  8624   002394  925D               	bcf	int$flags,1,c	;clear compiler interrupt flag (level 2)
  8625   002396  0011               	retfie		f
  8626   002398                     __end_of_isr:
  8627                           	callstack 0
  8628                           
  8629                           	psect	rparam
  8630   000000                     
  8631                           	psect	temp
  8632   00005D                     btemp:
  8633                           	callstack 0
  8634   00005D                     	ds	1
  8635   000000                     int$flags	set	btemp
  8636   000000                     wtemp8	set	btemp+1
  8637   000000                     ttemp5	set	btemp+1
  8638   000000                     ttemp6	set	btemp+4
  8639   000000                     ttemp7	set	btemp+8
  8640                           
  8641                           	psect	idloc
  8642                           
  8643                           ;Config register IDLOC0 @ 0x200000
  8644                           ;	unspecified, using default values
  8645   200000                     	org	2097152
  8646   200000  FF                 	db	255
  8647                           
  8648                           ;Config register IDLOC1 @ 0x200001
  8649                           ;	unspecified, using default values
  8650   200001                     	org	2097153
  8651   200001  FF                 	db	255
  8652                           
  8653                           ;Config register IDLOC2 @ 0x200002
  8654                           ;	unspecified, using default values
  8655   200002                     	org	2097154
  8656   200002  FF                 	db	255
  8657                           
  8658                           ;Config register IDLOC3 @ 0x200003
  8659                           ;	unspecified, using default values
  8660   200003                     	org	2097155
  8661   200003  FF                 	db	255
  8662                           
  8663                           ;Config register IDLOC4 @ 0x200004
  8664                           ;	unspecified, using default values
  8665   200004                     	org	2097156
  8666   200004  FF                 	db	255
  8667                           
  8668                           ;Config register IDLOC5 @ 0x200005
  8669                           ;	unspecified, using default values
  8670   200005                     	org	2097157
  8671   200005  FF                 	db	255
  8672                           
  8673                           ;Config register IDLOC6 @ 0x200006
  8674                           ;	unspecified, using default values
  8675   200006                     	org	2097158
  8676   200006  FF                 	db	255
  8677                           
  8678                           ;Config register IDLOC7 @ 0x200007
  8679                           ;	unspecified, using default values
  8680   200007                     	org	2097159
  8681   200007  FF                 	db	255
  8682                           
  8683                           	psect	config
  8684                           
  8685                           ; Padding undefined space
  8686   300000                     	org	3145728
  8687   300000  FF                 	db	255
  8688                           
  8689                           ;Config register CONFIG1H @ 0x300001
  8690                           ;	unspecified, using default values
  8691                           ;	Oscillator Selection bits
  8692                           ;	OSC = 0x7, unprogrammed default
  8693                           ;	Fail-Safe Clock Monitor Enable bit
  8694                           ;	FCMEN = 0x0, unprogrammed default
  8695                           ;	Internal/External Oscillator Switchover bit
  8696                           ;	IESO = 0x0, unprogrammed default
  8697   300001                     	org	3145729
  8698   300001  07                 	db	7
  8699                           
  8700                           ;Config register CONFIG2L @ 0x300002
  8701                           ;	unspecified, using default values
  8702                           ;	Power-up Timer Enable bit
  8703                           ;	PWRT = 0x1, unprogrammed default
  8704                           ;	Brown-out Reset Enable bits
  8705                           ;	BOREN = 0x3, unprogrammed default
  8706                           ;	Brown-out Reset Voltage bits
  8707                           ;	BORV = 0x3, unprogrammed default
  8708   300002                     	org	3145730
  8709   300002  1F                 	db	31
  8710                           
  8711                           ;Config register CONFIG2H @ 0x300003
  8712                           ;	unspecified, using default values
  8713                           ;	Watchdog Timer Enable bit
  8714                           ;	WDT = 0x1, unprogrammed default
  8715                           ;	Watchdog Timer Postscale Select bits
  8716                           ;	WDTPS = 0xF, unprogrammed default
  8717   300003                     	org	3145731
  8718   300003  1F                 	db	31
  8719                           
  8720                           ; Padding undefined space
  8721   300004                     	org	3145732
  8722   300004  FF                 	db	255
  8723                           
  8724                           ;Config register CONFIG3H @ 0x300005
  8725                           ;	unspecified, using default values
  8726                           ;	PORTB A/D Enable bit
  8727                           ;	PBADEN = 0x1, unprogrammed default
  8728                           ;	Low-Power Timer 1 Oscillator Enable bit
  8729                           ;	LPT1OSC = 0x0, unprogrammed default
  8730                           ;	MCLR Pin Enable bit
  8731                           ;	MCLRE = 0x1, unprogrammed default
  8732   300005                     	org	3145733
  8733   300005  82                 	db	130
  8734                           
  8735                           ;Config register CONFIG4L @ 0x300006
  8736                           ;	unspecified, using default values
  8737                           ;	Stack Full/Underflow Reset Enable bit
  8738                           ;	STVREN = 0x1, unprogrammed default
  8739                           ;	Single-Supply ICSP Enable bit
  8740                           ;	LVP = 0x1, unprogrammed default
  8741                           ;	Boot Block Size Select bit
  8742                           ;	BBSIZ = 0x0, unprogrammed default
  8743                           ;	Extended Instruction Set Enable bit
  8744                           ;	XINST = 0x0, unprogrammed default
  8745                           ;	Background Debugger Enable bit
  8746                           ;	DEBUG = 0x1, unprogrammed default
  8747   300006                     	org	3145734
  8748   300006  85                 	db	133
  8749                           
  8750                           ; Padding undefined space
  8751   300007                     	org	3145735
  8752   300007  FF                 	db	255
  8753                           
  8754                           ;Config register CONFIG5L @ 0x300008
  8755                           ;	unspecified, using default values
  8756                           ;	Code Protection bit
  8757                           ;	CP0 = 0x1, unprogrammed default
  8758                           ;	Code Protection bit
  8759                           ;	CP1 = 0x1, unprogrammed default
  8760                           ;	Code Protection bit
  8761                           ;	CP2 = 0x1, unprogrammed default
  8762                           ;	Code Protection bit
  8763                           ;	CP3 = 0x1, unprogrammed default
  8764   300008                     	org	3145736
  8765   300008  0F                 	db	15
  8766                           
  8767                           ;Config register CONFIG5H @ 0x300009
  8768                           ;	unspecified, using default values
  8769                           ;	Boot Block Code Protection bit
  8770                           ;	CPB = 0x1, unprogrammed default
  8771                           ;	Data EEPROM Code Protection bit
  8772                           ;	CPD = 0x1, unprogrammed default
  8773   300009                     	org	3145737
  8774   300009  C0                 	db	192
  8775                           
  8776                           ;Config register CONFIG6L @ 0x30000A
  8777                           ;	unspecified, using default values
  8778                           ;	Write Protection bit
  8779                           ;	WRT0 = 0x1, unprogrammed default
  8780                           ;	Write Protection bit
  8781                           ;	WRT1 = 0x1, unprogrammed default
  8782                           ;	Write Protection bit
  8783                           ;	WRT2 = 0x1, unprogrammed default
  8784                           ;	Write Protection bit
  8785                           ;	WRT3 = 0x1, unprogrammed default
  8786   30000A                     	org	3145738
  8787   30000A  0F                 	db	15
  8788                           
  8789                           ;Config register CONFIG6H @ 0x30000B
  8790                           ;	unspecified, using default values
  8791                           ;	Configuration Register Write Protection bit
  8792                           ;	WRTC = 0x1, unprogrammed default
  8793                           ;	Boot Block Write Protection bit
  8794                           ;	WRTB = 0x1, unprogrammed default
  8795                           ;	Data EEPROM Write Protection bit
  8796                           ;	WRTD = 0x1, unprogrammed default
  8797   30000B                     	org	3145739
  8798   30000B  E0                 	db	224
  8799                           
  8800                           ;Config register CONFIG7L @ 0x30000C
  8801                           ;	unspecified, using default values
  8802                           ;	Table Read Protection bit
  8803                           ;	EBTR0 = 0x1, unprogrammed default
  8804                           ;	Table Read Protection bit
  8805                           ;	EBTR1 = 0x1, unprogrammed default
  8806                           ;	Table Read Protection bit
  8807                           ;	EBTR2 = 0x1, unprogrammed default
  8808                           ;	Table Read Protection bit
  8809                           ;	EBTR3 = 0x1, unprogrammed default
  8810   30000C                     	org	3145740
  8811   30000C  0F                 	db	15
  8812                           
  8813                           ;Config register CONFIG7H @ 0x30000D
  8814                           ;	unspecified, using default values
  8815                           ;	Boot Block Table Read Protection bit
  8816                           ;	EBTRB = 0x1, unprogrammed default
  8817   30000D                     	org	3145741
  8818   30000D  40                 	db	64
  8819                           tosu	equ	0xFFF
  8820                           tosh	equ	0xFFE
  8821                           tosl	equ	0xFFD
  8822                           stkptr	equ	0xFFC
  8823                           pclatu	equ	0xFFB
  8824                           pclath	equ	0xFFA
  8825                           pcl	equ	0xFF9
  8826                           tblptru	equ	0xFF8
  8827                           tblptrh	equ	0xFF7
  8828                           tblptrl	equ	0xFF6
  8829                           tablat	equ	0xFF5
  8830                           prodh	equ	0xFF4
  8831                           prodl	equ	0xFF3
  8832                           indf0	equ	0xFEF
  8833                           postinc0	equ	0xFEE
  8834                           postdec0	equ	0xFED
  8835                           preinc0	equ	0xFEC
  8836                           plusw0	equ	0xFEB
  8837                           fsr0h	equ	0xFEA
  8838                           fsr0l	equ	0xFE9
  8839                           wreg	equ	0xFE8
  8840                           indf1	equ	0xFE7
  8841                           postinc1	equ	0xFE6
  8842                           postdec1	equ	0xFE5
  8843                           preinc1	equ	0xFE4
  8844                           plusw1	equ	0xFE3
  8845                           fsr1h	equ	0xFE2
  8846                           fsr1l	equ	0xFE1
  8847                           bsr	equ	0xFE0
  8848                           indf2	equ	0xFDF
  8849                           postinc2	equ	0xFDE
  8850                           postdec2	equ	0xFDD
  8851                           preinc2	equ	0xFDC
  8852                           plusw2	equ	0xFDB
  8853                           fsr2h	equ	0xFDA
  8854                           fsr2l	equ	0xFD9
  8855                           status	equ	0xFD8

Data Sizes:
    Strings     482
    Constant    0
    Data        71
    BSS         66
    Persistent  0
    Stack       0

Auto Spaces:
    Space          Size  Autos    Used
    COMRAM           94     66      92
    BANK0           160      0     111
    BANK1           256      0       0
    BANK2           256      0       0
    BANK3           256      0       0
    BANK4           256      0       0
    BANK5           256      0       0

Pointer List with Targets:

    clcd_print@data	PTR const unsigned char  size(2) Largest target is 18
		 -> STR_48(CODE[18]), STR_47(CODE[17]), STR_46(CODE[17]), STR_45(CODE[17]), 
		 -> STR_44(CODE[17]), STR_43(CODE[17]), STR_42(CODE[17]), STR_41(CODE[17]), 
		 -> STR_40(CODE[17]), STR_39(CODE[16]), STR_38(CODE[17]), STR_37(CODE[17]), 
		 -> STR_36(CODE[17]), STR_35(CODE[18]), STR_34(CODE[3]), view_event(BANK0[17]), 
		 -> STR_33(CODE[12]), STR_32(CODE[10]), STR_27(CODE[17]), STR_26(CODE[17]), 
		 -> STR_25(CODE[17]), STR_24(CODE[17]), STR_23(CODE[17]), STR_22(CODE[16]), 
		 -> STR_21(CODE[16]), STR_20(CODE[17]), STR_19(CODE[17]), STR_18(CODE[16]), 
		 -> STR_17(CODE[17]), STR_16(CODE[17]), STR_15(CODE[17]), STR_14(CODE[17]), 
		 -> STR_5(CODE[17]), STR_4(CODE[17]), time(BANK0[9]), STR_3(CODE[17]), 
		 -> STR_2(CODE[17]), STR_1(CODE[17]), event(BANK0[17]), 

    menu_event	PTR unsigned char [4] size(2) Largest target is 3
		 -> STR_31(CODE[3]), STR_30(CODE[3]), STR_29(CODE[3]), STR_28(CODE[3]), 

    validate_password@enter_password	PTR unsigned char  size(2) Largest target is 5
		 -> confirm_password(BANK0[5]), enter_password(BANK0[5]), 

    validate_password@original_password	PTR unsigned char  size(2) Largest target is 5
		 -> enter_password(BANK0[5]), original_password(BANK0[5]), 

    store_event@event	PTR unsigned char  size(2) Largest target is 17
		 -> event(BANK0[17]), 

    menu	PTR unsigned char [5] size(2) Largest target is 17
		 -> STR_18(CODE[16]), STR_17(CODE[17]), STR_16(CODE[17]), STR_15(CODE[17]), 
		 -> STR_14(CODE[17]), 

    gear_data	PTR unsigned char [8] size(2) Largest target is 3
		 -> STR_13(CODE[3]), STR_12(CODE[3]), STR_11(CODE[3]), STR_10(CODE[3]), 
		 -> STR_9(CODE[3]), STR_8(CODE[3]), STR_7(CODE[3]), STR_6(CODE[3]), 


Critical Paths under _main in COMRAM

    _main->___fltol
    _view_log->_clcd_putch
    _read_external_eeprom->_i2c_write
    _set_time->_clcd_putch
    _read_password->_clcd_putch
    _read_password->_validate_password
    _init_config->_init_clcd
    _init_config->_init_ds1307
    _init_ds1307->_read_ds1307
    _init_ds1307->_write_ds1307
    _write_ds1307->_i2c_write
    _init_clcd->_clcd_write
    _get_time->_read_ds1307
    _read_ds1307->_i2c_write
    _display_speed->___lwdiv
    _display_dashboard->_gear_monitor
    _gear_monitor->_store_event
    _clear_log->_store_event
    _change_password->_clcd_putch
    _change_password->_validate_password
    _car_menu->_store_event
    _store_event->_write_external_eeprom
    _write_external_eeprom->_i2c_write
    _clcd_putch->___lwdiv
    _clcd_print->_clcd_write
    ___xxtofl->_read_adc
    ___fltol->___fldiv
    ___fldiv->___xxtofl

Critical Paths under _isr in COMRAM

    None.

Critical Paths under _main in BANK0

    None.

Critical Paths under _isr in BANK0

    None.

Critical Paths under _main in BANK1

    None.

Critical Paths under _isr in BANK1

    None.

Critical Paths under _main in BANK2

    None.

Critical Paths under _isr in BANK2

    None.

Critical Paths under _main in BANK3

    None.

Critical Paths under _isr in BANK3

    None.

Critical Paths under _main in BANK4

    None.

Critical Paths under _isr in BANK4

    None.

Critical Paths under _main in BANK5

    None.

Critical Paths under _isr in BANK5

    None.

Call Graph Tables:

 ---------------------------------------------------------------------------------
 (Depth) Function   	        Calls       Base Space   Used Autos Params    Refs
 ---------------------------------------------------------------------------------
 (0) _main                                                 9     9      0   78877
                                             57 COMRAM     9     9      0
                            ___fldiv
                            ___fltol
                           ___xxtofl
                           _car_menu
                    _change_password
                         _clcd_print
                          _clear_log
                  _display_dashboard
                      _display_speed
                           _get_time
                        _init_config
                           _read_adc
               _read_external_eeprom
                      _read_password
                      _read_switches
                           _set_time
                        _store_event
                           _view_log
              _write_external_eeprom
 ---------------------------------------------------------------------------------
 (1) _view_log                                             5     5      0   10147
                                              9 COMRAM     5     5      0
                            ___lwmod
                         _clcd_print
                         _clcd_putch
               _read_external_eeprom
 ---------------------------------------------------------------------------------
 (2) _read_external_eeprom                                 2     2      0      67
                                              1 COMRAM     2     2      0
                           _i2c_read
                      _i2c_rep_start
                          _i2c_start
                           _i2c_stop
                          _i2c_write
 ---------------------------------------------------------------------------------
 (1) _set_time                                             3     3      0    9223
                                              9 COMRAM     3     3      0
                         _clcd_print
                         _clcd_putch
 ---------------------------------------------------------------------------------
 (1) _read_switches                                        2     2      0     111
                                              0 COMRAM     2     2      0
                           _scan_key
 ---------------------------------------------------------------------------------
 (2) _scan_key                                             0     0      0       0
 ---------------------------------------------------------------------------------
 (1) _read_password                                        3     3      0   11134
                                              9 COMRAM     3     3      0
                            ___lwdiv
                            ___lwmod
                         _clcd_print
                         _clcd_putch
                  _validate_password
 ---------------------------------------------------------------------------------
 (1) _read_adc                                             8     6      2      22
                                              0 COMRAM     8     6      2
 ---------------------------------------------------------------------------------
 (1) _init_config                                          0     0      0    1386
                           _init_adc
                          _init_clcd
                        _init_ds1307
                           _init_i2c
                 _init_matrix_keypad
                        _init_timer0
 ---------------------------------------------------------------------------------
 (2) _init_timer0                                          0     0      0       0
 ---------------------------------------------------------------------------------
 (2) _init_matrix_keypad                                   0     0      0       0
 ---------------------------------------------------------------------------------
 (2) _init_i2c                                             0     0      0       0
 ---------------------------------------------------------------------------------
 (2) _init_ds1307                                          1     1      0     506
                                              3 COMRAM     1     1      0
                        _read_ds1307
                       _write_ds1307
 ---------------------------------------------------------------------------------
 (3) _write_ds1307                                         2     1      1     370
                                              1 COMRAM     2     1      1
                          _i2c_start
                           _i2c_stop
                          _i2c_write
 ---------------------------------------------------------------------------------
 (2) _init_clcd                                            2     2      0     880
                                              2 COMRAM     2     2      0
                         _clcd_write
 ---------------------------------------------------------------------------------
 (2) _init_adc                                             0     0      0       0
 ---------------------------------------------------------------------------------
 (1) _get_time                                             0     0      0      67
                        _read_ds1307
 ---------------------------------------------------------------------------------
 (3) _read_ds1307                                          2     2      0      67
                                              1 COMRAM     2     2      0
                           _i2c_read
                      _i2c_rep_start
                          _i2c_start
                           _i2c_stop
                          _i2c_write
 ---------------------------------------------------------------------------------
 (3) _i2c_rep_start                                        0     0      0       0
                           _i2c_idle
 ---------------------------------------------------------------------------------
 (3) _i2c_read                                             0     0      0       0
                         _i2c_no_ack
                        _i2c_rx_mode
 ---------------------------------------------------------------------------------
 (4) _i2c_rx_mode                                          0     0      0       0
                           _i2c_idle
 ---------------------------------------------------------------------------------
 (4) _i2c_no_ack                                           0     0      0       0
 ---------------------------------------------------------------------------------
 (1) _display_speed                                        2     0      2    1429
                                              7 COMRAM     2     0      2
                            ___lwdiv
                            ___lwmod
 ---------------------------------------------------------------------------------
 (2) ___lwmod                                              5     1      4     767
                                              0 COMRAM     5     1      4
 ---------------------------------------------------------------------------------
 (2) ___lwdiv                                              7     3      4     466
                                              0 COMRAM     7     3      4
 ---------------------------------------------------------------------------------
 (1) _display_dashboard                                    1     1      0    7417
                                             16 COMRAM     1     1      0
                         _clcd_print
                       _gear_monitor
 ---------------------------------------------------------------------------------
 (2) _gear_monitor                                         3     3      0     910
                                             13 COMRAM     3     3      0
                        _store_event
 ---------------------------------------------------------------------------------
 (1) _clear_log                                            2     2      0    7175
                                             13 COMRAM     2     2      0
                         _clcd_print
                        _store_event
 ---------------------------------------------------------------------------------
 (1) _change_password                                      5     5      0   10396
                                              9 COMRAM     5     5      0
                         _clcd_print
                         _clcd_putch
                  _validate_password
              _write_external_eeprom
 ---------------------------------------------------------------------------------
 (2) _validate_password                                    9     5      4     766
                                              0 COMRAM     9     5      4
 ---------------------------------------------------------------------------------
 (1) _car_menu                                             3     3      0    9979
                                             13 COMRAM     3     3      0
                         _clcd_print
                         _clcd_putch
                        _store_event
 ---------------------------------------------------------------------------------
 (1) _store_event                                          8     6      2     756
                                              5 COMRAM     8     6      2
              _write_external_eeprom
 ---------------------------------------------------------------------------------
 (1) _write_external_eeprom                                4     3      1     317
                                              1 COMRAM     4     3      1
                          _i2c_start
                           _i2c_stop
                          _i2c_write
 ---------------------------------------------------------------------------------
 (2) _i2c_write                                            1     1      0      22
                                              0 COMRAM     1     1      0
                           _i2c_idle
 ---------------------------------------------------------------------------------
 (2) _i2c_stop                                             0     0      0       0
                           _i2c_idle
 ---------------------------------------------------------------------------------
 (2) _i2c_start                                            0     0      0       0
                           _i2c_idle
 ---------------------------------------------------------------------------------
 (3) _i2c_idle                                             0     0      0       0
 ---------------------------------------------------------------------------------
 (2) _clcd_putch                                           2     1      1    2672
                                              7 COMRAM     2     1      1
                            ___lwdiv (ARG)
                            ___lwmod (ARG)
                         _clcd_write
 ---------------------------------------------------------------------------------
 (2) _clcd_print                                           3     0      3    6419
                                              2 COMRAM     3     0      3
                         _clcd_write
 ---------------------------------------------------------------------------------
 (3) _clcd_write                                           2     1      1     880
                                              0 COMRAM     2     1      1
 ---------------------------------------------------------------------------------
 (1) ___xxtofl                                            14    10      4     474
                                              8 COMRAM    14    10      4
                           _read_adc (ARG)
 ---------------------------------------------------------------------------------
 (1) ___fltol                                             10     6      4     381
                                             47 COMRAM    10     6      4
                            ___fldiv (ARG)
                           ___xxtofl (ARG)
                           _read_adc (ARG)
 ---------------------------------------------------------------------------------
 (1) ___fldiv                                             25    17      8    1551
                                             22 COMRAM    25    17      8
                           ___xxtofl (ARG)
                           _read_adc (ARG)
 ---------------------------------------------------------------------------------
 Estimated maximum stack depth 4
 ---------------------------------------------------------------------------------
 (Depth) Function   	        Calls       Base Space   Used Autos Params    Refs
 ---------------------------------------------------------------------------------
 (7) _isr                                                  0     0      0       0
 ---------------------------------------------------------------------------------
 Estimated maximum stack depth 7
 ---------------------------------------------------------------------------------

 Call Graph Graphs:

 _main (ROOT)
   ___fldiv
     ___xxtofl (ARG)
       _read_adc (ARG)
     _read_adc (ARG)
   ___fltol
     ___fldiv (ARG)
     ___xxtofl (ARG)
     _read_adc (ARG)
   ___xxtofl
   _car_menu
     _clcd_print
       _clcd_write
     _clcd_putch
       ___lwdiv (ARG)
       ___lwmod (ARG)
       _clcd_write (ARG)
     _store_event
       _write_external_eeprom
         _i2c_start
           _i2c_idle
         _i2c_stop
           _i2c_idle
         _i2c_write
           _i2c_idle
   _change_password
     _clcd_print
     _clcd_putch
     _validate_password
     _write_external_eeprom
   _clcd_print
   _clear_log
     _clcd_print
     _store_event
   _display_dashboard
     _clcd_print
     _gear_monitor
       _store_event
   _display_speed
     ___lwdiv
     ___lwmod
   _get_time
     _read_ds1307
       _i2c_read
         _i2c_no_ack
         _i2c_rx_mode
           _i2c_idle
       _i2c_rep_start
         _i2c_idle
       _i2c_start
       _i2c_stop
       _i2c_write
   _init_config
     _init_adc
     _init_clcd
       _clcd_write
     _init_ds1307
       _read_ds1307
       _write_ds1307
         _i2c_start
         _i2c_stop
         _i2c_write
     _init_i2c
     _init_matrix_keypad
     _init_timer0
   _read_adc
   _read_external_eeprom
     _i2c_read
     _i2c_rep_start
     _i2c_start
     _i2c_stop
     _i2c_write
   _read_password
     ___lwdiv
     ___lwmod
     _clcd_print
     _clcd_putch
     _validate_password
   _read_switches
     _scan_key
   _set_time
     _clcd_print
     _clcd_putch
   _store_event
   _view_log
     ___lwmod
     _clcd_print
     _clcd_putch
     _read_external_eeprom
   _write_external_eeprom

 _isr (ROOT)

 Address spaces:
Name               Size   Autos  Total    Cost      Usage
BIGRAM             5FF      0       0      25        0.0%
BITBIGSFRll        281      0       0      23        0.0%
EEDATA             100      0       0       0        0.0%
BITBANK5           100      0       0      14        0.0%
BANK5              100      0       0      15        0.0%
BITBANK4           100      0       0      12        0.0%
BANK4              100      0       0      13        0.0%
BITBANK3           100      0       0      10        0.0%
BANK3              100      0       0      11        0.0%
BITBANK2           100      0       0       8        0.0%
BANK2              100      0       0       9        0.0%
BITBANK1           100      0       0       6        0.0%
BANK1              100      0       0       7        0.0%
BITBANK0            A0      0       0       4        0.0%
BANK0               A0      0      6F       5       69.4%
BITCOMRAM           5E      0       0       0        0.0%
COMRAM              5E     42      5C       1       97.9%
BITBIGSFRhlhlhh     1E      0       0      19        0.0%
BITBIGSFRhlhhh      19      0       0      17        0.0%
BITBIGSFRlh          F      0       0      22        0.0%
BITBIGSFRhh          D      0       0      16        0.0%
BITBIGSFRhlhhlh      B      0       0      18        0.0%
BITBIGSFRhlhll       8      0       0      21        0.0%
BITBIGSFRhlhlhl      2      0       0      20        0.0%
BIGSFR               0      0       0     200        0.0%
BITSFR_3             0      0       0     200        0.0%
SFR_3                0      0       0     200        0.0%
BITSFR_2             0      0       0     200        0.0%
SFR_2                0      0       0     200        0.0%
BITSFR_1             0      0       0     200        0.0%
SFR_1                0      0       0     200        0.0%
BITSFR               0      0       0     200        0.0%
SFR                  0      0       0     200        0.0%
STACK                0      0       0       2        0.0%
NULL                 0      0       0       0        0.0%
ABS                  0      0      CB      24        0.0%
DATA                 0      0      CB       3        0.0%
CODE                 0      0       0       0        0.0%


Microchip Technology PIC18 Macro Assembler V2.41 build 20230208172133 
Symbol Table                                                                                   Wed Jan 03 16:56:39 2024

                      ___fldiv@aexp 002F                        ___fldiv@bexp 002E  
                      ___fldiv@sign 0027               _write_external_eeprom 23DE  
                    clcd_print@addr 0005                      clcd_print@data 0003  
                                l59 253E                                  _GO 7E11  
                _init_matrix_keypad 25B2                                 l211 159C  
                               l204 1E22                                 l241 0C28  
                               l401 1BC4                                 l410 1C30  
                               l402 1C00                                 l171 2264  
                               l411 1C58                                 l403 1BD8  
                               l228 1F70                                 l332 04B4  
                               l412 1C44                                 l317 22BE  
                               l405 1BEC                                 l270 180C  
                               l191 1B52                                 l183 1ADC  
                               l176 1FF2                                 l440 1ED2  
                               l408 1C1C                                 l194 245A  
                               l266 1690                                 l515 2558  
                               l436 2490                                 l612 241C  
                               l437 2494                                 l446 2144  
                               l294 1184                                 l286 12BE  
                               l615 24BE                                 l632 234E  
                               l449 2570                                 l393 1B6E  
                               l385 20D8                                 l570 2596  
                               l394 1C5A                                 l571 2598  
                               l635 2506                                 l379 25B8  
                               l491 22D8                                 l395 1BAA  
                               l396 1B82                                 l581 25D0  
                               l565 2586                                 l590 25C8  
                               l638 24E8                                 l494 2306  
                               l398 1B96                                 l568 2588  
                               l584 25C0                                 l488 2524  
                               l593 25DE                                 l578 25D8  
                               l587 25B0                                 l596 25A4  
                               _CKE 7E3E                                 l938 1D60  
                               _GIE 7F97                                 _RB1 7C09  
                               _RB2 7C0A                                 _RC0 7C10  
                               _RC1 7C11                                 _RB3 7C0B  
                               _RB4 7C0C                                 _RC2 7C12  
                               _RB5 7C0D                                 _RB6 7C0E  
                               _RB7 7C0F                                 _RD7 7C1F  
                               _PEN 7E2A                                 _SEN 7E28  
                               _PSA 7EAB                                 _SMP 7E3F  
                               _key 00AE                                 _sec 0053  
                               _isr 0008                      clcd_putch@addr 0008  
                    clcd_putch@data 0009                                 wreg 0FE8  
            read_switches@detection 0001                 ?_init_matrix_keypad 0001  
                       _total_index 0058                        ___fltol@exp1 0039  
                              l1132 205E                                l1310 1958  
                              l1142 21A0                                l1223 0FC2  
                              l1303 18FC                                l3000 1B90  
                              l1225 0E22                                l1234 0E68  
                              l3010 1BBE                                l1139 2066  
                              l1236 0EE0                                l1228 0DE6  
                              l3100 252E                                l1237 0ECE  
                              l1149 21A8                                l3102 2532  
                              l3110 22D6                                l3022 1BE6  
                              l3006 1BA4                                l3120 1F72  
                              l3104 2536                                l3112 22E6  
                              l3200 1342                                l3032 1C16  
                              l3016 1BD2                                l4000 05F4  
                              l3130 1FCA                                l3122 1F90  
                              l3106 253A                                l3210 139C  
                              l3202 1356                                l3050 1C52  
                              l4010 0632                                l4002 05FC  
                              l3300 09BC                                l3060 1FFC  
                              l3116 241E                                l3132 1FD4  
                              l3124 1F9E                                l3108 22C2  
                              l3220 13F2                                l3212 13B2  
                              l3044 1C3E                                l3028 1BFA  
                              l4020 066C                                l4012 063E  
                              l4004 060E                                l3310 0A12  
                              l3302 09D0                                l3070 2032  
                              l3062 200E                                l3118 2456  
                              l3134 1FDC                                l3126 1FB4  
                              l3230 1450                                l3222 1408  
                              l3214 13BE                                l3206 136A  
                              l3054 1C58                                l3038 1C2A  
                              l3150 20A8                                l4030 06AA  
                              l4022 0672                                l4014 0648  
                              l4006 061E                                l1296 1864  
                              l3312 0A28                                l3304 09E0  
                              l3320 0A54                                l3072 2048  
                              l3064 2016                                l3080 2146  
                              l3128 1FC6                                l3232 1460  
                              l3240 14A6                                l3224 140A  
                              l3216 13D6                                l3208 138C  
                              l3160 20D2                                l3152 20B8  
                              l3144 2082                                l3136 206A  
                              l3400 1688                                l4040 06DE  
                              l4032 06BA                                l4024 0684  
                              l4016 064E                                l4008 062E  
                              l3322 0A66                                l3314 0A34  
                              l3306 09F4                                l3170 222A  
                              l3074 2050                                l3066 201E  
                              l3058 1FF4                                l3090 218C  
                              l3082 2158                                l3242 14B2  
                              l3234 146A                                l3226 1412  
                              l3218 13DE                                l3162 20D6  
                              l3146 2092                                l3138 207A  
                              l3402 169C                                l4042 06E2  
                              l4018 0660                                l1299 19C0  
                              l3340 0B14                                l3324 0A6E  
                              l3332 0AC8                                l3316 0A46  
                              l3308 0A06                                l3172 223C  
                              l3076 2052                                l3068 202C  
                              l3092 2194                                l3084 2160  
                              l3260 1580                                l3244 14C2  
                              l3252 14F2                                l3236 147A  
                              l3228 1438                                l3180 12D2  
                              l3148 2098                                l3500 114A  
                              l3420 1744                                l3404 16AE  
                              l3412 16F8                                l4116 07CE  
                              l4060 0756                                l4052 0736  
                              l4044 06FE                                l4028 0698  
                              l2710 25CA                                l3350 0B68  
                              l3342 0B2A                                l3334 0ADA  
                              l3326 0A74                                l3318 0A4C  
                              l3270 0898                                l3174 224E  
                              l3166 220A                                l3078 2058  
                              l3094 219A                                l3086 2168  
                              l3262 1594                                l3254 1504  
                              l3246 14D2                                l3238 1492  
                              l3182 12E4                                l3190 1310  
                              l3158 20C2                                l3502 115E  
                              l3510 1190                                l3422 174E  
                              l3414 170A                                l3406 16B4  
                              l4070 077A                                l4054 073C  
                              l4046 071A                                l4038 06C2  
                              l2800 2478                                l2704 2588  
                              l2712 25CC                                l3352 0B7E  
                              l3344 0B3E                                l3336 0AF0  
                              l3328 0A96                                l3280 08FA  
                              l3272 089E                                l3600 0108  
                              l3176 2254                                l3168 221A  
                              l3088 2176                                l2720 25C4  
                              l3096 2526                                l3256 1524  
                              l3248 14EA                                l3192 1322  
                              l3184 12F4                                l3512 11A2  
                              l3520 11CE                                l3504 1162  
                              l3440 17BE                                l3424 1762  
                              l3416 1720                                l3408 16D6  
                              l3432 178A                                l4072 079A  
                              l4064 075E                                l4048 0720  
                              l2810 2482                                l2802 247A  
                              l2706 25D2                                l2714 25A8  
                              l2730 23F0                                l3370 0C04  
                              l3362 0BA2                                l3354 0B82  
                              l3346 0B4A                                l3338 0B04  
                              l3290 0934                                l3282 0902  
                              l3274 08C0                                l3266 087E  
                              l3610 0158                                l3602 0118  
                              l2722 25DA                                l3098 252A  
                              l3258 1530                                l3194 1332  
                              l3186 1300                                l3178 12C2  
                              l3530 1222                                l3522 11E0  
                              l3514 11A8                                l3506 1168  
                              l3450 0FC6                                l3442 17D6  
                              l3434 17B6                                l3426 176A  
                              l3418 1734                                l4074 07B2  
                              l4066 0764                                l4058 0752  
                              l2804 247C                                l2708 25D4  
                              l2716 25AC                                l2732 23F6  
                              l2724 23E0                                l3364 0BB6  
                              l3348 0B60                                l3356 0B8A  
                              l3292 0984                                l3284 0914  
                              l3276 08D4                                l3268 0890  
                              l3700 03D0                                l3620 0196  
                              l3612 016A                                l3604 0130  
                              l2740 25BC                                l2820 2502  
                              l2812 24EC                                l3188 1308  
                              l3540 127A                                l3532 122E  
                              l3524 11F6                                l3508 117C  
                              l3452 0FD8                                l3460 1020  
                              l2900 249C                                l3444 17DA  
                              l3428 177E                                l3380 15F0  
                              l3372 15A0                                l4076 07BA  
                              l2806 247E                                l2734 23FA  
                              l2726 23E4                                l2750 1D84  
                              l3366 0BCE                                l3286 091C  
                              l3278 08E8                                l3702 03F0  
                              l3622 01A8                                l3630 01D4  
                              l3606 0144                                l3710 0418  
                              l3550 2266                                l2718 25C2  
                              l2742 259A                                l2830 1E2E  
                              l2814 24F0                                l2822 25B2  
                              l3542 128A                                l3534 1244  
                              l3526 120A                                l3470 107E  
                              l3462 1032                                l3454 0FDE  
                              l2902 24A2                                l3446 17F6  
                              l3390 163A                                l3382 15F6  
                              l3374 15B0                                l4078 080C  
                              l3800 0DD6                                l2808 2480  
                              l2912 20DA                                l2736 2402  
                              l2728 23EA                                l2760 1DA8  
                              l3368 0BE2                                l3288 0922  
                              l3296 0994                                l3720 0472  
                              l3712 042C                                l3704 03F4  
                              l3632 01E6                                l3640 0206  
                              l3624 01B8                                l3608 0154  
                              l3616 0176                                l3560 22A8  
                              l3552 2286                                l2920 19C4  
                              l2744 25A2                                l2840 1E6C  
                              l2832 1E30                                l2816 24F6  
                              l2824 25B6                                l3544 129C  
                              l3528 121A                                l3480 10B2  
                              l3472 1092                                l3464 1048  
                              l3456 1000                                l3536 1250  
                              l2904 24A8                                l3448 17FC  
                              l3392 164A                                l3384 15FE  
                              l3376 15CE                                l3810 0E20  
                              l3802 0DE4                                l3730 0C36  
                              l2914 20E8                                l2770 1DF6  
                              l2762 1DC4                                l3298 09A6  
                              l3722 0488                                l3706 03F8  
                              l3642 021A                                l3634 01F6  
                              l3626 01C4                                l3618 0186  
                              l3650 0252                                l3570 0056  
                              l3562 0014                                l3554 2290  
                              l2930 1A1A                                l2922 19D4  
                              l2738 25BA                                l2850 1E96  
                              l2842 1E74                                l2834 1E48  
                              l2826 1E24                                l2818 24FC  
                              l3546 12AE                                l3538 1266  
                              l3490 110C                                l3482 10C4  
                              l3474 10A6                                l3466 105C  
                              l2906 24AC                                l3394 1658  
                              l3386 1610                                l3378 15DE  
                              l3820 0E66                                l3812 0E32  
                              l3804 0DF0                                l3740 0C76  
                              l3732 0C44                                l3900 1D20  
                              l2916 2110                                l2772 1DFE  
                              l2764 1DCA                                l2756 1D8C  
                              l2748 1D62                                l3724 0494  
                              l3716 0440                                l3708 0400  
                              l3660 02A2                                l3652 0264  
                              l3644 022A                                l3628 01CC  
                              l3580 0094                                l3572 0062  
                              l3564 0024                                l3556 2298  
                              l2940 1A72                                l2932 1A2E  
                              l2924 19E6                                l2780 24C6  
                              l2860 1ECA                                l2852 1EA0  
                              l2844 1E7E                                l2836 1E52  
                              l2828 1E28                                l3548 12B2  
                              l3492 1110                                l3476 10AA  
                              l3484 10D0                                l3468 106C  
                              l2908 24B8                                l3396 166C  
                              l3388 1626                                l3830 0EC6  
                              l3814 0E48                                l3822 0E78  
                              l3806 0E0E                                l3750 0C9C  
                              l3742 0C78                                l3734 0C46  
                              l3902 1D30                                l3910 1810  
                              l2918 2114                                l2774 1E06  
                              l2766 1DDA                                l2758 1DA4  
                              l3726 04AC                                l3718 0462  
                              l3662 02AA                                l3654 0274  
                              l3646 022E                                l3590 00BA  
                              l3574 006A                                l3566 0034  
                              l3558 229C                                l2950 1ABC  
                              l2942 1A88                                l2934 1A40  
                              l2926 19F6                                l2782 24CC  
                              l2862 2508                                l2854 1EA8  
                              l2846 1E84                                l2838 1E62  
                              l2870 2552                                l3494 1116  
                              l3486 10E4                                l3478 10B0  
                              l3398 1674                                l3840 0F34  
                              l3824 0E86                                l3816 0E4E  
                              l3808 0E10                                l3760 0CDC  
                              l3752 0CAA                                l3736 0C56  
                              l3744 0C80                                l3728 0C2A  
                              l3904 1D40                                l3912 1820  
                              l2792 245E                                l2776 1E1A  
                              l2768 1DE0                                l3680 032C  
                              l3656 0286                                l3664 02B2  
                              l3648 0236                                l3592 00C2  
                              l3568 0046                                l3576 0072  
                              l2960 1AF0                                l2952 1AD2  
                              l2944 1A8C                                l2936 1A54  
                              l2928 1A08                                l2784 24D2  
                              l2856 1EB2                                l2848 1E8E  
                              l2880 257E                                l2872 2554  
                              l2864 2540                                l3496 112A  
                              l3488 10F8                                l3850 0F9E  
                              l3834 0EF0                                l3842 0F38  
                              l3826 0E8A                                l3818 0E58  
                              l3770 0D1C                                l3762 0CDE  
                              l3754 0CAC                                l3746 0C90  
                              l3738 0C66                                l3906 1D50  
                              l3930 18E6                                l3922 189E  
                              l3914 182E                                l2794 2470  
                              l2970 1ED4                                l3682 0350  
                              l3666 02C4                                l3674 02E4  
                              l3658 0296                                l3594 00C8  
                              l3578 0084                                l3586 00A4  
                              l2962 1B10                                l2946 1A94  
                              l2938 1A60                                l2786 24D6  
                              l2778 24C2                                l2858 1EC0  
                              l2890 2310                                l2882 2580  
                              l2874 2556                                l2866 2548  
                              l3498 1136                                l3852 0FA2  
                              l3844 0F52                                l3836 0EFC  
                              l3828 0E98                                l3780 0D4C  
                              l3772 0D24                                l3756 0CBC  
                              l3764 0CE6                                l3748 0C96  
                              l3940 1966                                l3932 18F2  
                              l3924 18A6                                l3916 1874  
                              l2796 2474                                l2972 1EE0  
                              l2980 1F50                                l3684 036C  
                              l3676 02F8                                l3668 02D4  
                              l3596 00EE                                l3588 00B8  
                              l2964 1B40                                l2948 1AA6  
                              l2956 1ADC                                l2788 24E2  
                              l2892 231C                                l2884 2582  
                              l2876 2572                                l2868 2550  
                              l3854 0FB0                                l3846 0F68  
                              l3838 0F0A                                l3790 0D8A  
                              l3782 0D4C                                l3774 0D28  
                              l3766 0CF6                                l3758 0CCC  
                              l3950 19AE                                l3942 1968  
                              l3934 192E                                l3926 18B2  
                              l3918 188A                                l2798 2476  
                              l2974 1F1C                                l3694 0394  
                              l3686 0370                                l3678 0306  
                              l3598 00FE                                l2958 1AEC  
                              l2966 1B4C                                l2894 2330  
                              l2886 2584                                l2878 2576  
                              l3856 0FB6                                l3848 0F82  
                              l3792 0D9A                                l3768 0D0C  
                              l3880 1CC6                                l3872 1C86  
                              l3952 19B0                                l3944 196C  
                              l3936 193A                                l3928 18E4  
                              l2968 255C                                l3696 03AC  
                              l3688 038C                                l2896 233A  
                              l2888 2308                                l3858 0FB8  
                              l3794 0DAA                                l3786 0D60  
                              l3778 0D3C                                l3890 1CF6  
                              l3882 1CD4                                l3874 1CB0  
                              l3866 1C5C                                l3946 1990  
                              l3938 1948                                l2978 1F4C  
                              l3698 03B0                                l2994 1B7C  
                              l2986 1B54                                l2898 2498  
                              l3970 04FA                                l3796 0DB2  
                              l3788 0D7A                                l3892 1D00  
                              l3876 1CB2                                l3868 1C72  
                              l3948 19A0                                l2988 1B68  
                              l3980 051C                                l3964 04C2  
                              l3956 04B6                                l3798 0DC2  
                              l3878 1CC2                                l3990 05A6  
                              l3982 0538                                l3966 04DA  
                              l3958 04BA                                l3888 1CEC  
                              l3992 05B2                                l3984 053E  
                              l3976 0502                                l3968 04DE  
                              _ADFM 7E07                                l3898 1D14  
                              l3994 05C4                                l3986 0596  
                              l3978 0518                                l3996 05D6  
                              l3988 05A2                                ?_isr 0001  
                              l3998 05E8                                _ADON 7E10  
                              STR_1 2F62                                STR_2 2F62  
                              STR_3 2F73                                STR_4 2F62  
                              STR_5 2F84                                STR_6 2FF3  
                              STR_7 2FF0                                STR_8 2FDE  
                              STR_9 2FE1                                _T0CS 7EAD  
                              u3000 0B3E                                u3001 0B3A  
                              u2210 2490                                u2130 2596  
                              u3010 0B60                                u2211 248C  
                              u2131 2592                                u3011 0B5C  
                              u2220 210C                                u2140 241C  
                              u3020 0B7E                                u2300 1A40  
                              u3100 166C                                u2205 2470  
                              u2141 2418                                u3021 0B7A  
                              u2301 1A3C                                u3101 1668  
                              u2230 2134                                u2150 1DC4  
                              u3030 0B9E                                u2310 1A54  
                              u3110 1688                                u2151 1DC0  
                              u3031 0B9A                                u2311 1A50  
                              u3111 1684                                u4000 182E  
                              u2240 2144                                u2160 1DDA  
                              u3040 0BB6                                u2320 1A72  
                              u2400 1B68                                u3200 17F6  
                              u3120 16AE                                u4001 182A  
                              u2241 2140                                u2161 1DD6  
                              u3041 0BB2                                u2321 1A6E  
                              u2401 1B64                                u3201 17F2  
                              u3121 16AA                                u4010 188A  
                              u2170 1DF6                                u2330 1A88  
                              u2250 19D4                                u2410 1B7C  
                              u3210 0FD8                                u3130 16D6  
                              u3050 15F0                                u4011 1886  
                              u2227 2102                                u2171 1DF2  
                              u2331 1A84                                u2251 19D0  
                              u2411 1B78                                u3211 0FD4  
                              u3131 16D2                                u3051 15EC  
                              u4020 18E0                                u2180 1E1A  
                              u2340 1AA6                                u2260 19E6  
                              u2500 1C3E                                u2420 1B90  
                              u3300 10C4                                u3220 1000  
                              u3140 170A                                u3060 1610  
                              u4100 0538                                u4021 18DC  
                              u2237 212A                                u2181 1E16  
                              u2341 1AA2                                u2261 19E2  
                              u2501 1C3A                                u2421 1B8C  
                              u3301 10C0                                u3221 0FFC  
                              u3141 1706                                u3061 160C  
                              u4101 0534                                u4030 192A  
                              u2190 246E                                u2350 1ABC  
                              u2270 1A08                                u2510 1C52  
                              u2430 1BA4                                u3310 10E4  
                              u3230 1032                                u3150 1720  
                              u3070 1626                                u4110 05C4  
                              u4031 1926                                u2191 2468  
                              u2351 1AB8                                u2271 1A04  
                              u2511 1C4E                                u2431 1BA0  
                              u3311 10E0                                u3231 102E  
                              u3151 171C                                u3071 1622  
                              u4111 05C0                                u4040 1948  
                              u2360 1AD2                                u2280 1A1A  
                              u2520 200E                                u2440 1BBE  
                              u2600 207A                                u3400 11E0  
                              u3320 10F8                                u3240 1048  
                              u3160 1734                                u3080 163A  
                              u4200 0732                                u4120 05D6  
                              u4041 1944                                u2361 1ACE  
                              u2281 1A16                                u2521 200A  
                              u2441 1BBA                                u2601 2076  
                              u3401 11DC                                u3321 10F4  
                              u3241 1044                                u3161 1730  
                              u3081 1636                                u4201 072E  
                              u4121 05D2                                u4050 1958  
                              u2370 1AEC                                u2290 1A2E  
                              u2530 202C                                u2450 1BD2  
                              u2610 2092                                u3410 11F6  
                              u3330 110C                                u3250 105C  
                              u3170 1744                                u3090 164A  
                              u4210 074E                                u4130 05E8  
                              u4051 1954                                u2371 1AE8  
                              u2291 1A2A                                u2531 2028  
                              u2451 1BCE                                u2611 208E  
                              u3411 11F2                                u3331 1108  
                              u3251 1058                                u3171 1740  
                              u3091 1646                                u4211 074A  
                              u4131 05E4                                u4060 1966  
                              u2380 1F1C                                u3500 0084  
                              u2540 2048                                u2700 1356  
                              u2460 1BE6                                u2620 20A8  
                              u3420 120A                                u3340 112A  
                              u3260 106C                                u3180 1762  
                              u4220 0776                                u4140 060E  
                              u4061 1962                                u2381 1F18  
                              u3501 0080                                u2541 2044  
                              u2701 1352                                u2461 1BE2  
                              u2621 20A4                                u3421 1206  
                              u3341 1126                                u3261 1068  
                              u3181 175E                                u4221 0772  
                              u4141 060A                                u4070 19A0  
                              u2390 1F6C                                u3510 00B8  
                              u2550 2158                                u2710 138C  
                              u2470 1BFA                                u2630 20B8  
                              u3430 121A                                u3350 114A  
                              u3270 107E                                u3190 177E  
                              u4150 061E                                u4071 199C  
                              u2391 1F68                                u3511 00B4  
                              u2551 2154                                u2711 1388  
                              u2471 1BF6                                u2631 20B4  
                              u3431 1216                                u3351 1146  
                              u3271 107A                                u3191 177A  
                              u4151 061A                                u4080 19AE  
                              u2800 08D4                                u3600 02C4  
                              u3520 00EE                                u2560 2176  
                              u2720 13B2                                u2480 1C16  
                              u2640 20D2                                u3440 1244  
                              u3360 115E                                u3280 1092  
                              u4160 0660                                u4081 19AA  
                              u2801 08D0                                u3601 02C0  
                              u3521 00EA                                u2561 2172  
                              u2721 13AE                                u2481 1C12  
                              u2641 20CE                                u3441 1240  
                              u3361 115A                                u3281 108E  
                              u4161 065C                                u2810 08E8  
                              u3610 02F8                                u3530 016A  
                              u2650 222A                                u2570 218C  
                              u2730 13D6                                u2490 1C2A  
                              u3450 1266                                u3370 117C  
                              u3290 10A6                                u4170 0684  
                              u4090 04FA               ?_read_external_eeprom 0001  
                              u2811 08E4                                u3611 02F4  
                              u3531 0166                                u2651 2226  
                              u2571 2188                                u4307 14DC  
                              u2731 13D2                                u2491 1C26  
                              u3451 1262                                u3371 1178  
                              u3291 10A2                                u4171 0680  
                              u4091 04F6                                u3700 0C56  
                              u2900 0A06                                u2820 08FA  
                              u3620 032C                                u3540 0186  
                              u2660 223C                                u2580 22E6  
                              u2740 13F2                                u3460 128A  
                              u3380 11A2                                u4180 06AA  
                              u3701 0C52                                u2901 0A02  
                              u2821 08F6                                u3621 0328  
                              u3541 0182                                u2661 2238  
                              u4317 1E3A                                u2581 22E2  
                              u2741 13EE                                u3461 1286  
                              u3381 119E                                u4181 06A6  
                              u3710 0C66                                u2910 0A28  
                              u2830 0914                                u3630 038C  
                              u3550 01A8                                u2670 224E  
                              u2590 1F9E                                u2750 1438  
                              u3470 12AE                                u3390 11CA  
                              u4190 06FE                                u3711 0C62  
                              u2911 0A24                                u2831 0910  
                              u3631 0388                                u4407 0240  
                              u3551 01A4                                u2671 224A  
                              u2591 1F9A                                u4327 1E58  
                              u2751 1434                                u3471 12AA  
                              u3391 11C6                                u4191 06FA  
                              u3800 0E32                                u3720 0CAA  
                              u2920 0A46                                u2840 0934  
                              u3640 03CC                                u3560 01E6  
                              u3480 0024                                u2760 1504  
                              u2680 12E4                                u3801 0E2E  
                              u3721 0CA6                                u2921 0A42  
                              u2841 0930                                u4417 040A  
                              u3641 03C8                                u3561 01E2  
                              u3481 0020                                u4337 1E6E  
                              u2761 1500                                u2681 12E0  
                              u4257 0708                                u3810 0E48  
                              u3730 0CBC                                u2930 0A66  
                              u2850 09A6                                u3650 042C  
                              u3570 021A                                u3490 0046  
                              u2770 1594                                u2690 1322  
                              u3811 0E44                                u3731 0CB8  
                              u2931 0A62                                u2851 09A2  
                              u3651 0428                                u3571 0216  
                              u3491 0042                                u4347 1E90  
                              u2771 1590                                u2691 131E  
                              u4267 07A4                                _PEIE 7F96  
                              u3900 0F82                                u3820 0E66  
                              u3740 0CCC                                u2940 0A96  
                              u2860 09BC                                u2780 0890  
                              u3660 0462                                u3580 0264  
                              u3901 0F7E                                u3821 0E62  
                              u3741 0CC8                                u2941 0A92  
                              u2861 09B8                                u2781 088C  
                              u3661 045E                                u3581 0260  
                              u4357 1EA2                                u4277 13FC  
                              u3910 0FB0                                u3830 0E86  
                              u3750 0D0C                                u2950 0ADA  
                              u2870 09D0                                u2790 08C0  
                              u3670 0488                                u3590 0286  
                              u3911 0FAC                                u3831 0E82  
                              u3751 0D08                                u2951 0AD6  
                              u2871 09CC                                u2791 08BC  
                              u3671 0484                                u3591 0282  
                              u4367 1EB8                                u4287 1442  
                              u3840 0E98                                u3760 0D4C  
                              u3920 1C72                                u2960 0AF0  
                              u2880 09E0                                u3680 04AC  
                              u3841 0E94                                u3761 0D48  
                              u3921 1C6E                                u2961 0AEC  
                              u2881 09DC                                u3681 04A8  
                              u4377 1ECC                                u4297 1484  
                              u3850 0EC6                                u3770 0DC2  
                              u3690 0C44                                u3930 1CA6  
                              u2970 0B04                                u2890 09F4  
                              u3851 0EC2                                u3771 0DBE  
                              u3691 0C40                                u2971 0B00  
                              u2891 09F0                                u4387 22B2  
                              u3860 0EDC                                u3780 0DE4  
                              u3940 1CD4                                u2980 0B14  
                              _RCEN 7E2B                                u3861 0ED8  
                              u3781 0DE0                                u3941 1CD0  
                              u2981 0B10                                u4397 0122  
                              u3870 0EF0                                u3790 0E0E  
                              u3950 1CE8                                u2990 0B2A  
                              u3871 0EEC                                u3791 0E0A  
                              u3951 1CE4                                u3935 1C9C  
                              u2991 0B26                                u3880 0F0A  
                              u3960 1D10                                u3881 0F06  
                              u3961 1D0C                                u3890 0F52  
                              u3970 1D30                                u3891 0F4E  
                              u3971 1D2C                                u3980 1D40  
                              u3981 1D3C                                u3990 1820  
                              u3991 181C                                _RBPU 7F8F  
                              _TMR0 0FD6                                _RSEN 7E29  
                    ?_display_speed 0008                                _main 04B6  
                              _menu 0070                                _wait 004D  
                              _time 0097                                fsr1h 0FE2  
                              fsr2h 0FDA                                indf1 0FE7  
                              indf2 0FDF                                fsr1l 0FE1  
                              fsr2l 0FD9                                btemp 005D  
                              start 000E                     ___fldiv@new_exp 0028  
              ??_init_matrix_keypad 0001                        ___param_bank 0000  
                    clcd_write@byte 0002                         _store_event 1D62  
                     _i2c_rep_start 25BA                       ??_i2c_rx_mode 0001  
                             ??_isr 0001                        ?_init_ds1307 0001  
                     ___fltol@sign1 0038                               _ADCS0 7E00  
                             _ADCS1 7E01                               _ADCS2 7E02  
                             ?_main 0001                        ?_read_ds1307 0001  
                             _ACKEN 7E2C                               _ACKDT 7E2D  
                             _BCLIF 7D0B                     __end_of___fldiv 0FC4  
                             _ACQT0 7E03                               _ACQT1 7E04  
                             _ACQT2 7E05                               STR_10 2FE4  
                             STR_11 2FE7                               STR_20 2EFC  
                             STR_12 2FF9                               STR_21 2FA5  
                             STR_13 2FDB                               STR_22 2FB5  
                             STR_30 2FEA                               STR_14 2E52  
                             STR_23 2F62                               STR_31 2FF6  
                             STR_15 2E41                               STR_40 2F62  
                             STR_32 2FD1                               STR_24 2F51  
                             STR_16 2E96                               STR_41 2F62  
                             STR_33 2FC5                               STR_25 2E85  
                             STR_17 2E63                               STR_34 2F70  
                             STR_26 2EB8                               STR_42 2EA7  
                             STR_18 2F95                               STR_43 2F62  
                             STR_27 2F1E                               STR_19 2F0D  
                             STR_35 2E2F                               STR_44 2F40  
                             STR_36 2EC9                               STR_28 2FFC  
                             STR_45 2F2F                               STR_37 2EEB  
                             STR_29 2FED                               STR_46 2EC9  
                             STR_38 2EDA                               STR_39 2FB5  
                             STR_47 2E74                               STR_48 2E1D  
                   __end_of___fltol 1D62                               _PCFG0 7E08  
                             _PCFG1 7E09                               _PCFG2 7E0A  
                             _PCFG3 7E0B                     __end_of___lwdiv 2068  
                   __end_of___lwmod 21AA                        ?_init_config 0001  
                             i2l530 2394                               _VCFG0 7E0C  
                             _VCFG1 7E0D                               _PORTD 0F83  
                             _TRISB 0F93                               _TRISC 0F94  
                             _TRISD 0F95                               _SSPIF 7CF3  
                      ?_init_timer0 0001           write_external_eeprom@data 0002  
                             _count 00A8                               _index 004F  
                             _event 0086                               _wait1 0045  
                             _wait2 0056                               _speed 00B2  
                             main@i 003C                     _change_password 0012  
   validate_password@enter_password 0003                               tablat 0FF5  
                             ttemp5 005E                               ttemp6 0061  
                             ttemp7 0065                               status 0FD8  
                             wtemp8 005E                __end_of_gear_monitor 1B54  
                  init_ds1307@dummy 0004                          _i2c_no_ack 25DA  
                   __initialization 21AA                      ?_i2c_rep_start 0001  
            ?_write_external_eeprom 0002                        __end_of_main 087C  
                  __end_of_i2c_idle 259A                    __end_of_i2c_read 25A6  
                  __end_of_i2c_stop 25D2                              ??_main 003A  
                     __activetblptr 0002                 __end_of_i2c_rx_mode 25CA  
                            _ADCON0 0FC2                    read_switches@key 0002  
            ??_read_external_eeprom 0002                     ??_display_speed 000A  
                            _ADRESH 0FC4                              _ADRESL 0FC3  
                            _T08BIT 7EAE                              i2l4090 2386  
                            i2l4092 238E                              i2l4084 2352  
                            i2l4094 2392                              i2l4086 235E  
                            i2l4088 236C                        _write_ds1307 24EA  
                            _TMR0IE 7F95                              _TMR0IF 7F92  
                            _TMR0ON 7EAF                              _SSPADD 0FC8  
                            _TRISC3 7CA3                              _TRISC4 7CA4  
                            _TRISD7 7CAF                              _SSPBUF 0FC9  
                  __end_of_car_menu 0C2A                    __end_of___xxtofl 19C2  
                  __end_of_get_time 1FF4                           ??___fldiv 001F  
                         ??___fltol 0034                           ??___lwdiv 0005  
                         ??___lwmod 0005                    __end_of_init_i2c 2588  
                  __end_of_init_adc 2526                    __end_of_read_adc 2308  
                            clear_0 21E8                              clear_1 21F4  
                            isa$std 0001                    __end_of_scan_key 1C5C  
                store_event@address 000A                        __pdataCOMRAM 005B  
           __end_of_change_password 04B6                    __end_of_set_time 12C0  
                      __mediumconst 2E1C                              tblptrh 0FF7  
                            tblptrl 0FF6                              tblptru 0FF8  
                  __end_of_view_log 180E                        ___xxtofl@arg 0013  
                      ___xxtofl@exp 0012                        ___xxtofl@val 0009  
                        __accesstop 0060             __end_of__initialization 21FA  
                     ___rparam_used 0001                          ___fltol@f1 0030  
                   ??_i2c_rep_start 0001                         ?_i2c_no_ack 0001  
                    __pcstackCOMRAM 0001                        __pidataBANK0 2398  
                       _i2c_rx_mode 25C2                   __end_of_i2c_start 25DA  
                 __end_of_i2c_write 25B2                          __pbssBANK0 00A5  
            write_external_eeprom@i 0003                           ?_i2c_idle 0001  
                         ?_i2c_read 0001                           ?_i2c_stop 0001  
                    _enter_password 00CA                          _clcd_print 20DA  
                        _clcd_putch 255A                          _clcd_write 245C  
      write_external_eeprom@address 0005                        ?_store_event 0006  
                   read_ds1307@data 0003                          _gear_index 0051  
                 read_switches@once 005B                             _ACKSTAT 7E2E  
                     _read_password 12C0                display_dashboard@key 0011  
                         ?_car_menu 0001                           ?___xxtofl 0009  
                  ?_change_password 0001                        _gear_monitor 19C2  
                           _SSPCON1 0FC6                           ?_get_time 0001  
                     _read_switches 2068                          ??_i2c_idle 0001  
                        ??_i2c_read 0001                          ??_i2c_stop 0001  
                         ?_init_i2c 0001                           ?_init_adc 0001  
                         ?_read_adc 0001                   __end_of_clear_log 22C0  
                         ?_scan_key 0001             ??_write_external_eeprom 0003  
                        _enter_flag 005A                             __Hparam 0000  
                           __Lparam 0000                           ?_set_time 0001  
                change_password@key 000E                             ___fldiv 0C2A  
                         ?_view_log 0001                             ___fltol 1C5C  
                           ___lwdiv 1FF4                             ___lwmod 2146  
                           _address 00AA                             __pcinit 21AA  
                           __ramtop 0600                      ?_read_password 0001  
                           __ptext0 04B6                             __ptext1 159E  
                           __ptext2 2496                             __ptext3 0FC4  
                           __ptext4 2068                             __ptext5 1B54  
                           __ptext6 12C0                             __ptext7 22C0  
                           __ptext8 2526                             __ptext9 2540  
                        _menu_index 0047                          _menu_event 007A  
                           _attempt 005C                             _index_1 0049  
                           _index_2 0084                   _validate_password 1ED4  
                 __end_of_init_clcd 1ED4                          ??_car_menu 000E  
                        ??___xxtofl 000D                  ?_validate_password 0001  
                    ?_read_switches 0001                             main@key 0042  
                        ??_get_time 0004                      __pintcode_body 2350  
              end_of_initialization 21FA                 ??_validate_password 0005  
                       set_time@key 000C                          ??_init_i2c 0001  
                        ??_init_adc 0001                       __Lmediumconst 2E1C  
                        ??_read_adc 0003                             int_func 2350  
                        ??_scan_key 0001                         ?_clcd_print 0003  
                       ?_clcd_putch 0008                         ?_clcd_write 0001  
                        ??_set_time 000A                             postdec1 0FE5  
                           postdec2 0FDD                             postinc0 0FEE  
                           postinc2 0FDE                          ??_view_log 000A  
                 _original_password 00A0           __end_of_validate_password 1F72  
                   read_adc@channel 0008                       i2c_write@data 0001  
                        _view_event 00B4                       ___xxtofl@sign 0011  
                       ___fldiv@grs 002A                         ___fldiv@rem 0023  
             __end_of_display_speed 245C            read_external_eeprom@data 0003  
                      ??_i2c_no_ack 0001                        ?_i2c_rx_mode 0001  
                   ??_read_password 000A                       __pidataCOMRAM 25E0  
                       view_log@key 000E                    store_event@event 0006  
               start_initialization 21AA                     ??_read_switches 0001  
                         _i2c_start 25D2                         __end_of_isr 2398  
                         _i2c_write 25A6                  __end_of_i2c_no_ack 25E0  
                      _index_eeprom 00B0                    change_password@i 000C  
             __end_of_i2c_rep_start 25C2                       ??_init_ds1307 0004  
                       __pdataBANK0 0060                       ??_read_ds1307 0002  
                     ??_init_config 0005                           ___fldiv@a 001B  
                         ___fldiv@b 0017                       ??_init_timer0 0001  
                       __pbssCOMRAM 0043                          ?_i2c_start 0001  
                        ?_i2c_write 0001                  display_speed@speed 0008  
                    store_event@ind 000C                    ___lwdiv@dividend 0001  
     __end_of_write_external_eeprom 241E                           _clear_log 2266  
                         _gear_data 0060                           _gear_flag 0057  
                         __pintcode 0008                       __pmediumconst 2E1C  
                          ?___fldiv 0017                            ?___fltol 0030  
                 _display_dashboard 2208                  read_ds1307@address 0002  
                          ?___lwdiv 0001                           _clock_reg 00A5  
                          ?___lwmod 0001                    _confirm_password 00C5  
                ?_display_dashboard 0001                 __end_of_init_ds1307 2350  
               ??_display_dashboard 0011                 __end_of_read_ds1307 24EA  
                  ___lwdiv@quotient 0005                           _init_clcd 1E24  
               __end_of_init_config 2540                       ?_write_ds1307 0002  
               __end_of_init_timer0 255A                           _pass_flag 0055  
       read_external_eeprom@address 0002                        ??_clcd_print 0006  
                      ??_clcd_putch 0009          __end_of_init_matrix_keypad 25BA  
                      ??_clcd_write 0002                            i2u423_40 236C  
                          i2u423_41 2368                            i2u424_40 2386  
                          i2u424_41 2382                          ?_clear_log 0001  
         __end_of_display_dashboard 2266                           _view_flag 00AC  
             clcd_write@control_bit 0001                           _star_flag 0082  
                         main@i_144 003E                           main@i_148 0040  
validate_password@original_password 0001                         ??_i2c_start 0001  
                __end_of_clcd_print 2146                         ??_i2c_write 0001  
                __end_of_clcd_putch 2572                  __end_of_clcd_write 2496  
                        ?_init_clcd 0001                           copy_data0 21BE  
                    ??_write_ds1307 0003                            _i2c_idle 2588  
                          _i2c_read 259A                            _i2c_stop 25CA  
                       _count_event 0043                            __Hrparam 0000  
                          __Lrparam 0000                         car_menu@key 0010  
      __end_of_read_external_eeprom 24C0                         _init_ds1307 2308  
                       _read_ds1307 24C0                         _init_config 2526  
                          _car_menu 087C                            ___xxtofl 180E  
               write_ds1307@address 0003                         _init_timer0 2540  
                  read_password@key 000C                     ___lwdiv@divisor 0003  
                   ___lwdiv@counter 0007                            __ptext10 25B2  
                          __ptext11 2572                            __ptext20 25C2  
                          __ptext12 2308                            __ptext21 25DA  
                          __ptext13 24EA                            __ptext30 087C  
                          __ptext22 241E                            __ptext14 1E24  
                          __ptext31 1D62                            __ptext23 2146  
                          __ptext15 2508                            __ptext40 180E  
                          __ptext32 23DE                            __ptext24 1FF4  
                          __ptext16 1F72                            __ptext41 1C5C  
                          __ptext33 25A6                            __ptext25 2208  
                          __ptext17 24C0                            __ptext42 0C2A  
                          __ptext34 25CA                            __ptext26 19C2  
                          __ptext18 25BA                            __ptext35 25D2  
                          __ptext27 2266                            __ptext19 259A  
                          __ptext36 2588                            __ptext28 0012  
                          __ptext37 255A                            __ptext29 1ED4  
                          __ptext38 20DA                            __ptext39 245C  
                          _get_time 1F72                            _init_i2c 2572  
                          _init_adc 2508                            _read_adc 22C0  
                          _scan_key 1B54                            _pass_key 0059  
                       ??_clear_log 000E                       ??_store_event 0008  
                 ??_change_password 000A                            _set_time 0FC4  
                          isa$xinst 0000                            int$flags 005D  
                          _view_log 159E               __end_of_read_password 159E  
                         view_log@i 000C                       ?_gear_monitor 0001  
                       ??_init_clcd 0003               __end_of_read_switches 20DA  
                          intlevel2 0000                    ___lwmod@dividend 0001  
                   gear_monitor@key 0010                __end_of_write_ds1307 2508  
               __end_of_store_event 1E24                      ??_gear_monitor 000E  
                   ___lwmod@divisor 0003                     ___lwmod@counter 0005  
                      _previous_key 004B                    write_ds1307@data 0002  
              _read_external_eeprom 2496                       _display_speed 241E  
      validate_password@ind_compare 0008  
